         U _IO_putc@@GLIBC_2.0
         w _Jv_RegisterClasses
         U __assert_fail@@GLIBC_2.0
         U __ctype_b_loc@@GLIBC_2.3
         U __ctype_toupper_loc@@GLIBC_2.3
         U __cxa_atexit@@GLIBC_2.1.3
         U __errno_location@@GLIBC_2.0
         U __fxstat64@@GLIBC_2.2
         w __gmon_start__
         U __isinf@@GLIBC_2.0
         U __isnan@@GLIBC_2.0
         U __isnanf@@GLIBC_2.0
         U __libc_start_main@@GLIBC_2.0
         U __lxstat64@@GLIBC_2.2
         U __mempcpy@@GLIBC_2.0
         U __stpcpy@@GLIBC_2.0
         U __strtol_internal@@GLIBC_2.0
         U __strtoll_internal@@GLIBC_2.0
         U __strtoul_internal@@GLIBC_2.0
         U __xstat64@@GLIBC_2.2
         U abort@@GLIBC_2.0
         U accept@@GLIBC_2.0
         U access@@GLIBC_2.0
         U acos@@GLIBC_2.0
         U alarm@@GLIBC_2.0
         U asin@@GLIBC_2.0
         U bcopy@@GLIBC_2.0
         U bind@@GLIBC_2.0
         U calloc@@GLIBC_2.0
         U chdir@@GLIBC_2.0
         U chmod@@GLIBC_2.0
         U chown@@GLIBC_2.1
         U chroot@@GLIBC_2.0
         U clearerr@@GLIBC_2.0
         U clock@@GLIBC_2.0
         U close@@GLIBC_2.0
         U closedir@@GLIBC_2.0
         U connect@@GLIBC_2.0
         U cos@@GLIBC_2.0
         U crypt@@GLIBC_2.0
         U difftime@@GLIBC_2.0
         U dlclose@@GLIBC_2.0
         U dlerror@@GLIBC_2.0
         U dlopen@@GLIBC_2.1
         U dlsym@@GLIBC_2.0
         U dup@@GLIBC_2.0
         U endpwent@@GLIBC_2.0
         U exit@@GLIBC_2.0
         U exp@@GLIBC_2.0
         U fchmod@@GLIBC_2.0
         U fclose@@GLIBC_2.1
         U fcntl@@GLIBC_2.0
         U fdatasync@@GLIBC_2.0
         U fdopen@@GLIBC_2.1
         U feof@@GLIBC_2.0
         U ferror@@GLIBC_2.0
         U fflush@@GLIBC_2.0
         U fgets@@GLIBC_2.0
         U fileno@@GLIBC_2.0
         U finite@@GLIBC_2.0
         U fopen64@@GLIBC_2.1
         U fopen@@GLIBC_2.1
         U fprintf@@GLIBC_2.0
         U fputc@@GLIBC_2.0
         U fputs@@GLIBC_2.0
         U fread@@GLIBC_2.0
         U free@@GLIBC_2.0
         U freopen64@@GLIBC_2.1
         U fseek@@GLIBC_2.0
         U fsync@@GLIBC_2.0
         U ftell@@GLIBC_2.0
         U ftruncate64@@GLIBC_2.1
         U fwrite@@GLIBC_2.0
         U getcwd@@GLIBC_2.0
         U getenv@@GLIBC_2.0
         U geteuid@@GLIBC_2.0
         U gethostbyaddr@@GLIBC_2.0
         U gethostbyname@@GLIBC_2.0
         U gethostbyname_r@@GLIBC_2.1.2
         U gethostname@@GLIBC_2.0
         U getpagesize@@GLIBC_2.0
         U getpeername@@GLIBC_2.0
         U getpid@@GLIBC_2.0
         U getpwnam@@GLIBC_2.0
         U getpwuid@@GLIBC_2.0
         U getrlimit64@@GLIBC_2.2
         U getrusage@@GLIBC_2.0
         U getservbyname@@GLIBC_2.0
         U getsockname@@GLIBC_2.0
         U gettimeofday@@GLIBC_2.0
         U getuid@@GLIBC_2.0
         U gmtime_r@@GLIBC_2.0
         U inet_addr@@GLIBC_2.0
         U inet_ntoa@@GLIBC_2.0
         U initgroups@@GLIBC_2.0
         U ioctl@@GLIBC_2.0
         U listen@@GLIBC_2.0
         U localtime_r@@GLIBC_2.0
         U log10@@GLIBC_2.0
         U log@@GLIBC_2.0
         U lseek64@@GLIBC_2.2
         U madvise@@GLIBC_2.0
         U mallinfo@@GLIBC_2.0
         U malloc@@GLIBC_2.0
         U memcpy@@GLIBC_2.0
         U memmove@@GLIBC_2.0
         U memset@@GLIBC_2.0
         U mkdir@@GLIBC_2.0
         U mkstemp64@@GLIBC_2.2
         U mlockall@@GLIBC_2.0
         U mmap64@@GLIBC_2.1
         U msync@@GLIBC_2.0
         U munmap@@GLIBC_2.0
         U open64@@GLIBC_2.2
         U opendir@@GLIBC_2.0
         U poll@@GLIBC_2.0
         U pow@@GLIBC_2.0
         U pread64@@GLIBC_2.2
         U printf@@GLIBC_2.0
         U pthread_attr_destroy@@GLIBC_2.0
         U pthread_attr_getstacksize@@GLIBC_2.1
         U pthread_attr_init@@GLIBC_2.1
         U pthread_attr_setdetachstate@@GLIBC_2.0
         U pthread_attr_setschedparam@@GLIBC_2.0
         U pthread_attr_setscope@@GLIBC_2.0
         U pthread_attr_setstacksize@@GLIBC_2.1
         U pthread_cond_broadcast@@GLIBC_2.3.2
         U pthread_cond_destroy@@GLIBC_2.3.2
         U pthread_cond_init@@GLIBC_2.3.2
         U pthread_cond_signal@@GLIBC_2.3.2
         U pthread_cond_timedwait@@GLIBC_2.3.2
         U pthread_cond_wait@@GLIBC_2.3.2
         U pthread_create@@GLIBC_2.1
         U pthread_equal@@GLIBC_2.0
         U pthread_exit@@GLIBC_2.0
         U pthread_getschedparam@@GLIBC_2.0
         U pthread_getspecific@@GLIBC_2.0
         U pthread_key_create@@GLIBC_2.0
         U pthread_key_delete@@GLIBC_2.0
         U pthread_kill@@GLIBC_2.0
         U pthread_mutex_destroy@@GLIBC_2.0
         U pthread_mutex_init@@GLIBC_2.0
         U pthread_mutex_lock@@GLIBC_2.0
         U pthread_mutex_trylock@@GLIBC_2.0
         U pthread_mutex_unlock@@GLIBC_2.0
         U pthread_mutexattr_destroy@@GLIBC_2.0
         U pthread_mutexattr_init@@GLIBC_2.0
         U pthread_mutexattr_settype@@GLIBC_2.1
         U pthread_rwlock_destroy@@GLIBC_2.1
         U pthread_rwlock_init@@GLIBC_2.1
         U pthread_rwlock_rdlock@@GLIBC_2.1
         U pthread_rwlock_trywrlock@@GLIBC_2.1
         U pthread_rwlock_unlock@@GLIBC_2.1
         U pthread_rwlock_wrlock@@GLIBC_2.1
         U pthread_self@@GLIBC_2.0
         U pthread_setschedparam@@GLIBC_2.0
         U pthread_setspecific@@GLIBC_2.0
         U pthread_sigmask@@GLIBC_2.0
         U puts@@GLIBC_2.0
         U pwrite64@@GLIBC_2.2
         U read@@GLIBC_2.0
         U readdir64_r@@GLIBC_2.2
         U readlink@@GLIBC_2.0
         U realloc@@GLIBC_2.0
         U realpath@@GLIBC_2.3
         U rename@@GLIBC_2.0
         U rewind@@GLIBC_2.0
         U rint@@GLIBC_2.0
         U rmdir@@GLIBC_2.0
         U sbrk@@GLIBC_2.0
         U sched_yield@@GLIBC_2.0
         U select@@GLIBC_2.0
         U setgid@@GLIBC_2.0
         U setregid@@GLIBC_2.0
         U setreuid@@GLIBC_2.0
         U setrlimit64@@GLIBC_2.1
         U setsockopt@@GLIBC_2.0
         U setuid@@GLIBC_2.0
         U shmat@@GLIBC_2.0
         U shmctl@@GLIBC_2.2
         U shmdt@@GLIBC_2.0
         U shmget@@GLIBC_2.0
         U shutdown@@GLIBC_2.0
         U sigaction@@GLIBC_2.0
         U sigaddset@@GLIBC_2.0
         U sigdelset@@GLIBC_2.0
         U sigemptyset@@GLIBC_2.0
         U sigfillset@@GLIBC_2.0
         U signal@@GLIBC_2.0
         U sigprocmask@@GLIBC_2.0
         U sigwait@@GLIBC_2.0
         U sin@@GLIBC_2.0
         U sleep@@GLIBC_2.0
         U snprintf@@GLIBC_2.0
         U socket@@GLIBC_2.0
         U sprintf@@GLIBC_2.0
         U sqrt@@GLIBC_2.0
         U sscanf@@GLIBC_2.0
         U stpcpy@@GLIBC_2.0
         U strcat@@GLIBC_2.0
         U strchr@@GLIBC_2.0
         U strcmp@@GLIBC_2.0
         U strcpy@@GLIBC_2.0
         U strerror@@GLIBC_2.0
         U strlen@@GLIBC_2.0
         U strncmp@@GLIBC_2.0
         U strncpy@@GLIBC_2.0
         U strrchr@@GLIBC_2.0
         U symlink@@GLIBC_2.0
         U tan@@GLIBC_2.0
         U time@@GLIBC_2.0
         U tzset@@GLIBC_2.0
         U umask@@GLIBC_2.0
         U unlink@@GLIBC_2.0
         U utime@@GLIBC_2.0
         U vfprintf@@GLIBC_2.0
         U vsnprintf@@GLIBC_2.0
         U write@@GLIBC_2.0
080dfc90 T _init
080e0a40 T _start
080e0a64 t call_gmon_start
080e0a90 t __do_global_dtors_aux
080e0ad0 t frame_dummy
080e0b00 T _Z8lex_freev
080e0b10 t _Z12find_keywordP6st_lexjb
080e0d40 T _Z10is_keywordPKcj
080e0e20 T _ZN18st_select_lex_node10init_queryEv
080e0e50 T _ZN18st_select_lex_node11init_selectEv
080e0e60 T _ZN18st_select_lex_unit10init_queryEv
080e0f20 T _ZN13st_select_lex11init_selectEv
080e1070 T _ZN18st_select_lex_node12include_downEPS_
080e10a0 T _ZN18st_select_lex_node18include_standaloneEPS_PS0_
080e10d0 T _ZN18st_select_lex_node17include_neighbourEPS_
080e1110 T _ZN18st_select_lex_node14include_globalEPPS_
080e1140 T _ZN18st_select_lex_node12fast_excludeEv
080e1190 T _ZN18st_select_lex_node7excludeEv
080e11c0 T _ZN18st_select_lex_unit13exclude_levelEv
080e1270 T _ZN18st_select_lex_unit12exclude_treeEv
080e12f0 T _ZN13st_select_lex17mark_as_dependentEPS_
080e1360 T _ZN18st_select_lex_node10set_bracesEb
080e1370 T _ZN18st_select_lex_node15inc_in_sum_exprEv
080e1380 T _ZN18st_select_lex_node15get_in_sum_exprEv
080e1390 T _ZN18st_select_lex_node14get_table_listEv
080e13a0 T _ZN18st_select_lex_node13get_item_listEv
080e13b0 T _ZN18st_select_lex_node13get_use_indexEv
080e13c0 T _ZN18st_select_lex_node16get_ignore_indexEv
080e13d0 T _ZN18st_select_lex_node17add_table_to_listEP3THDP11Table_identP13st_lex_stringm13thr_lock_typeP4ListI6StringESA_S5_
080e13e0 T _ZN18st_select_lex_node22get_table_join_optionsEv
080e13f0 T _ZN18st_select_lex_unit11master_unitEv
080e1400 T _ZN18st_select_lex_unit12outer_selectEv
080e1410 T _ZN13st_select_lex11master_unitEv
080e1420 T _ZN13st_select_lex12outer_selectEv
080e1430 T _ZN13st_select_lex10set_bracesEb
080e1450 T _ZN13st_select_lex15inc_in_sum_exprEv
080e1460 T _ZN13st_select_lex15get_in_sum_exprEv
080e1470 T _ZN13st_select_lex14get_table_listEv
080e1480 T _ZN13st_select_lex13get_item_listEv
080e1490 T _ZN13st_select_lex13get_use_indexEv
080e14a0 T _ZN13st_select_lex16get_ignore_indexEv
080e14b0 T _ZN13st_select_lex22get_table_join_optionsEv
080e14c0 T _ZN6st_lex13can_be_mergedEv
080e1570 T _ZN6st_lex14can_use_mergedEv
080e15a0 T _ZN6st_lex18can_not_use_mergedEv
080e15e0 T _ZN6st_lex19only_view_structureEv
080e1640 T _ZN6st_lex18need_correct_identEv
080e1680 T _ZN6st_lex24get_effective_with_checkEP13st_table_list
080e16f0 T _ZN18st_select_lex_unit9set_limitEP13st_select_lex
080e17d0 T _ZN6st_lex23first_lists_tables_sameEv
080e1850 T _ZN6st_lex18unlink_first_tableEPb
080e1900 T _ZN6st_lex21link_first_table_backEP13st_table_listb
080e1970 t _Z30fix_prepare_info_in_table_listP3THDP13st_table_list
080e19e0 T _ZN13st_select_lex23fix_prepare_informationEP3THDPP4Item
080e1a60 t _GLOBAL__I__Z8lex_initv
080e1ab0 t __tcf_0
080e1ac0 T _ZN6st_lex28cleanup_after_one_table_openEv
080e1b70 T _ZN6st_lex36add_time_zone_tables_to_query_tablesEP3THD
080e1bc0 T _ZN6st_lexC1Ev
080e1fb0 T _ZN6st_lexC2Ev
080e23a0 T _ZN13st_select_lex11print_limitEP3THDP6String
080e24c0 T _ZN13st_select_lex11print_orderEP6StringP8st_order
080e25a0 T _ZN18st_select_lex_unit5printEP6String
080e2750 T _ZN13st_select_lex15setup_ref_arrayEP3THDj
080e27c0 T _ZN13st_select_lex18add_ftfunc_to_listEP15Item_func_match
080e2840 T _ZN13st_select_lex16add_item_to_listEP3THDP4Item
080e2890 T _ZN13st_select_lex10init_queryEv
080e2a20 T _Z9lex_startP3THDPhj
080e2db0 T _ZN13st_select_lex17add_group_to_listEP3THDP4Itemb
080e2de0 T _ZN13st_select_lex17add_order_to_listEP3THDP4Itemb
080e2e20 T _ZN13st_select_lex10test_limitEv
080e2e80 t _Z9get_tokenP6st_lexj
080e2ed0 T _Z5yylexPvS_
080e4500 T _Z7lex_endP6st_lex
080e4530 T _Z8lex_initv
080e45b0 W _ZN18st_select_lex_nodeD1Ev
080e45c0 W _ZN18st_select_lex_nodeD0Ev
080e45d0 W _ZN18st_select_lex_node19set_lock_for_tablesE13thr_lock_type
080e45e0 W _ZN18st_select_lex_unitD0Ev
080e45f0 W _ZN18st_select_lex_unitD1Ev
080e4600 W _ZN18st_select_lex_unit20return_after_parsingEv
080e4610 W _ZN13st_select_lexD0Ev
080e4620 W _ZN13st_select_lexD1Ev
080e4630 W _ZN13st_select_lex20return_after_parsingEv
080e4650 W _ZN6st_lexD0Ev
080e4690 W _ZN6st_lexD1Ev
080e46d0 t _Z21mysql_ha_hash_get_keyP13st_table_listPjc
080e4700 t _Z20mysql_ha_flush_tableP3THDPP8st_tablej
080e4800 T _Z14mysql_ha_flushP3THDP13st_table_listjb
080e4980 t _Z18mysql_ha_hash_freeP13st_table_list
080e4990 T _Z14mysql_ha_closeP3THDP13st_table_list
080e4af0 T _Z13mysql_ha_openP3THDP13st_table_listb
080e4e10 T _Z13mysql_ha_readP3THDP13st_table_list18enum_ha_read_modesPcP4ListI4ItemE16ha_rkey_functionPS6_yy
080e59b0 T _ZNK18Hybrid_type_traits18fix_length_and_decEP4ItemS1_
080e59d0 T _ZN18Hybrid_type_traits8instanceEv
080e59e0 T _ZN26Hybrid_type_traits_decimal8instanceEv
080e59f0 T _ZNK26Hybrid_type_traits_decimal18fix_length_and_decEP4ItemS1_
080e5a20 T _ZNK26Hybrid_type_traits_decimal8set_zeroEP11Hybrid_type
080e5a50 T _ZN26Hybrid_type_traits_integer8instanceEv
080e5a60 T _ZNK26Hybrid_type_traits_integer18fix_length_and_decEP4ItemS1_
080e5a80 T _ZNK4Item17decimal_precisionEv
080e5b00 T _ZN4Item7cleanupEv
080e5b20 T _ZN4Item17cleanup_processorEPc
080e5b50 T _ZN4Item6renameEPc
080e5b70 T _ZN10Item_ident7cleanupEv
080e5ba0 T _ZN10Item_ident27remove_dependence_processorEPc
080e5bc0 T _ZNK4Item2eqEPKS_b
080e5c40 T _ZN4Item25save_in_field_no_warningsEP5Fieldb
080e5c90 T _ZN16Item_sp_variable10fix_fieldsEP3THDPP4Item
080e5ce0 T _ZN16Item_sp_variable8val_realEv
080e5d20 T _ZN16Item_sp_variable7val_intEv
080e5d60 T _ZN16Item_sp_variable11val_decimalEP10my_decimal
080e5da0 T _ZN16Item_sp_variable7is_nullEv
080e5dd0 T _ZN15Item_name_const8val_realEv
080e5e00 T _ZN15Item_name_const7val_intEv
080e5e30 T _ZN15Item_name_const7val_strEP6String
080e5e60 T _ZN15Item_name_const11val_decimalEP10my_decimal
080e5e90 T _ZN15Item_name_const7is_nullEv
080e5eb0 T _ZNK15Item_name_const4typeEv
080e5ed0 T _ZN10Item_field9set_fieldEP5Field
080e5f80 T _ZN10Item_field11reset_fieldEP5Field
080e5fb0 T _ZN10Item_field7val_strEP6String
080e6020 T _ZN10Item_field8val_realEv
080e6070 T _ZN10Item_field7val_intEv
080e60e0 T _ZN10Item_field11val_decimalEP10my_decimal
080e6140 T _ZN10Item_field10str_resultEP6String
080e61b0 T _ZN10Item_field10val_resultEv
080e6200 T _ZN10Item_field14val_int_resultEv
080e6270 T _ZN10Item_field18val_decimal_resultEP10my_decimal
080e62d0 T _ZNK10Item_field11used_tablesEv
080e6320 T _ZNK9Item_null2eqEPK4Itemb
080e6360 T _ZN9Item_null8val_realEv
080e6370 T _ZN9Item_null7val_intEv
080e6380 T _ZN9Item_null7val_strEP6String
080e6390 T _ZN9Item_null11val_decimalEP10my_decimal
080e63a0 T _ZN9Item_null22safe_charset_converterEP15charset_info_st
080e63b0 T _ZN10Item_param8set_nullEv
080e63e0 t _Z22default_set_param_funcP10Item_paramPPhm
080e63f0 T _ZN10Item_param7set_intExj
080e6430 T _ZN10Item_param10set_doubleEd
080e6460 T _ZNK10Item_param16basic_const_itemEv
080e6490 T _ZN16Item_copy_string7val_strEP6String
080e64b0 T _ZN4Item10fix_fieldsEP3THDPPS_
080e64c0 T _ZN20Item_ref_null_helper8val_realEv
080e6500 T _ZN20Item_ref_null_helper7val_intEv
080e6550 T _ZN20Item_ref_null_helper11val_decimalEP10my_decimal
080e65a0 T _ZN20Item_ref_null_helper8val_boolEv
080e65f0 T _ZN20Item_ref_null_helper7val_strEP6String
080e6640 T _ZN20Item_ref_null_helper8get_dateEP13st_mysql_timej
080e66a0 T _ZN10Item_field7cleanupEv
080e66d0 T _ZN10Item_field16set_no_const_subEPc
080e6700 T _ZN10Item_field19replace_equal_fieldEPc
080e6760 T _ZN4Item15init_make_fieldEP10Send_field16enum_field_types
080e67d0 T _ZN4Item10make_fieldEP10Send_field
080e6800 T _ZN17Item_empty_string10make_fieldEP10Send_field
080e6860 T _ZNK4Item10field_typeEv
080e68b0 T _ZN10Item_field10make_fieldEP10Send_field
080e68f0 T _ZN12Item_decimal13save_in_fieldEP5Fieldb
080e6920 T _ZNK8Item_int2eqEPK4Itemb
080e69b0 t _Z14nr_of_decimalsPKcS0_
080e6a30 T _ZNK10Item_float2eqEPK4Itemb
080e6aa0 T _ZN15Item_hex_string7val_intEv
080e6af0 T _ZN15Item_hex_string13save_in_fieldEP5Fieldb
080e6b80 T _ZN9Item_null4sendEP8ProtocolP6String
080e6ba0 T _ZN4Item4sendEP8ProtocolP6String
080e6e60 T _ZN10Item_field4sendEP8ProtocolP6String
080e6e80 T _ZN8Item_ref14set_propertiesEv
080e6f00 T _ZN8Item_ref7cleanupEv
080e6f20 T _ZN8Item_ref4sendEP8ProtocolP6String
080e6f80 T _ZN8Item_ref10val_resultEv
080e6fe0 T _ZN8Item_ref14val_int_resultEv
080e7060 T _ZN8Item_ref10str_resultEP6String
080e70e0 T _ZN8Item_ref18val_decimal_resultEP10my_decimal
080e7150 T _ZN8Item_ref8val_realEv
080e7180 T _ZN8Item_ref7val_intEv
080e71b0 T _ZN8Item_ref8val_boolEv
080e71e0 T _ZN8Item_ref7val_strEP6String
080e7220 T _ZN8Item_ref7is_nullEv
080e7240 T _ZN8Item_ref8get_dateEP13st_mysql_timej
080e7280 T _ZN8Item_ref11val_decimalEP10my_decimal
080e72c0 T _ZN8Item_ref10make_fieldEP10Send_field
080e7310 T _ZN15Item_direct_ref8val_realEv
080e7340 T _ZN15Item_direct_ref7val_intEv
080e7370 T _ZN15Item_direct_ref7val_strEP6String
080e73b0 T _ZN15Item_direct_ref11val_decimalEP10my_decimal
080e73f0 T _ZN15Item_direct_ref8val_boolEv
080e7420 T _ZN15Item_direct_ref7is_nullEv
080e7440 T _ZN15Item_direct_ref8get_dateEP13st_mysql_timej
080e7480 T _ZNK20Item_direct_view_ref2eqEPK4Itemb
080e74d0 T _ZNK18Item_default_value2eqEPK4Itemb
080e7530 T _ZNK17Item_insert_value2eqEPK4Itemb
080e7590 T _ZNK18Item_trigger_field2eqEPK4Itemb
080e7600 T _ZN18Item_trigger_field7cleanupEv
080e7610 T _Z13item_cmp_type11Item_resultS_
080e7690 T _ZN14Item_cache_int5storeEP4Item
080e76d0 T _ZN15Item_cache_real5storeEP4Item
080e7700 T _ZN18Item_cache_decimal5storeEP4Item
080e7770 T _ZN18Item_cache_decimal11val_decimalEP10my_decimal
080e7780 T _ZN14Item_cache_str8val_realEv
080e77d0 T _ZN14Item_cache_str7val_intEv
080e7830 T _ZN14Item_cache_row5storeEP4Item
080e78b0 T _ZN14Item_cache_row11null_insideEv
080e7930 T _ZN14Item_cache_row11bring_valueEv
080e7970 T _ZN16Item_type_holder13get_real_typeEP4Item
080e7a40 T _ZN16Item_type_holder14display_lengthEP4Item
080e7b10 T _ZN16Item_type_holder13get_full_infoEP4Item
080e7b90 T _ZN16Item_type_holder8val_realEv
080e7ba0 T _ZN16Item_type_holder7val_intEv
080e7bb0 T _ZN16Item_type_holder11val_decimalEP10my_decimal
080e7bc0 T _ZN16Item_type_holder7val_strEP6String
080e7bd0 T _ZN17Item_result_field7cleanupEv
080e7bf0 T _Z21dummy_error_processorP3THDPv
080e7c00 t __tcf_0
080e7c40 T _ZN4ItemC1EP3THDPS_
080e7ce0 T _ZN4ItemC2EP3THDPS_
080e7d80 T _ZN10Item_identC1EP3THDPS_
080e7e00 T _ZN10Item_identC2EP3THDPS_
080e7e80 T _ZN10Item_fieldC1EP3THDPS_
080e7ef0 T _ZN10Item_fieldC2EP3THDPS_
080e7f60 T _ZN16Item_sp_variable7val_strEP6String
080e8010 T _ZN10Item_param5resetEv
080e80a0 T _ZN10Item_field8get_timeEP13st_mysql_time
080e8120 T _ZN10Item_field15get_date_resultEP13st_mysql_timej
080e81b0 T _ZN10Item_field8get_dateEP13st_mysql_timej
080e8240 T _ZN10Item_field18get_tmp_table_itemEP3THD
080e8280 T _ZN10Item_field28collect_item_field_processorEPc
080e8310 T _ZN8Item_ref15val_bool_resultEv
080e8400 T _ZN10Item_field15val_bool_resultEv
080e84e0 T _ZN4Item8val_boolEv
080e8580 T _ZN15Item_cache_real7val_intEv
080e85c0 T _ZN8Item_int7val_strEP6String
080e8600 T _ZN14Item_cache_int11val_decimalEP10my_decimal
080e8660 T _ZN15Item_hex_string11val_decimalEP10my_decimal
080e86b0 T _ZN8Item_int11val_decimalEP10my_decimal
080e8710 T _ZN4Item20val_decimal_from_intEP10my_decimal
080e8780 t _GLOBAL__I__ZNK18Hybrid_type_traits18fix_length_and_decEP4ItemS1_
080e87f0 T _Z20view_error_processorP3THDPv
080e8810 T _ZN4Item17make_string_fieldEP8st_table
080e89e0 T _ZNK16Item_type_holder11result_typeEv
080e8a00 T _ZN16Item_type_holderC1EP3THDP4Item
080e8aa0 T _ZN16Item_type_holderC2EP3THDP4Item
080e8b40 T _ZN14Item_cache_row10check_colsEj
080e8b80 T _ZN14Item_cache_row19illegal_method_callEPKc
080e8bb0 T _ZN18Item_trigger_field10fix_fieldsEP3THDPP4Item
080e8c40 t _Z17my_coll_agg_errorPP4ItemjPKc
080e8ee0 T _ZN4Item10check_colsEj
080e8f10 T _ZN4Item15default_charsetEv
080e8f30 T _ZN14Item_cache_int7val_strEP6String
080e8f70 T _ZN4ItemC1Ev
080e9040 T _ZN4ItemC2Ev
080e9110 T _ZN10Item_floatC1EPKcj
080e91c0 T _ZN10Item_floatC2EPKcj
080e9270 T _ZN12Item_decimalC1EP10my_decimal
080e9310 T _ZN12Item_decimalC2EP10my_decimal
080e93b0 T _ZN12Item_decimalC1EPKcPK10my_decimaljj
080e9430 T _ZN12Item_decimalC2EPKcPK10my_decimaljj
080e94b0 T _ZN12Item_decimalC1Exb
080e9590 T _ZN9Item_uint3negEv
080e95e0 T _ZN12Item_decimalC2Exb
080e96c0 T _ZN9Item_uintC1EPKcxj
080e9710 T _ZN17Item_int_with_ref8new_itemEv
080e97e0 T _ZN9Item_uintC2EPKcxj
080e9830 T _ZN10Item_cache9get_cacheE11Item_result
080e9a00 T _ZN14Item_cache_row5setupEP4Item
080e9ac0 T _ZN15Item_bin_stringC1EPKcj
080e9bf0 T _ZN15Item_bin_stringC2EPKcj
080e9d20 T _ZN15Item_hex_stringC1EPKcj
080e9ec0 T _ZN15Item_hex_stringC2EPKcj
080ea060 T _ZN16Item_sp_variableC1EPcj
080ea0c0 T _ZN16Item_sp_variableC2EPcj
080ea120 T _ZN14Item_case_exprC1Ei
080ea160 T _ZN14Item_case_exprC2Ei
080ea1a0 T _ZN10Item_identC1EP23Name_resolution_contextPKcS3_S3_
080ea210 T _ZN10Item_identC2EP23Name_resolution_contextPKcS3_S3_
080ea280 T _ZN8Item_refC1EP23Name_resolution_contextPP4ItemPKcS6_
080ea300 T _ZN8Item_refC2EP23Name_resolution_contextPP4ItemPKcS6_
080ea380 T _ZN10Item_fieldC1EP23Name_resolution_contextPKcS3_S3_
080ea3f0 T _ZN10Item_fieldC2EP23Name_resolution_contextPKcS3_S3_
080ea460 T _ZN10Item_fieldC1EP5Field
080ea4e0 T _ZN10Item_fieldC2EP5Field
080ea560 T _ZN14Item_cache_row8allocateEj
080ea5d0 T _ZN14Item_cache_str11val_decimalEP10my_decimal
080ea620 T _ZN16Item_copy_string11val_decimalEP10my_decimal
080ea670 T _ZN12Item_decimalC1EPKcjP15charset_info_st
080ea720 T _ZN12Item_decimalC2EPKcjP15charset_info_st
080ea7d0 T _ZN14Item_cache_str5storeEP4Item
080ea8a0 T _ZN16Item_copy_string4copyEv
080ea8f0 T _ZN12Item_decimal7val_strEP6String
080ea940 T _ZN18Item_cache_decimal7val_strEP6String
080ea9b0 T _ZN4Item23val_string_from_decimalEP6String
080eaa50 T _ZNK26Hybrid_type_traits_decimal7val_strEP11Hybrid_typeP6Stringh
080eaae0 T _ZN18Item_cache_decimal7val_intEv
080eab80 T _ZN12Item_decimal7val_intEv
080eac20 T _ZN4Item20val_int_from_decimalEv
080ead00 T _ZNK26Hybrid_type_traits_decimal7val_intEP11Hybrid_typeb
080eadb0 T _ZN18Item_cache_decimal8val_realEv
080eadd0 T _ZN12Item_decimal8val_realEv
080eadf0 T _ZN4Item21val_real_from_decimalEv
080eae40 T _ZNK26Hybrid_type_traits_decimal8val_realEP11Hybrid_type
080eae80 T _ZN15Item_cache_real11val_decimalEP10my_decimal
080eaf10 T _ZN10Item_float11val_decimalEP10my_decimal
080eafa0 T _ZN12Item_decimalC1Edii
080eb080 T _ZN12Item_decimalC2Edii
080eb160 T _ZN4Item21val_decimal_from_realEP10my_decimal
080eb1f0 T _ZNK18Hybrid_type_traits11val_decimalEP11Hybrid_typeP10my_decimal
080eb280 T _ZN15Item_cache_real7val_strEP6String
080eb2c0 T _ZN10Item_float7val_strEP6String
080eb300 T _ZN4Item20val_string_from_realEP6String
080eb360 T _ZNK18Hybrid_type_traits7val_strEP11Hybrid_typeP6Stringh
080eb3a0 T _ZN10Item_cache5printEP6String
080eb430 T _ZN18Item_trigger_field5printEP6String
080eb4b0 T _ZN17Item_insert_value5printEP6String
080eb530 T _ZN18Item_default_value5printEP6String
080eb5e0 T _ZN16Item_null_helper5printEP6String
080eb660 T _ZN20Item_ref_null_helper5printEP6String
080eb710 T _ZN15Item_name_const5printEP6String
080eb7d0 T _Z22field_is_equal_to_itemP5FieldP4Item
080ebaa0 T _ZNK12Item_decimal2eqEPK4Itemb
080ebb20 T _ZN4Item15split_sum_func2EP3THDPPS_R4ListIS_ES3_b
080ebcc0 T _ZN18Item_trigger_field11setup_fieldEP3THDP8st_table
080ebd40 T _ZN17Item_insert_value10fix_fieldsEP3THDPP4Item
080ebf40 T _ZN18Item_default_value10fix_fieldsEP3THDPP4Item
080ec0d0 T _ZN11Item_string7val_intEv
080ec1b0 T _ZN11Item_string8val_realEv
080ec280 T _ZN4Item23val_decimal_from_stringEP10my_decimal
080ec360 T _ZN11Item_string11val_decimalEP10my_decimal
080ec370 T _ZN9Item_null13save_in_fieldEP5Fieldb
080ec390 T _ZN10Item_param13save_in_fieldEP5Fieldb
080ec490 T _ZN8Item_ref13save_in_fieldEP5Fieldb
080ec550 T _ZN10Item_field13save_in_fieldEP5Fieldb
080ec5e0 T _ZN18Item_default_value13save_in_fieldEP5Fieldb
080ec6e0 T _ZN10Item_field17save_org_in_fieldEP5Field
080ec770 t _Z31resolve_ref_in_select_and_groupP3THDP10Item_identP13st_select_lex
080ecad0 T _ZNK10Item_field2eqEPK4Itemb
080ecbb0 t _Z17mark_as_dependentP3THDP13st_select_lexS2_P10Item_identS4_
080ecce0 T _ZN8Item_ref10fix_fieldsEP3THDPP4Item
080ed140 T _ZN20Item_direct_view_ref10fix_fieldsEP3THDPP4Item
080ed1a0 T _Z30mark_select_range_as_dependentP3THDP13st_select_lexS2_P5FieldP4ItemP10Item_ident
080ed2c0 T _ZNK15Item_hex_string2eqEPK4Itemb
080ed350 T _ZNK10Item_param2eqEPK4Itemb
080ed460 T _ZNK11Item_string2eqEPK4Itemb
080ed500 T _ZN10Item_float5printEP6String
080ed5b0 T _ZN12Item_decimal5printEP6String
080ed610 T _ZN8Item_int5printEP6String
080ed660 T _ZN10Item_float13save_in_fieldEP5Fieldb
080ed6c0 T _ZN8Item_int13save_in_fieldEP5Fieldb
080ed740 T _ZN9Item_uint13save_in_fieldEP5Fieldb
080ed750 T _ZN11Item_string13save_in_fieldEP5Fieldb
080ed7d0 T _ZN4Item13save_in_fieldEP5Fieldb
080eda30 T _ZN9Item_null18save_safe_in_fieldEP5Field
080eda40 T _ZN16Item_copy_string13save_in_fieldEP5Fieldb
080edab0 T _ZN4Item31tmp_table_field_from_field_typeEP8st_table
080ee240 T _ZN16Item_type_holder18make_field_by_typeEP8st_table
080ee3d0 T _ZN10Item_field15find_item_equalEP10COND_EQUAL
080ee450 T _ZN10Item_field23equal_fields_propagatorEPc
080ee4a0 T _ZN10Item_field10fix_fieldsEP3THDPP4Item
080eecc0 T _ZN10Item_param17convert_str_valueEP3THD
080eedb0 T _ZN10Item_param7val_strEP6String
080eeeb0 T _ZNK10Item_param13query_val_strEP6String
080ef0a0 T _ZN10Item_param5printEP6String
080ef160 T _ZN10Item_param11val_decimalEP10my_decimal
080ef2a0 T _ZN10Item_param7val_intEv
080ef3f0 T _ZN10Item_param8val_realEv
080ef4d0 T _ZN10Item_param12set_longdataEPKcm
080ef520 T _ZN10Item_param7set_strEPKcm
080ef590 T _ZN10Item_param17set_from_user_varEP3THDPK14user_var_entry
080ef760 T _ZN10Item_param22safe_charset_converterEP15charset_info_st
080ef810 T _ZN4Item22safe_charset_converterEP15charset_info_st
080ef960 T _ZN10Item_field22safe_charset_converterEP15charset_info_st
080ef970 T _ZN10Item_param8set_timeEP13st_mysql_time25enum_mysql_timestamp_typej
080efa90 T _ZN10Item_param11set_decimalEPKcm
080efb80 T _ZN11Item_string5printEP6String
080efc60 T _ZN12Item_decimalC1EPKcii
080efd10 T _ZN12Item_decimalC2EPKcii
080efdc0 T _ZN9Item_uint5printEP6String
080efe10 T _ZN9Item_uint7val_strEP6String
080efe50 T _ZN4Item19val_string_from_intEP6String
080efec0 T _ZN8Item_intC1EPKcj
080eff20 T _ZN8Item_intC2EPKcj
080eff80 T _ZN9Item_uintC1EPKcj
080effb0 T _ZN9Item_uintC2EPKcj
080effe0 T _ZN10Item_ident5printEP6String
080f0340 T _ZN8Item_ref5printEP6String
080f0380 T _ZN4Item17print_item_w_nameEP6String
080f0410 T _ZNK10Item_ident9full_nameEv
080f0540 T _ZN10Item_fieldC1EP3THDP23Name_resolution_contextP5Field
080f0620 T _ZN10Item_fieldC2EP3THDP23Name_resolution_contextP5Field
080f0700 T _ZN11DTCollation9aggregateERS_j
080f08e0 T _ZN16Item_type_holder10join_typesEP3THDP4Item
080f0c60 T _Z19agg_item_collationsR11DTCollationPKcPP4Itemjj
080f0ce0 T _Z17agg_item_charsetsR11DTCollationPKcPP4Itemjj
080f0ef0 T _Z34agg_item_collations_for_comparisonR11DTCollationPKcPP4Itemjj
080f0f30 T _ZN14Item_case_expr5printEP6String
080f0f80 T _ZN14Item_case_expr14this_item_addrEP3THDPP4Item
080f0fa0 T _ZNK14Item_case_expr9this_itemEv
080f0fd0 T _ZN14Item_case_expr9this_itemEv
080f1000 T _ZN12Item_splocal5printEP6String
080f1080 T _ZN12Item_splocal14this_item_addrEP3THDPP4Item
080f10a0 T _ZNK12Item_splocal9this_itemEv
080f10d0 T _ZN12Item_splocal9this_itemEv
080f1100 T _ZN12Item_splocalC1ERK13st_lex_stringj16enum_field_typesj
080f1160 T _ZN12Item_splocalC2ERK13st_lex_stringj16enum_field_typesj
080f11c0 T _ZN4Item8get_timeEP13st_mysql_time
080f1280 T _ZN10Item_param8get_timeEP13st_mysql_time
080f1310 T _ZN4Item8get_dateEP13st_mysql_timej
080f13d0 T _ZN10Item_param8get_dateEP13st_mysql_timej
080f1460 T _ZN4Item8set_nameEPKcjP15charset_info_st
080f1550 T _Z18resolve_const_itemP3THDPP4ItemS2_
080f19d0 T _ZN10Item_param8new_itemEv
080f1c20 T _ZN15Item_hex_string22safe_charset_converterEP15charset_info_st
080f1d40 T _ZN10Item_paramC1Ej
080f1ef0 T _ZN10Item_paramC2Ej
080f20a0 T _ZN11Item_string22safe_charset_converterEP15charset_info_st
080f2290 T _ZN8Item_num22safe_charset_converterEP15charset_info_st
080f23b0 T _ZN15Item_name_const10fix_fieldsEP3THDPP4Item
080f2530 T _ZN23Item_static_string_func22safe_charset_converterEP15charset_info_st
080f2730 T _ZN22Item_static_float_func22safe_charset_converterEP15charset_info_st
080f2850 T _ZN20Item_static_int_func22safe_charset_converterEP15charset_info_st
080f2970 T _Z9item_initv
080f2980 T _ZNK26Hybrid_type_traits_decimal3divEP11Hybrid_typey
080f2a70 T _ZNK26Hybrid_type_traits_decimal3addEP11Hybrid_typeP5Field
080f2b60 W _ZN18List_iterator_fastI4ItemE7replaceEPS0_
080f2b70 W _ZN18List_iterator_fastI4ItemE7replaceER4ListIS0_E
080f2b80 W _ZN18List_iterator_fastI4ItemE6removeEv
080f2b90 W _ZN18List_iterator_fastI4ItemE5afterEPS0_
080f2ba0 W _ZN18List_iterator_fastI4ItemE3refEv
080f2bb0 W _ZN18List_iterator_fastI10Item_fieldE7replaceEPS0_
080f2bc0 W _ZN18List_iterator_fastI10Item_fieldE7replaceER4ListIS0_E
080f2bd0 W _ZN18List_iterator_fastI10Item_fieldE6removeEv
080f2be0 W _ZN18List_iterator_fastI10Item_fieldE5afterEPS0_
080f2bf0 W _ZN18List_iterator_fastI10Item_fieldE3refEv
080f2c00 W _ZN4ListI4ItemE15delete_elementsEv
080f2c60 W _ZN4ListIS_I4ItemEEC1Ev
080f2c80 W _ZN4ListIS_I4ItemEEC2Ev
080f2ca0 W _ZN4ListI4ItemEC1Ev
080f2cc0 W _ZN4ListI4ItemEC2Ev
080f2ce0 W _ZN4ListIS_I4ItemEEC1ERKS2_
080f2d00 W _ZN4ListIS_I4ItemEEC2ERKS2_
080f2d20 W _ZN4ListI4ItemEC1ERKS1_
080f2d40 W _ZN4ListI4ItemEC2ERKS1_
080f2d60 W _ZN4ListIS_I4ItemEE6concatEPS2_
080f2d90 W _ZN4ListI4ItemE6concatEPS1_
080f2dc0 W _ZN4ListIS_I4ItemEE3popEv
080f2df0 W _ZN4ListI4ItemE3popEv
080f2e20 W _ZN4ListIS_I4ItemEE7disjoinEPS2_
080f2e60 W _ZN4ListI4ItemE7disjoinEPS1_
080f2ea0 W _ZN4ListIS_I4ItemEE7prepandEPS2_
080f2ed0 W _ZN4ListI4ItemE7prepandEPS1_
080f2f00 W _ZN4ListIS_I4ItemEE4headEv
080f2f10 W _ZN4ListI4ItemE4headEv
080f2f20 W _ZN4ListIS_I4ItemEE8head_refEv
080f2f40 W _ZN4ListI4ItemE8head_refEv
080f2f60 W _ZN18List_iterator_fastI10Item_fieldE7sublistER4ListIS0_Ej
080f2f80 W _ZN18List_iterator_fastI4ItemE7sublistER4ListIS0_Ej
080f2fa0 W _ZN18List_iterator_fastI10Item_fieldEC1Ev
080f2fd0 W _ZN18List_iterator_fastI10Item_fieldEC2Ev
080f3000 W _ZN18List_iterator_fastI4ItemEC1Ev
080f3030 W _ZN18List_iterator_fastI4ItemEC2Ev
080f3060 W _ZN13List_iteratorI4ItemEC1Ev
080f3090 W _ZN13List_iteratorI4ItemEC2Ev
080f30c0 W _ZN18List_iterator_fastI10Item_fieldE4initER4ListIS0_E
080f30e0 W _ZN18List_iterator_fastI4ItemE4initER4ListIS0_E
080f3100 W _ZN13List_iteratorI4ItemE4initER4ListIS0_E
080f3120 W _ZN18List_iterator_fastI4ItemEC1ER4ListIS0_E
080f3140 W _ZN18List_iterator_fastI4ItemEC2ER4ListIS0_E
080f3160 W _ZN13List_iteratorI4ItemEC1ER4ListIS0_E
080f3180 W _ZN13List_iteratorI4ItemEC2ER4ListIS0_E
080f31a0 W _ZN18List_iterator_fastI10Item_fieldEC1ER4ListIS0_E
080f31c0 W _ZN18List_iterator_fastI10Item_fieldEC2ER4ListIS0_E
080f31e0 W _ZN13List_iteratorI4ItemEppEi
080f3200 W _ZN18List_iterator_fastI4ItemEppEi
080f3220 W _ZN18List_iterator_fastI10Item_fieldEppEi
080f3240 W _ZN18List_iterator_fastI4ItemE6rewindEv
080f3250 W _ZN13List_iteratorI4ItemE6rewindEv
080f3260 W _ZN18List_iterator_fastI10Item_fieldE6rewindEv
080f3270 W _ZN13List_iteratorI4ItemE7replaceEPS0_
080f3290 W _ZN13List_iteratorI4ItemE7replaceER4ListIS0_E
080f3310 W _ZN13List_iteratorI4ItemE6removeEv
080f3370 W _ZN13List_iteratorI4ItemE3refEv
080f3380 W _ZN4ListIS_I4ItemEE15delete_elementsEv
080f33b0 W _ZNK18Hybrid_type_traits4typeEv
080f33c0 W _ZNK18Hybrid_type_traits8set_zeroEP11Hybrid_type
080f33d0 W _ZNK18Hybrid_type_traits3addEP11Hybrid_typeP5Field
080f33f0 W _ZNK18Hybrid_type_traits3divEP11Hybrid_typey
080f3440 W _ZNK18Hybrid_type_traits8val_realEP11Hybrid_type
080f3450 W _ZNK26Hybrid_type_traits_decimal4typeEv
080f3460 W _ZNK26Hybrid_type_traits_decimal11val_decimalEP11Hybrid_typeP10my_decimal
080f3480 W _ZNK26Hybrid_type_traits_integer4typeEv
080f3490 W _ZNK26Hybrid_type_traits_integer8set_zeroEP11Hybrid_type
080f34b0 W _ZNK26Hybrid_type_traits_integer3addEP11Hybrid_typeP5Field
080f34d0 W _ZNK26Hybrid_type_traits_integer3divEP11Hybrid_typey
080f3510 W _ZNK26Hybrid_type_traits_integer7val_intEP11Hybrid_typeb
080f3520 W _ZNK26Hybrid_type_traits_integer8val_realEP11Hybrid_type
080f3530 W _ZN4Item17save_org_in_fieldEP5Field
080f3560 W _ZN4Item18save_safe_in_fieldEP5Field
080f3590 W _ZNK4Item11result_typeEv
080f35a0 W _ZNK4Item16cast_to_int_typeEv
080f35c0 W _ZN4Item19get_tmp_table_fieldEv
080f35d0 W _ZN4Item15tmp_table_fieldEP8st_table
080f35e0 W _ZNK4Item9full_nameEv
080f3600 W _ZN4Item10val_resultEv
080f3620 W _ZN4Item14val_int_resultEv
080f3640 W _ZN4Item10str_resultEP6String
080f3660 W _ZN4Item18val_decimal_resultEP10my_decimal
080f3680 W _ZN4Item15val_bool_resultEv
080f36a0 W _ZNK4Item11used_tablesEv
080f36b0 W _ZNK4Item15not_null_tablesEv
080f36d0 W _ZNK4Item16basic_const_itemEv
080f36e0 W _ZN4Item8new_itemEv
080f36f0 W _ZNK4Item13eq_cmp_resultEv
080f3700 W _ZNK4Item10const_itemEv
080f3720 W _ZNK4Item22const_during_executionEv
080f3750 W _ZN4Item18update_used_tablesEv
080f3760 W _ZN4Item14split_sum_funcEP3THDPPS_R4ListIS_E
080f3770 W _ZN4Item15get_date_resultEP13st_mysql_timej
080f37a0 W _ZN4Item7is_nullEv
080f37b0 W _ZN4Item14top_level_itemEv
080f37c0 W _ZN4Item16set_result_fieldEP5Field
080f37d0 W _ZN4Item15is_result_fieldEv
080f37e0 W _ZN4Item12is_bool_funcEv
080f37f0 W _ZN4Item20save_in_result_fieldEb
080f3800 W _ZN4Item17no_rows_in_resultEv
080f3810 W _ZN4Item12copy_or_sameEP3THD
080f3820 W _ZN4Item20copy_andor_structureEP3THD
080f3830 W _ZN4Item9real_itemEv
080f3840 W _ZN4Item18get_tmp_table_itemEP3THD
080f3860 W _ZN4Item17compare_collationEv
080f3870 W _ZN4Item4walkEMS_FbPcES0_
080f38c0 W _ZN4Item9transformEMS_FPS_PcES1_
080f3900 W _ZN4Item13traverse_condEPFvPKS_PvES2_NS_14traverse_orderE
080f3920 W _ZN4Item27remove_dependence_processorEPc
080f3930 W _ZN4Item12remove_fixedEPc
080f3940 W _ZN4Item28collect_item_field_processorEPc
080f3950 W _ZN4Item24change_context_processorEPc
080f3960 W _ZN4Item24reset_query_id_processorEPc
080f3970 W _ZN4Item23equal_fields_propagatorEPc
080f3980 W _ZN4Item16set_no_const_subEPc
080f3990 W _ZN4Item19replace_equal_fieldEPc
080f39a0 W _ZN4Item9this_itemEv
080f39b0 W _ZNK4Item9this_itemEv
080f39c0 W _ZN4Item14this_item_addrEP3THDPPS_
080f39d0 W _ZN4Item4colsEv
080f39e0 W _ZN4Item2elEj
080f39f0 W _ZN4Item4addrEj
080f3a00 W _ZN4Item11null_insideEv
080f3a10 W _ZN4Item11bring_valueEv
080f3a20 W _ZN4Item21filed_for_view_updateEv
080f3a30 W _ZN4Item15neg_transformerEP3THD
080f3a40 W _ZN4Item10is_splocalEv
080f3a50 W _ZNK16Item_sp_variable10const_itemEv
080f3a60 W _ZN16Item_sp_variable13save_in_fieldEP5Fieldb
080f3aa0 W _ZN16Item_sp_variable4sendEP8ProtocolP6String
080f3ad0 W _ZN12Item_splocal10is_splocalEv
080f3ae0 W _ZNK12Item_splocal4typeEv
080f3af0 W _ZNK12Item_splocal11result_typeEv
080f3b00 W _ZNK14Item_case_expr4typeEv
080f3b20 W _ZNK14Item_case_expr11result_typeEv
080f3b40 W _ZNK15Item_name_const11result_typeEv
080f3b60 W _ZNK15Item_name_const10const_itemEv
080f3b70 W _ZN15Item_name_const13save_in_fieldEP5Fieldb
080f3ba0 W _ZN15Item_name_const4sendEP8ProtocolP6String
080f3bd0 W _ZN10Item_ident24change_context_processorEPc
080f3be0 W _ZNK10Item_field4typeEv
080f3bf0 W _ZNK10Item_field11result_typeEv
080f3c10 W _ZNK10Item_field16cast_to_int_typeEv
080f3c30 W _ZNK10Item_field10field_typeEv
080f3c50 W _ZN10Item_field19get_tmp_table_fieldEv
080f3c60 W _ZN10Item_field15tmp_table_fieldEP8st_table
080f3c70 W _ZN10Item_field7is_nullEv
080f3cb0 W _ZN10Item_field24reset_query_id_processorEPc
080f3cf0 W _ZN10Item_field21filed_for_view_updateEv
080f3d00 W _ZNK9Item_null4typeEv
080f3d10 W _ZNK9Item_null11result_typeEv
080f3d20 W _ZNK9Item_null10field_typeEv
080f3d30 W _ZN9Item_null7cleanupEv
080f3d40 W _ZNK9Item_null16basic_const_itemEv
080f3d50 W _ZN9Item_null7is_nullEv
080f3d60 W _ZNK10Item_param11result_typeEv
080f3d70 W _ZNK10Item_param4typeEv
080f3d80 W _ZNK10Item_param10field_typeEv
080f3d90 W _ZNK10Item_param11used_tablesEv
080f3dc0 W _ZN10Item_param7is_nullEv
080f3de0 W _ZNK8Item_int4typeEv
080f3df0 W _ZNK8Item_int11result_typeEv
080f3e00 W _ZNK8Item_int10field_typeEv
080f3e10 W _ZN8Item_int7val_intEv
080f3e20 W _ZN8Item_int8val_realEv
080f3e30 W _ZNK8Item_int16basic_const_itemEv
080f3e40 W _ZN8Item_int7cleanupEv
080f3e50 W _ZN8Item_int3negEv
080f3e70 W _ZNK8Item_int17decimal_precisionEv
080f3e90 W _ZN9Item_uint8val_realEv
080f3ed0 W _ZNK9Item_uint17decimal_precisionEv
080f3ee0 W _ZNK12Item_decimal4typeEv
080f3ef0 W _ZNK12Item_decimal11result_typeEv
080f3f00 W _ZNK12Item_decimal10field_typeEv
080f3f10 W _ZN12Item_decimal11val_decimalEP10my_decimal
080f3f20 W _ZNK12Item_decimal16basic_const_itemEv
080f3f30 W _ZN12Item_decimal7cleanupEv
080f3f40 W _ZNK12Item_decimal17decimal_precisionEv
080f3f50 W _ZNK10Item_float4typeEv
080f3f60 W _ZNK10Item_float10field_typeEv
080f3f70 W _ZN10Item_float8val_realEv
080f3f80 W _ZNK10Item_float16basic_const_itemEv
080f3f90 W _ZN10Item_float7cleanupEv
080f3fa0 W _ZN10Item_float3negEv
080f3fb0 W _ZNK11Item_string4typeEv
080f3fc0 W _ZN11Item_string7val_strEP6String
080f3fd0 W _ZNK11Item_string11result_typeEv
080f3fe0 W _ZNK11Item_string10field_typeEv
080f3ff0 W _ZNK11Item_string16basic_const_itemEv
080f4000 W _ZN11Item_string7cleanupEv
080f4010 W _ZNK15Item_hex_string4typeEv
080f4020 W _ZNK15Item_hex_string16basic_const_itemEv
080f4030 W _ZN15Item_hex_string7val_strEP6String
080f4040 W _ZNK15Item_hex_string11result_typeEv
080f4050 W _ZNK15Item_hex_string16cast_to_int_typeEv
080f4060 W _ZNK15Item_hex_string10field_typeEv
080f4070 W _ZN15Item_hex_string7cleanupEv
080f4080 W _ZN17Item_result_field19get_tmp_table_fieldEv
080f4090 W _ZN17Item_result_field15tmp_table_fieldEP8st_table
080f40a0 W _ZNK17Item_result_field11used_tablesEv
080f40b0 W _ZN17Item_result_field16set_result_fieldEP5Field
080f40c0 W _ZN17Item_result_field15is_result_fieldEv
080f40d0 W _ZN17Item_result_field20save_in_result_fieldEb
080f4100 W _ZNK8Item_ref4typeEv
080f4110 W _ZNK8Item_ref2eqEPK4Itemb
080f4180 W _ZN8Item_ref17save_org_in_fieldEP5Field
080f41c0 W _ZNK8Item_ref11result_typeEv
080f41e0 W _ZNK8Item_ref10field_typeEv
080f4200 W _ZN8Item_ref19get_tmp_table_fieldEv
080f4230 W _ZNK8Item_ref11used_tablesEv
080f4260 W _ZNK8Item_ref15not_null_tablesEv
080f4280 W _ZN8Item_ref16set_result_fieldEP5Field
080f4290 W _ZN8Item_ref15is_result_fieldEv
080f42a0 W _ZN8Item_ref20save_in_result_fieldEb
080f42d0 W _ZN8Item_ref9real_itemEv
080f4300 W _ZN8Item_ref4walkEM4ItemFbPcES1_
080f4340 W _ZN8Item_ref21filed_for_view_updateEv
080f4360 W _ZN8Item_ref8ref_typeEv
080f4370 W _ZN15Item_direct_ref8ref_typeEv
080f4380 W _ZN20Item_direct_view_ref8ref_typeEv
080f4390 W _ZNK20Item_ref_null_helper11used_tablesEv
080f43d0 W _ZN17Item_int_with_ref13save_in_fieldEP5Fieldb
080f4400 W _ZN17Item_int_with_ref9real_itemEv
080f4410 W _ZNK16Item_copy_string4typeEv
080f4420 W _ZNK16Item_copy_string11result_typeEv
080f4430 W _ZNK16Item_copy_string10field_typeEv
080f4440 W _ZN16Item_copy_string8val_realEv
080f4490 W _ZN16Item_copy_string7val_intEv
080f44f0 W _ZN16Item_copy_string10make_fieldEP10Send_field
080f4510 W _ZNK16Item_copy_string11used_tablesEv
080f4520 W _ZNK16Item_copy_string10const_itemEv
080f4530 W _ZN16Item_copy_string7is_nullEv
080f4550 W _ZNK18Item_default_value4typeEv
080f4560 W _ZNK18Item_default_value11used_tablesEv
080f4570 W _ZN18Item_default_value4walkEM4ItemFbPcES1_
080f4600 W _ZN18Item_default_value9transformEM4ItemFPS0_PcES2_
080f4680 W _ZNK17Item_insert_value11used_tablesEv
080f4690 W _ZN17Item_insert_value4walkEM4ItemFbPcES1_
080f4720 W _ZNK18Item_trigger_field4typeEv
080f4730 W _ZNK18Item_trigger_field11used_tablesEv
080f4740 W _ZN10Item_cache8allocateEj
080f4750 W _ZN10Item_cache5setupEP4Item
080f4780 W _ZNK10Item_cache4typeEv
080f4790 W _ZNK10Item_cache11used_tablesEv
080f47a0 W _ZN10Item_cache10keep_arrayEv
080f47b0 W _ZN10Item_cache7cleanupEv
080f47c0 W _ZN14Item_cache_int8val_realEv
080f47d0 W _ZN14Item_cache_int7val_intEv
080f47e0 W _ZNK14Item_cache_int11result_typeEv
080f47f0 W _ZN15Item_cache_real8val_realEv
080f4800 W _ZNK15Item_cache_real11result_typeEv
080f4810 W _ZNK18Item_cache_decimal11result_typeEv
080f4820 W _ZN14Item_cache_str7val_strEP6String
080f4830 W _ZNK14Item_cache_str11result_typeEv
080f4840 W _ZNK14Item_cache_row11result_typeEv
080f4850 W _ZN14Item_cache_row4colsEv
080f4860 W _ZN14Item_cache_row2elEj
080f4880 W _ZN14Item_cache_row4addrEj
080f48a0 W _ZN14Item_cache_row10keep_arrayEv
080f48b0 W _ZNK16Item_type_holder10field_typeEv
080f48c0 W _ZNK16Item_type_holder4typeEv
080f48d0 W _ZN15Item_hex_string8val_realEv
080f48f0 W _ZN17Item_result_fieldD0Ev
080f4950 W _ZN17Item_result_fieldD1Ev
080f49b0 W _ZN16Item_type_holderD0Ev
080f4a10 W _ZN16Item_type_holderD1Ev
080f4a70 W _ZN14Item_cache_rowD0Ev
080f4ad0 W _ZN14Item_cache_rowD1Ev
080f4b30 W _ZN18Item_cache_decimalD0Ev
080f4b90 W _ZN18Item_cache_decimalD1Ev
080f4bf0 W _ZN15Item_cache_realD0Ev
080f4c50 W _ZN15Item_cache_realD1Ev
080f4cb0 W _ZN14Item_cache_intD0Ev
080f4d10 W _ZN14Item_cache_intD1Ev
080f4d70 W _ZN10Item_cacheD0Ev
080f4dd0 W _ZN10Item_cacheD1Ev
080f4e30 W _ZN18Item_trigger_fieldD0Ev
080f4e90 W _ZN18Item_trigger_fieldD1Ev
080f4ef0 W _ZN17Item_insert_valueD0Ev
080f4f50 W _ZN17Item_insert_valueD1Ev
080f4fb0 W _ZN18Item_default_valueD0Ev
080f5010 W _ZN18Item_default_valueD1Ev
080f5070 W _ZN16Item_null_helperD0Ev
080f50d0 W _ZN16Item_null_helperD1Ev
080f5130 W _ZN20Item_direct_view_refD0Ev
080f5190 W _ZN20Item_direct_view_refD1Ev
080f51f0 W _ZN15Item_direct_refD0Ev
080f5250 W _ZN15Item_direct_refD1Ev
080f52b0 W _ZN20Item_ref_null_helperD0Ev
080f5310 W _ZN20Item_ref_null_helperD1Ev
080f5370 W _ZN8Item_refD0Ev
080f53d0 W _ZN8Item_refD1Ev
080f5430 W _ZN10Item_fieldD0Ev
080f5490 W _ZN10Item_fieldD1Ev
080f54f0 W _ZN15Item_hex_stringD0Ev
080f5550 W _ZN15Item_hex_stringD1Ev
080f55b0 W _ZN10Item_floatD0Ev
080f5610 W _ZN10Item_floatD1Ev
080f5670 W _ZN17Item_int_with_refD0Ev
080f56d0 W _ZN17Item_int_with_refD1Ev
080f5730 W _ZN9Item_uintD0Ev
080f5790 W _ZN9Item_uintD1Ev
080f57f0 W _ZN20Item_static_int_funcD0Ev
080f5850 W _ZN20Item_static_int_funcD1Ev
080f58b0 W _ZN12Item_decimalD0Ev
080f5910 W _ZN12Item_decimalD1Ev
080f5970 W _ZN8Item_intD0Ev
080f59d0 W _ZN8Item_intD1Ev
080f5a30 W _ZN22Item_static_float_funcD0Ev
080f5a90 W _ZN22Item_static_float_funcD1Ev
080f5af0 W _ZN17Item_empty_stringD0Ev
080f5b50 W _ZN17Item_empty_stringD1Ev
080f5bb0 W _ZN23Item_static_string_funcD0Ev
080f5c10 W _ZN23Item_static_string_funcD1Ev
080f5c70 W _ZN16Item_copy_stringD0Ev
080f5cd0 W _ZN16Item_copy_stringD1Ev
080f5d30 W _ZN9Item_nullD0Ev
080f5d90 W _ZN9Item_nullD1Ev
080f5df0 W _ZN11Item_stringD0Ev
080f5e50 W _ZN11Item_stringD1Ev
080f5eb0 W _ZN10Item_identD0Ev
080f5f10 W _ZN10Item_identD1Ev
080f5f70 W _ZN15Item_name_constD0Ev
080f5fd0 W _ZN15Item_name_constD1Ev
080f6030 W _ZN8Item_numD0Ev
080f6090 W _ZN8Item_numD1Ev
080f60f0 W _ZN15Item_bin_stringD0Ev
080f6150 W _ZN15Item_bin_stringD1Ev
080f61b0 W _ZN14Item_cache_strD0Ev
080f6260 W _ZN14Item_cache_strD1Ev
080f6310 W _ZN10Item_paramD0Ev
080f6410 W _ZN10Item_paramD1Ev
080f6510 W _ZN14Item_case_exprD0Ev
080f65b0 W _ZN14Item_case_exprD1Ev
080f6650 W _ZN12Item_splocalD0Ev
080f66f0 W _ZN12Item_splocalD1Ev
080f6790 W _ZN16Item_sp_variableD0Ev
080f6830 W _ZN16Item_sp_variableD1Ev
080f68d0 W _ZN4ItemD0Ev
080f6930 W _ZN4ItemD1Ev
080f6990 W _ZN14Item_cache_row7cleanupEv
080f69e0 W _ZN4ListIS_I4ItemEE9push_backEPS1_
080f6a30 W _ZN4ListI4ItemE9push_backEPS0_
080f6a80 W _ZN4ListIS_I4ItemEE10push_frontEPS1_
080f6ad0 W _ZN4ListI4ItemE10push_frontEPS0_
080f6b20 W _ZN13List_iteratorI4ItemE5afterEPS0_
080f6b90 W _ZN9Item_null5printEP6String
080f6bc0 W _ZN12Item_decimal3negEv
080f6c10 W _ZN23Item_static_string_func5printEP6String
080f6c30 W _ZN22Item_static_float_func5printEP6String
080f6c50 W _ZN20Item_static_int_func5printEP6String
080f6c70 W _ZN4Item5printEP6String
080f6ca0 W _ZN10Item_float7val_intEv
080f6d10 W _ZNK18Hybrid_type_traits7val_intEP11Hybrid_typeb
080f6d50 W _ZNK26Hybrid_type_traits_integer7val_strEP11Hybrid_typeP6Stringh
080f6d90 W _ZNK26Hybrid_type_traits_integer11val_decimalEP11Hybrid_typeP10my_decimal
080f6de0 W _ZN14Item_cache_row11val_decimalEP10my_decimal
080f6e00 W _ZN14Item_cache_row7val_strEP6String
080f6e20 W _ZN14Item_cache_row7val_intEv
080f6e40 W _ZN14Item_cache_row8val_realEv
080f6e60 W _ZN14Item_cache_row10make_fieldEP10Send_field
080f6e70 W _ZN9Item_null8new_itemEv
080f6f00 W _ZN10Item_float8new_itemEv
080f6f70 W _ZN8Item_int8new_itemEv
080f6fe0 W _ZN12Item_decimal8new_itemEv
080f7030 W _ZN8Item_ref18get_tmp_table_itemEP3THD
080f70a0 W _ZN4ListIS_I4ItemEE9push_backEPS1_P11st_mem_root
080f70f0 W _ZN4ListI4ItemE9push_backEPS0_P11st_mem_root
080f7140 W _ZN17Item_insert_value13save_in_fieldEP5Fieldb
080f7150 W _ZN9Item_uint8new_itemEv
080f7190 W _ZN16Item_sp_variable10make_fieldEP10Send_field
080f7230 W _ZN11Item_string8new_itemEv
080f72e0 T _ZN8Item_sum17register_sum_funcEP3THDPP4Item
080f73f0 T _ZN8Item_sum22fix_num_length_and_decEv
080f7450 T _ZN8Item_sum4walkEM4ItemFbPcES1_
080f74f0 T _ZN12Item_sum_sum5clearEv
080f7530 T _ZN12Item_sum_sum18fix_length_and_decEv
080f75f0 t item_sum_distinct_walk
080f7610 T _ZN31Hybrid_type_traits_fast_decimal8instanceEv
080f7620 T _ZN17Item_sum_distinct8val_realEv
080f7660 T _ZN17Item_sum_distinct11val_decimalEP10my_decimal
080f76b0 T _ZN17Item_sum_distinct7val_intEv
080f7700 T _ZN17Item_sum_distinct7val_strEP6String
080f7750 T _ZN14Item_sum_count5clearEv
080f7770 T _ZN14Item_sum_count3addEv
080f77b0 T _ZN14Item_sum_count7val_intEv
080f77c0 T _ZN12Item_sum_avg5clearEv
080f77f0 T _ZN17Item_sum_variance5clearEv
080f7880 T _ZN15Item_sum_hybrid5clearEv
080f7900 T _ZN15Item_sum_hybrid17no_rows_in_resultEv
080f7920 T _ZN12Item_sum_bit7val_intEv
080f7930 T _ZN12Item_sum_bit5clearEv
080f7950 T _ZN11Item_sum_or3addEv
080f79a0 T _ZN12Item_sum_xor3addEv
080f79f0 T _ZN12Item_sum_and3addEv
080f7a40 T _ZN12Item_sum_num11reset_fieldEv
080f7ad0 T _ZN12Item_sum_sum11reset_fieldEv
080f7b80 T _ZN14Item_sum_count11reset_fieldEv
080f7bf0 T _ZN12Item_sum_bit11reset_fieldEv
080f7c30 T _ZN12Item_sum_bit12update_fieldEv
080f7c70 T _ZN14Item_sum_count12update_fieldEv
080f7cf0 T _ZN15Item_sum_hybrid25min_max_update_real_fieldEv
080f7df0 T _ZN15Item_sum_hybrid24min_max_update_int_fieldEv
080f7f70 T _Z18simple_str_key_cmpPvPcS0_
080f7fa0 T _Z17composite_key_cmpPvPcS0_
080f8010 t count_distinct_walk
080f8030 T _ZN23Item_sum_count_distinct11make_uniqueEv
080f8060 T _ZN12Item_udf_sum5clearEv
080f80a0 T _ZN16Item_sum_udf_str18fix_length_and_decEv
080f80e0 T _ZN22Item_func_group_concat11make_uniqueEv
080f8110 t _GLOBAL__I__ZN8Item_sum19init_sum_func_checkEP3THD
080f8120 T _ZN16Item_sum_udf_str11val_decimalEP10my_decimal
080f8130 T _ZN15Item_sum_hybrid11reset_fieldEv
080f8400 T _ZN14Item_avg_field7val_intEv
080f8440 T _ZN12Item_udf_sum5printEP6String
080f8530 T _ZN8Item_sum5printEP6String
080f85f0 T _ZN8Item_sum18get_tmp_table_itemEP3THD
080f86b0 T _ZN22Item_func_group_concat5printEP6String
080f88a0 T _ZN22Item_func_group_concat7val_strEP6String
080f8950 T _ZN22Item_func_group_concat5setupEP3THD
080f8cb0 T _ZN22Item_func_group_concat5clearEv
080f8d00 T _ZN15Item_sum_hybrid7cleanupEv
080f8d40 T _ZN14Item_sum_count7cleanupEv
080f8d70 T _ZN22Item_func_group_concat7cleanupEv
080f8f30 T _ZN8Item_sum16mark_as_sum_funcEv
080f8f60 T _ZN22Item_func_group_concatC1EP23Name_resolution_contextbP4ListI4ItemEP11st_sql_listP6String
080f90e0 T _ZN22Item_func_group_concatC2EP23Name_resolution_contextbP4ListI4ItemEP11st_sql_listP6String
080f9260 T _ZN19Item_variance_fieldC1EP17Item_sum_variance
080f9310 T _ZN19Item_variance_fieldC2EP17Item_sum_variance
080f93c0 T _ZN14Item_std_fieldC1EP12Item_sum_std
080f93f0 T _ZN14Item_std_fieldC2EP12Item_sum_std
080f9420 T _ZN14Item_avg_fieldC1E11Item_resultP12Item_sum_avg
080f94c0 T _ZN14Item_avg_fieldC2E11Item_resultP12Item_sum_avg
080f9560 T _ZN17Item_sum_distinctC1EP4Item
080f95e0 T _ZN17Item_sum_distinctC2EP4Item
080f9660 T _ZN8Item_sumC1ER4ListI4ItemE
080f9710 T _ZN8Item_sumC2ER4ListI4ItemE
080f97c0 T _Z13dump_leaf_keyPcjP22Item_func_group_concat
080f99e0 T _ZN22Item_func_group_concat3addEv
080f9b50 T _Z31group_concat_key_cmp_with_orderPvPcS0_
080f9c00 T _Z34group_concat_key_cmp_with_distinctPvPcS0_
080f9ca0 T _Z44group_concat_key_cmp_with_distinct_and_orderPvPcS0_
080f9d00 T _ZN16Item_sum_udf_str7val_strEP6String
080f9d30 T _ZN16Item_sum_udf_int11val_decimalEP10my_decimal
080f9d40 T _ZN12Item_sum_int11val_decimalEP10my_decimal
080f9d50 T _ZN16Item_sum_udf_int7val_strEP6String
080f9d60 T _ZN12Item_sum_int7val_strEP6String
080f9d70 T _ZN16Item_sum_udf_int7val_intEv
080f9df0 T _ZN18Item_sum_udf_float8val_realEv
080f9e70 T _ZN12Item_udf_sum3addEv
080f9ef0 T _ZN20Item_sum_udf_decimal11val_decimalEP10my_decimal
080f9f20 T _ZN20Item_sum_udf_decimal7val_intEv
080f9f30 T _ZN20Item_sum_udf_decimal8val_realEv
080f9f40 T _ZN19Item_variance_field8val_realEv
080fa020 T _ZN14Item_avg_field8val_realEv
080fa080 T _ZN17Item_sum_variance8val_realEv
080fa140 T _ZN20Item_sum_udf_decimal7val_strEP6String
080fa150 T _ZN18Item_sum_udf_float11val_decimalEP10my_decimal
080fa160 T _ZN12Item_sum_sum11val_decimalEP10my_decimal
080fa190 T _ZN12Item_sum_num11val_decimalEP10my_decimal
080fa1a0 T _ZN18Item_sum_udf_float7val_strEP6String
080fa1b0 T _ZN19Item_variance_field7val_strEP6String
080fa1e0 T _ZN14Item_avg_field7val_strEP6String
080fa210 T _ZN12Item_sum_avg7val_strEP6String
080fa240 T _ZN12Item_sum_sum7val_strEP6String
080fa270 T _ZN12Item_sum_num7val_strEP6String
080fa280 T _ZN12Item_udf_sum7cleanupEv
080fa2a0 T _ZN23Item_sum_count_distinct7val_intEv
080fa340 T _ZN17Item_sum_distinct23calculate_val_and_countEv
080fa3c0 T _ZN21Item_sum_avg_distinct23calculate_val_and_countEv
080fa420 T _ZN23Item_sum_count_distinct3addEv
080fa540 T _ZN17Item_sum_distinct3addEv
080fa610 T _ZN23Item_sum_count_distinct5clearEv
080fa690 T _ZN17Item_sum_distinct5clearEv
080fa6b0 T _ZN23Item_sum_count_distinct5setupEP3THD
080faa40 t simple_raw_key_cmp
080faa80 T _ZN23Item_sum_count_distinct7cleanupEv
080fab80 T _ZN23Item_sum_count_distinctD0Ev
080fabf0 T _ZN23Item_sum_count_distinctD1Ev
080fac60 T _ZN23Item_sum_count_distinctD2Ev
080facd0 T _ZN17Item_sum_distinctD0Ev
080fad50 T _ZN17Item_sum_distinctD1Ev
080fadd0 T _ZN17Item_sum_distinctD2Ev
080fae50 T _ZN17Item_sum_distinct7cleanupEv
080faea0 T _ZN19Item_variance_field11val_decimalEP10my_decimal
080fb280 T _ZN14Item_avg_field11val_decimalEP10my_decimal
080fb400 T _ZN17Item_sum_variance11val_decimalEP10my_decimal
080fb770 T _ZN12Item_sum_avg11val_decimalEP10my_decimal
080fb8a0 T _ZN12Item_sum_std8val_realEv
080fb8e0 T _ZN14Item_std_field8val_realEv
080fb970 T _ZN15Item_sum_hybrid8val_realEv
080fba60 T _ZN12Item_sum_sum8val_realEv
080fbab0 T _ZN12Item_sum_avg8val_realEv
080fbb20 T _ZN14Item_std_field11val_decimalEP10my_decimal
080fbc70 T _ZN15Item_sum_hybrid28min_max_update_decimal_fieldEv
080fbdd0 T _ZN15Item_sum_hybrid24min_max_update_str_fieldEv
080fbee0 T _ZN15Item_sum_hybrid12update_fieldEv
080fbf30 T _ZN12Item_sum_avg12update_fieldEv
080fc120 T _ZN12Item_sum_sum12update_fieldEv
080fc2f0 T _ZN17Item_sum_variance12update_fieldEv
080fc670 T _ZN17Item_sum_variance3addEv
080fc900 T _ZN12Item_sum_sum3addEv
080fca10 T _ZN12Item_sum_avg3addEv
080fca50 T _ZN12Item_sum_avg11reset_fieldEv
080fcb50 T _ZN17Item_sum_variance11reset_fieldEv
080fcd30 T _ZN12Item_sum_max3addEv
080fcf10 T _ZN12Item_sum_min3addEv
080fd0f0 T _ZN15Item_sum_hybrid7val_strEP6String
080fd1e0 T _ZN15Item_sum_hybrid11val_decimalEP10my_decimal
080fd2f0 T _ZN15Item_sum_hybrid7val_intEv
080fd3f0 T _ZN12Item_sum_sum7val_intEv
080fd4d0 T _ZN17Item_sum_variance16create_tmp_fieldEbP8st_tablej
080fd660 T _ZN12Item_sum_avg16create_tmp_fieldEbP8st_tablej
080fd7f0 T _ZN17Item_sum_variance18fix_length_and_decEv
080fda10 T _ZN12Item_sum_avg18fix_length_and_decEv
080fdb10 T _ZN17Item_sum_distinct20unique_walk_functionEPv
080fdb80 T _ZN17Item_sum_distinct5setupEP3THD
080fdce0 T _ZN17Item_sum_distinct18fix_length_and_decEv
080fddc0 T _ZN21Item_sum_avg_distinct18fix_length_and_decEv
080fde10 T _ZN8Item_sum16create_tmp_fieldEbP8st_tablej
080fe060 T _ZN15Item_sum_hybrid16create_tmp_fieldEbP8st_tablej
080fe280 T _ZN8Item_sum10make_fieldEP10Send_field
080fe320 T _ZN8Item_sumC1EP3THDPS_
080fe3e0 T _ZN8Item_sumC2EP3THDPS_
080fe4a0 T _ZN22Item_func_group_concatC1EP3THDPS_
080fe5a0 T _ZN22Item_func_group_concat12copy_or_sameEP3THD
080fe5f0 T _ZN22Item_func_group_concatC2EP3THDPS_
080fe6f0 T _ZN16Item_sum_udf_str12copy_or_sameEP3THD
080fe770 T _ZN16Item_sum_udf_int12copy_or_sameEP3THD
080fe7f0 T _ZN20Item_sum_udf_decimal12copy_or_sameEP3THD
080fe870 T _ZN18Item_sum_udf_float12copy_or_sameEP3THD
080fe8f0 T _ZN23Item_sum_count_distinct12copy_or_sameEP3THD
080fe970 T _ZN12Item_sum_and12copy_or_sameEP3THD
080fe9e0 T _ZN12Item_sum_xor12copy_or_sameEP3THD
080fea50 T _ZN11Item_sum_or12copy_or_sameEP3THD
080feac0 T _ZN14Item_sum_count12copy_or_sameEP3THD
080feb30 T _ZN17Item_sum_varianceC1EP3THDPS_
080fec60 T _ZN17Item_sum_variance12copy_or_sameEP3THD
080fecb0 T _ZN17Item_sum_varianceC2EP3THDPS_
080fede0 T _ZN12Item_sum_std12copy_or_sameEP3THD
080fee30 T _ZN17Item_sum_distinctC1EP3THDPS_
080feed0 T _ZN17Item_sum_distinctC2EP3THDPS_
080fef70 T _ZN12Item_sum_sumC1EP3THDPS_
080ff040 T _ZN12Item_sum_sum12copy_or_sameEP3THD
080ff090 T _ZN12Item_sum_sumC2EP3THDPS_
080ff160 T _ZN12Item_sum_avg12copy_or_sameEP3THD
080ff1e0 T _ZN15Item_sum_hybridC1EP3THDPS_
080ff370 T _ZN15Item_sum_hybridC2EP3THDPS_
080ff500 T _ZN12Item_sum_max12copy_or_sameEP3THD
080ff550 T _ZN12Item_sum_min12copy_or_sameEP3THD
080ff5a0 T _ZN8Item_sum14check_sum_funcEP3THDPP4Item
080ff6e0 T _ZN8Item_sum19init_sum_func_checkEP3THD
080ff760 T _ZN22Item_func_group_concat10fix_fieldsEP3THDPP4Item
080ff8a0 T _ZN15Item_sum_hybrid10fix_fieldsEP3THDPP4Item
080ffa40 T _ZN12Item_sum_num10fix_fieldsEP3THDPP4Item
080ffb70 W _ZNK8Item_sum4typeEv
080ffb80 W _ZNK8Item_sum15keep_field_typeEv
080ffb90 W _ZN8Item_sum18fix_length_and_decEv
080ffba0 W _ZNK8Item_sum11used_tablesEv
080ffbb0 W _ZNK8Item_sum10const_itemEv
080ffbc0 W _ZN8Item_sum7is_nullEv
080ffbe0 W _ZN8Item_sum18update_used_tablesEv
080ffbf0 W _ZN8Item_sum17no_rows_in_resultEv
080ffc20 W _ZN8Item_sum5setupEP3THD
080ffc30 W _ZN8Item_sum11make_uniqueEv
080ffc40 W _ZN12Item_sum_int8val_realEv
080ffc60 W _ZNK12Item_sum_int11result_typeEv
080ffc70 W _ZN12Item_sum_int18fix_length_and_decEv
080ffc90 W _ZNK12Item_sum_sum8sum_funcEv
080ffca0 W _ZNK12Item_sum_sum11result_typeEv
080ffcb0 W _ZN12Item_sum_sum17no_rows_in_resultEv
080ffcc0 W _ZNK12Item_sum_sum9func_nameEv
080ffcd0 W _ZNK17Item_sum_distinct8sum_funcEv
080ffce0 W _ZN17Item_sum_distinct11reset_fieldEv
080ffcf0 W _ZN17Item_sum_distinct12update_fieldEv
080ffd00 W _ZN17Item_sum_distinct17no_rows_in_resultEv
080ffd10 W _ZNK17Item_sum_distinct11result_typeEv
080ffd30 W _ZNK21Item_sum_avg_distinct8sum_funcEv
080ffd40 W _ZNK21Item_sum_avg_distinct9func_nameEv
080ffd50 W _ZNK14Item_sum_count11used_tablesEv
080ffd60 W _ZNK14Item_sum_count10const_itemEv
080ffd80 W _ZNK14Item_sum_count8sum_funcEv
080ffd90 W _ZN14Item_sum_count17no_rows_in_resultEv
080ffdb0 W _ZNK14Item_sum_count9func_nameEv
080ffdc0 W _ZNK23Item_sum_count_distinct8sum_funcEv
080ffdd0 W _ZN23Item_sum_count_distinct11reset_fieldEv
080ffde0 W _ZN23Item_sum_count_distinct12update_fieldEv
080ffdf0 W _ZNK23Item_sum_count_distinct9func_nameEv
080ffe00 W _ZN23Item_sum_count_distinct17no_rows_in_resultEv
080ffe10 W _ZNK14Item_avg_field4typeEv
080ffe20 W _ZN14Item_avg_field7is_nullEv
080ffe40 W _ZNK14Item_avg_field10field_typeEv
080ffe60 W _ZN14Item_avg_field18fix_length_and_decEv
080ffe70 W _ZNK14Item_avg_field11result_typeEv
080ffe80 W _ZNK12Item_sum_avg8sum_funcEv
080ffe90 W _ZN12Item_sum_avg17no_rows_in_resultEv
080ffea0 W _ZNK12Item_sum_avg9func_nameEv
080ffeb0 W _ZNK19Item_variance_field4typeEv
080ffec0 W _ZN19Item_variance_field7is_nullEv
080ffee0 W _ZNK19Item_variance_field10field_typeEv
080fff00 W _ZN19Item_variance_field18fix_length_and_decEv
080fff10 W _ZNK19Item_variance_field11result_typeEv
080fff20 W _ZNK17Item_sum_variance8sum_funcEv
080fff30 W _ZN17Item_sum_variance17no_rows_in_resultEv
080fff40 W _ZNK17Item_sum_variance9func_nameEv
080fff60 W _ZNK17Item_sum_variance11result_typeEv
080fff70 W _ZNK14Item_std_field4typeEv
080fff80 W _ZNK14Item_std_field11result_typeEv
080fff90 W _ZNK14Item_std_field10field_typeEv
080fffa0 W _ZNK12Item_sum_std8sum_funcEv
080fffb0 W _ZNK12Item_sum_std9func_nameEv
080fffc0 W _ZNK12Item_sum_std11result_typeEv
080fffd0 W _ZNK12Item_sum_std10field_typeEv
080fffe0 W _ZNK15Item_sum_hybrid11used_tablesEv
08100000 W _ZNK15Item_sum_hybrid10const_itemEv
08100020 W _ZNK15Item_sum_hybrid15keep_field_typeEv
08100030 W _ZNK15Item_sum_hybrid11result_typeEv
08100040 W _ZNK15Item_sum_hybrid10field_typeEv
08100050 W _ZNK12Item_sum_min8sum_funcEv
08100060 W _ZNK12Item_sum_min9func_nameEv
08100070 W _ZNK12Item_sum_max8sum_funcEv
08100080 W _ZNK12Item_sum_max9func_nameEv
08100090 W _ZNK12Item_sum_bit8sum_funcEv
081000a0 W _ZN12Item_sum_bit18fix_length_and_decEv
081000c0 W _ZNK11Item_sum_or9func_nameEv
081000d0 W _ZNK12Item_sum_and9func_nameEv
081000e0 W _ZNK12Item_sum_xor9func_nameEv
081000f0 W _ZNK12Item_udf_sum9func_nameEv
08100110 W _ZNK12Item_udf_sum8sum_funcEv
08100120 W _ZNK12Item_udf_sum17have_field_updateEv
08100130 W _ZN12Item_udf_sum11reset_fieldEv
08100140 W _ZN12Item_udf_sum12update_fieldEv
08100150 W _ZNK16Item_sum_udf_int11result_typeEv
08100160 W _ZN16Item_sum_udf_int18fix_length_and_decEv
08100180 W _ZN16Item_sum_udf_str8val_realEv
081001d0 W _ZN16Item_sum_udf_str7val_intEv
08100230 W _ZNK16Item_sum_udf_str11result_typeEv
08100240 W _ZNK20Item_sum_udf_decimal11result_typeEv
08100250 W _ZNK22Item_func_group_concat8sum_funcEv
08100260 W _ZNK22Item_func_group_concat9func_nameEv
08100270 W _ZNK22Item_func_group_concat11result_typeEv
08100280 W _ZN22Item_func_group_concat11reset_fieldEv
08100290 W _ZN22Item_func_group_concat12update_fieldEv
081002a0 W _ZN22Item_func_group_concat17no_rows_in_resultEv
081002b0 W _ZN22Item_func_group_concat24change_context_processorEPc
081002d0 W _ZN20Item_sum_udf_decimal18fix_length_and_decEv
081002e0 W _ZN18Item_sum_udf_float18fix_length_and_decEv
081002f0 W _ZNK31Hybrid_type_traits_fast_decimal4typeEv
08100300 W _ZN22Item_func_group_concat11val_decimalEP10my_decimal
08100310 W _ZN22Item_func_group_concat7val_intEv
08100360 W _ZN22Item_func_group_concat8val_realEv
081003d0 W _ZN22Item_func_group_concatD0Ev
08100470 W _ZN12Item_sum_andD0Ev
081004d0 W _ZN12Item_sum_andD1Ev
08100530 W _ZN12Item_sum_xorD0Ev
08100590 W _ZN12Item_sum_xorD1Ev
081005f0 W _ZN11Item_sum_orD0Ev
08100650 W _ZN11Item_sum_orD1Ev
081006b0 W _ZN12Item_sum_bitD0Ev
08100710 W _ZN12Item_sum_bitD1Ev
08100770 W _ZN14Item_sum_countD0Ev
081007d0 W _ZN14Item_sum_countD1Ev
08100830 W _ZN17Item_sum_varianceD0Ev
08100890 W _ZN17Item_sum_varianceD1Ev
081008f0 W _ZN12Item_sum_stdD0Ev
08100950 W _ZN12Item_sum_stdD1Ev
081009b0 W _ZN12Item_sum_avgD0Ev
08100a10 W _ZN12Item_sum_avgD1Ev
08100a70 W _ZN12Item_sum_sumD0Ev
08100ad0 W _ZN12Item_sum_sumD1Ev
08100b30 W _ZN12Item_sum_intD0Ev
08100b90 W _ZN12Item_sum_intD1Ev
08100bf0 W _ZN12Item_sum_numD0Ev
08100c50 W _ZN12Item_sum_numD1Ev
08100cb0 W _ZN19Item_variance_fieldD0Ev
08100d10 W _ZN19Item_variance_fieldD1Ev
08100d70 W _ZN14Item_std_fieldD0Ev
08100dd0 W _ZN14Item_std_fieldD1Ev
08100e30 W _ZN14Item_avg_fieldD0Ev
08100e90 W _ZN14Item_avg_fieldD1Ev
08100ef0 W _ZN8Item_sumD0Ev
08100f50 W _ZN8Item_sumD1Ev
08100fb0 W _ZN22Item_func_group_concatD1Ev
08101050 W _ZN12Item_sum_maxD0Ev
08101130 W _ZN12Item_sum_maxD1Ev
08101210 W _ZN12Item_sum_minD0Ev
081012f0 W _ZN12Item_sum_minD1Ev
081013d0 W _ZN15Item_sum_hybridD0Ev
081014b0 W _ZN15Item_sum_hybridD1Ev
08101590 W _ZN16Item_sum_udf_strD0Ev
08101600 W _ZN16Item_sum_udf_strD1Ev
08101670 W _ZN16Item_sum_udf_intD0Ev
081016e0 W _ZN16Item_sum_udf_intD1Ev
08101750 W _ZN20Item_sum_udf_decimalD0Ev
081017c0 W _ZN20Item_sum_udf_decimalD1Ev
08101830 W _ZN18Item_sum_udf_floatD0Ev
081018a0 W _ZN18Item_sum_udf_floatD1Ev
08101910 W _ZN12Item_udf_sumD0Ev
08101980 W _ZN12Item_udf_sumD1Ev
081019f0 W _ZN19Item_variance_field7val_intEv
08101a30 W _ZN12Item_sum_avg7val_intEv
08101a70 W _ZN12Item_sum_num7val_intEv
08101ab0 W _ZN12Item_udf_sum10fix_fieldsEP3THDPP4Item
08101af0 W _ZN8Item_sum11result_itemEP5Field
08101b20 W _ZNK31Hybrid_type_traits_fast_decimal3divEP11Hybrid_typey
08101ba0 W _ZNK31Hybrid_type_traits_fast_decimal18fix_length_and_decEP4ItemS1_
08101bd0 W _ZN17Item_sum_variance11result_itemEP5Field
08101c00 W _ZN12Item_sum_std11result_itemEP5Field
08101c30 W _ZN12Item_sum_avg11result_itemEP5Field
08101c70 W _ZN16Item_sum_udf_int8val_realEv
08101c90 W _ZN18Item_sum_udf_float7val_intEv
08101cd0 W _ZN21Item_sum_avg_distinctD0Ev
08101cf0 W _ZN21Item_sum_avg_distinctD1Ev
08101d10 W _ZN21Item_sum_avg_distinct12copy_or_sameEP3THD
08101d50 T _ZN11Cached_itemD2Ev
08101d60 T _ZN11Cached_itemD1Ev
08101d70 T _ZN11Cached_itemD0Ev
08101d80 T _ZN16Cached_item_real3cmpEv
08101dd0 T _ZN15Cached_item_int3cmpEv
08101e50 T _ZN19Cached_item_decimalC2EP4Item
08101ea0 T _ZN19Cached_item_decimalC1EP4Item
08101ef0 T _ZN19Cached_item_decimal3cmpEv
08101f90 T _ZN17Cached_item_field3cmpEv
08102050 T _ZN15Cached_item_strD0Ev
08102100 T _ZN15Cached_item_strD1Ev
081021b0 T _ZN15Cached_item_strD2Ev
08102260 T _ZN15Cached_item_str3cmpEv
08102310 T _ZN15Cached_item_strC1EP3THDP4Item
08102390 T _ZN15Cached_item_strC2EP3THDP4Item
08102410 T _Z15new_Cached_itemP3THDP4Item
08102560 W _ZN4ListI11Cached_itemE15delete_elementsEv
081025c0 W _ZN4ListI11Cached_itemEC1Ev
081025e0 W _ZN4ListI11Cached_itemEC2Ev
08102600 W _ZN4ListI11Cached_itemEC1ERKS1_
08102620 W _ZN4ListI11Cached_itemEC2ERKS1_
08102640 W _ZN4ListI11Cached_itemE6concatEPS1_
08102670 W _ZN4ListI11Cached_itemE3popEv
081026a0 W _ZN4ListI11Cached_itemE7disjoinEPS1_
081026e0 W _ZN4ListI11Cached_itemE7prepandEPS1_
08102710 W _ZN4ListI11Cached_itemE4headEv
08102720 W _ZN4ListI11Cached_itemE8head_refEv
08102740 W _ZN13List_iteratorI11Cached_itemEC1Ev
08102770 W _ZN13List_iteratorI11Cached_itemEC2Ev
081027a0 W _ZN13List_iteratorI11Cached_itemE4initER4ListIS0_E
081027c0 W _ZN13List_iteratorI11Cached_itemEC1ER4ListIS0_E
081027e0 W _ZN13List_iteratorI11Cached_itemEC2ER4ListIS0_E
08102800 W _ZN13List_iteratorI11Cached_itemEppEi
08102820 W _ZN13List_iteratorI11Cached_itemE6rewindEv
08102830 W _ZN13List_iteratorI11Cached_itemE7replaceEPS0_
08102850 W _ZN13List_iteratorI11Cached_itemE7replaceER4ListIS0_E
081028d0 W _ZN13List_iteratorI11Cached_itemE6removeEv
08102930 W _ZN13List_iteratorI11Cached_itemE3refEv
08102940 W _ZN19Cached_item_decimalD0Ev
08102960 W _ZN19Cached_item_decimalD1Ev
08102980 W _ZN17Cached_item_fieldD0Ev
081029a0 W _ZN17Cached_item_fieldD1Ev
081029c0 W _ZN15Cached_item_intD0Ev
081029e0 W _ZN15Cached_item_intD1Ev
08102a00 W _ZN16Cached_item_realD0Ev
08102a20 W _ZN16Cached_item_realD1Ev
08102a40 W _ZN13List_iteratorI11Cached_itemE5afterEPS0_
08102ab0 W _ZN4ListI11Cached_itemE10push_frontEPS0_
08102b00 W _ZN4ListI11Cached_itemE9push_backEPS0_
08102b50 W _ZN4ListI11Cached_itemE9push_backEPS0_P11st_mem_root
08102ba0 T _Z20check_reserved_wordsP13st_lex_string
08102c30 T _Z15eval_const_condP4Item
08102c50 T _ZN9Item_func4walkEM4ItemFbPcES1_
08102cf0 T _ZN9Item_func13traverse_condEPFvPK4ItemPvES3_NS0_14traverse_orderE
08102de0 T _ZN9Item_func18update_used_tablesEv
08102e70 T _ZNK9Item_func11used_tablesEv
08102e80 T _ZNK9Item_func15not_null_tablesEv
08102e90 T _ZNK9Item_func2eqEPK4Itemb
08102f60 T _ZN9Item_func22fix_num_length_and_decEv
08102fc0 T _ZN19Item_func_numhybrid22fix_num_length_and_decEv
08102fd0 T _ZN9Item_func20count_decimal_lengthEv
081030c0 T _ZN9Item_func17count_only_lengthEv
08103110 T _ZN9Item_func17count_real_lengthEv
081031c0 T _ZN11Item_num_op13find_num_typeEv
08103270 T _ZN14Item_func_num113find_num_typeEv
081032e0 T _ZN14Item_func_num122fix_num_length_and_decEv
08103300 T _ZN19Item_func_numhybrid18fix_length_and_decEv
08103330 T _ZN14Item_func_plus7real_opEv
08103390 T _ZN14Item_func_plus6int_opEv
08103410 T _ZN21Item_func_additive_op16result_precisionEv
08103520 T _ZN15Item_func_minus7real_opEv
08103580 T _ZN15Item_func_minus6int_opEv
081035f0 T _ZN13Item_func_mul7real_opEv
08103650 T _ZN13Item_func_mul6int_opEv
081036f0 T _ZN13Item_func_mul16result_precisionEv
081037e0 T _ZN13Item_func_div16result_precisionEv
081038c0 T _ZN17Item_func_int_div18fix_length_and_decEv
081038f0 T _ZN13Item_func_mod16result_precisionEv
08103930 T _ZN13Item_func_neg7real_opEv
08103960 T _ZN13Item_func_neg6int_opEv
08103990 T _ZN13Item_func_neg22fix_num_length_and_decEv
081039b0 T _ZN13Item_func_neg18fix_length_and_decEv
08103a10 T _ZN13Item_func_abs7real_opEv
08103a40 T _ZN13Item_func_abs6int_opEv
08103a80 T _ZN13Item_func_abs18fix_length_and_decEv
08103a90 T _ZN20Item_func_shift_left7val_intEv
08103b30 T _ZN21Item_func_shift_right7val_intEv
08103bd0 T _ZN17Item_func_bit_neg7val_intEv
08103c30 T _ZN17Item_func_integer18fix_length_and_decEv
08103c70 T _ZN17Item_func_int_val22fix_num_length_and_decEv
08103cc0 T _ZN17Item_func_int_val13find_num_typeEv
08103d80 T _ZN17Item_func_ceiling7real_opEv
08103de0 T _ZN15Item_func_floor7real_opEv
08103e40 T _ZN15Item_func_round18fix_length_and_decEv
08104000 T _ZN14Item_func_rand18update_used_tablesEv
08104030 T _ZN14Item_func_sign7val_intEv
08104090 T _ZN15Item_func_units8val_realEv
081040d0 T _ZN17Item_func_min_max8val_realEv
08104180 T _ZN17Item_func_min_max7val_intEv
08104240 T _ZN16Item_func_length7val_intEv
08104290 T _ZN22Item_func_coercibility7val_intEv
081042b0 T _ZN15Item_func_ascii7val_intEv
08104310 T _ZN13Item_func_ord7val_intEv
081043c0 T _ZN21Item_func_find_in_set7val_intEv
081045c0 T _ZN11udf_handler13get_argumentsEv
081046c0 T _ZN19Item_func_udf_float8val_realEv
08104740 T _ZN17Item_func_udf_int7val_intEv
081047c0 T _ZN21Item_func_udf_decimal18fix_length_and_decEv
081047e0 T _ZN17Item_func_udf_str18fix_length_and_decEv
08104820 T _ZN11udf_handlerD2Ev
08104830 T _ZN11udf_handlerD1Ev
08104840 T _Z11ull_get_keyPK15User_level_lockPjc
08104860 T _ZN22Item_func_set_user_var18fix_length_and_decEv
081048a0 T _ZN22Item_func_set_user_var5checkEv
08104950 T _ZN26Item_user_var_as_out_param8val_realEv
08104960 T _ZN26Item_user_var_as_out_param7val_intEv
08104970 T _ZN26Item_user_var_as_out_param7val_strEP6String
08104980 T _ZN26Item_user_var_as_out_param11val_decimalEP10my_decimal
08104990 T _ZNK15Item_func_match2eqEPK4Itemb
08104a30 T _ZN15Item_func_match8val_realEv
08104b10 T _ZN17Item_func_bit_xor7val_intEv
08104b90 T _ZN19Item_func_inet_aton7val_intEv
08104d00 T _ZN12Item_func_sp7cleanupEv
08104d50 T _ZN14Item_real_func11val_decimalEP10my_decimal
08104de0 T _ZN12Item_func_sp21find_and_check_accessEP3THDmPP16Security_context
08104f20 T _ZN20Item_func_found_rows7val_intEv
08104f50 T _ZNK12Item_func_sp15sp_result_fieldEv
08105050 T _ZN12Item_func_sp18fix_length_and_decEv
081050e0 T _ZNK12Item_func_sp11result_typeEv
08105140 T _ZNK12Item_func_sp10field_typeEv
081051a0 T _ZN19Item_func_row_count7val_intEv
081051d0 T _ZNK22Item_func_get_user_var10const_itemEv
08105240 T _ZN19Item_func_benchmark7val_intEv
08105370 T _ZN24Item_func_last_insert_id7val_intEv
08105470 T _ZN13Item_func_div18fix_length_and_decEv
08105530 T _ZN15Item_func_minus18fix_length_and_decEv
08105570 T _ZN12Item_func_sp10make_fieldEP10Send_field
081055e0 T _ZN12Item_func_sp12execute_implEP3THDP5Field
081056b0 T _ZN12Item_func_sp7executeEPP5Field
081057a0 T _ZN9Item_func13set_argumentsER4ListI4ItemE
08105850 T _ZNK12Item_func_sp9func_nameEv
08105950 T _ZN9Item_func10print_argsEP6Stringj
081059d0 T _ZN12Item_func_spC1EP23Name_resolution_contextP7sp_name
08105a50 T _ZN12Item_func_spC2EP23Name_resolution_contextP7sp_name
08105ad0 T _ZN9Item_funcC1ER4ListI4ItemE
08105b10 T _ZN9Item_funcC2ER4ListI4ItemE
08105b50 T _ZN12Item_func_spC1EP23Name_resolution_contextP7sp_nameR4ListI4ItemE
08105bc0 T _ZN12Item_func_spC2EP23Name_resolution_contextP7sp_nameR4ListI4ItemE
08105c30 T _ZNK22Item_func_get_user_var11result_typeEv
08105c80 T _ZN22Item_func_is_used_lock7val_intEv
08105d10 T _ZN22Item_func_is_free_lock7val_intEv
08105da0 T _ZN21Item_func_char_length7val_intEv
08105df0 T _ZN24Item_func_get_system_varC1EP7sys_var13enum_var_typeP13st_lex_stringPKcj
08105e60 T _Z14get_system_varP3THD13enum_var_type13st_lex_stringS2_
08106050 T _ZN24Item_func_get_system_varC2EP7sys_var13enum_var_typeP13st_lex_stringPKcj
081060c0 T _ZN15Item_func_match5printEP6String
081061c0 T _ZN26Item_user_var_as_out_param5printEP6String
08106230 T _ZN22Item_func_get_user_var5printEP6String
081062b0 T _ZN22Item_func_set_user_var13print_as_stmtEP6String
08106360 T _ZN22Item_func_set_user_var5printEP6String
08106410 T _ZN16Item_func_locate5printEP6String
08106530 T _ZN21Item_decimal_typecast5printEP6String
081065a0 T _ZN18Item_func_unsigned5printEP6String
08106610 T _ZN16Item_func_signed5printEP6String
08106680 T _ZN15Item_func_match9fix_indexEv
08106a00 T _ZN15Item_func_match11init_searchEb
08106d40 T _ZN24Item_func_get_system_var10fix_fieldsEP3THDPP4Item
08106de0 T _ZN9Item_func9transformEM4ItemFPS0_PcES2_
08106ec0 t _Z11update_hashP14user_var_entrybPvj11Item_resultP15charset_info_st10Derivation
08107000 T _ZN26Item_user_var_as_out_param9set_valueEPKcjP15charset_info_st
08107060 T _ZN26Item_user_var_as_out_param14set_null_valueEP15charset_info_st
081070c0 T _ZN22Item_func_set_user_var11update_hashEPvj11Item_resultP15charset_info_st10Derivation
08107170 T _ZN22Item_func_set_user_var6updateEv
08107290 t _Z12get_variableP7st_hashR13st_lex_stringb
081073a0 T _ZN26Item_user_var_as_out_param10fix_fieldsEP3THDPP4Item
08107430 T _ZNK22Item_func_get_user_var2eqEPK4Itemb
081074b0 T _Z19get_var_with_binlogP3THD16enum_sql_commandR13st_lex_stringPP14user_var_entry
081077a0 T _ZN22Item_func_get_user_var18fix_length_and_decEv
08107870 T _ZN14user_var_entry11val_decimalEPcP10my_decimal
08107970 T _ZN22Item_func_get_user_var11val_decimalEP10my_decimal
081079a0 T _ZN22Item_func_set_user_var11val_decimalEP10my_decimal
081079e0 T _ZN19Item_func_numhybrid11val_decimalEP10my_decimal
08107b20 T _ZN9Item_func11val_decimalEP10my_decimal
08107b90 T _ZN19Item_func_udf_float7val_strEP6String
08107bf0 T _ZN14Item_real_func7val_strEP6String
08107c50 T _ZN21Item_decimal_typecast7val_strEP6String
08107cc0 T _ZN14user_var_entry7val_strEPcP6Stringj
08107db0 T _ZN22Item_func_get_user_var7val_strEP6String
08107df0 T _ZN22Item_func_set_user_var7val_strEP6String
08107e40 T _ZN15Item_func_round10decimal_opEP10my_decimal
08107f10 T _ZN21Item_decimal_typecast11val_decimalEP10my_decimal
08107f90 T _ZN15Item_func_floor10decimal_opEP10my_decimal
08108050 T _ZN17Item_func_ceiling10decimal_opEP10my_decimal
08108110 T _ZN14user_var_entry7val_intEPc
081081f0 T _ZN22Item_func_get_user_var7val_intEv
08108230 T _ZN22Item_func_set_user_var7val_intEv
08108270 T _ZN15Item_func_floor6int_opEv
081083e0 T _ZN17Item_func_ceiling6int_opEv
08108550 T _ZN21Item_decimal_typecast7val_intEv
08108630 T _ZN19Item_func_numhybrid7val_intEv
08108800 T _ZN14user_var_entry8val_realEPc
08108870 T _ZN22Item_func_get_user_var8val_realEv
081088a0 T _ZN22Item_func_set_user_var8val_realEv
081088e0 T _ZN21Item_decimal_typecast8val_realEv
08108930 T _ZN19Item_func_numhybrid8val_realEv
08108a30 T _ZN15Item_func_sleep7val_intEv
08108c00 T _ZN17Item_func_udf_int7val_strEP6String
08108c70 T _ZN19Item_func_numhybrid7val_strEP6String
08108df0 T _ZN13Item_int_func7val_strEP6String
08108e60 T _ZN19Item_func_benchmark5printEP6String
08108f80 T _ZN20Item_master_pos_wait7val_intEv
08109080 T _Z22item_user_lock_releaseP15User_level_lock
08109100 T _ZN22Item_func_release_lock7val_intEv
081091f0 T _ZN18Item_func_get_lock7val_intEv
08109580 T _Z19item_user_lock_freev
081095c0 T _Z19item_user_lock_initv
08109620 T _ZN11udf_handler11val_decimalEPcP10my_decimal
08109730 T _ZN21Item_func_udf_decimal7val_strEP6String
081097f0 T _ZN21Item_func_udf_decimal11val_decimalEP10my_decimal
08109820 T _ZN21Item_func_udf_decimal8val_realEv
08109880 T _ZN21Item_func_udf_decimal7val_intEv
08109960 T _ZN11udf_handler7val_strEP6StringS1_
08109a70 T _ZN17Item_func_udf_str7val_strEP6String
08109aa0 T _ZN9Item_func10fix_fieldsEP3THDPP4Item
08109c50 T _ZN12Item_func_sp10fix_fieldsEP3THDPP4Item
08109ce0 T _ZN15Item_func_match10fix_fieldsEP3THDPP4Item
08109e90 T _ZN22Item_func_set_user_var10fix_fieldsEP3THDPP4Item
08109f60 T _ZN11udf_handler10fix_fieldsEP3THDP17Item_result_fieldjPP4Item
0810a4b0 T _ZN11udf_handler7cleanupEv
0810a550 T _ZN13Item_udf_func7cleanupEv
0810a570 T _ZN19Item_func_bit_count7val_intEv
0810a5c0 T _ZN21Item_func_find_in_set18fix_length_and_decEv
0810a6f0 T _ZN16Item_func_locate18fix_length_and_decEv
0810a750 T _ZN15Item_func_field18fix_length_and_decEv
0810a810 T _ZN17Item_func_min_max18fix_length_and_decEv
0810a990 T _ZN17Item_func_min_max7val_strEP6String
0810ab90 T _ZN15Item_func_field7val_intEv
0810ae50 T _ZN17Item_func_min_max11val_decimalEP10my_decimal
0810af50 T _ZN16Item_func_locate7val_intEv
0810b0b0 T _ZN14Item_func_rand8val_realEv
0810b0d0 T _ZN14Item_func_rand10fix_fieldsEP3THDPP4Item
0810b200 T _ZN15Item_func_round6int_opEv
0810b3c0 T _Z15my_double_rounddib
0810b530 T _ZN15Item_func_round7real_opEv
0810b5a0 T _ZN13Item_func_pow8val_realEv
0810b610 T _ZN13Item_func_tan8val_realEv
0810b680 T _ZN14Item_func_atan8val_realEv
0810b750 T _ZN13Item_func_sin8val_realEv
0810b7c0 T _ZN13Item_func_cos8val_realEv
0810b830 T _ZN14Item_func_asin8val_realEv
0810b8d0 T _ZN14Item_func_acos8val_realEv
0810b970 T _ZN14Item_func_sqrt8val_realEv
0810b9d0 T _ZN13Item_func_exp8val_realEv
0810ba10 T _ZN13Item_func_abs10decimal_opEP10my_decimal
0810bab0 T _ZN13Item_func_neg10decimal_opEP10my_decimal
0810bb40 T _ZN13Item_func_mul10decimal_opEP10my_decimal
0810bc70 T _ZN15Item_func_minus10decimal_opEP10my_decimal
0810bda0 T _ZN14Item_func_plus10decimal_opEP10my_decimal
0810bed0 T _ZN9Item_func21signal_divide_by_nullEv
0810bf30 T _ZN15Item_func_log108val_realEv
0810bf80 T _ZN14Item_func_log28val_realEv
0810bfe0 T _ZN13Item_func_log8val_realEv
0810c0a0 T _ZN12Item_func_ln8val_realEv
0810c0f0 T _ZN13Item_func_mod10decimal_opEP10my_decimal
0810c230 T _ZN13Item_func_mod7real_opEv
0810c2c0 T _ZN13Item_func_mod6int_opEv
0810c370 T _ZN17Item_func_int_div7val_intEv
0810c450 T _ZN13Item_func_div10decimal_opEP10my_decimal
0810c580 T _ZN13Item_func_div7real_opEv
0810c600 T _ZN16Item_func_signed16val_int_from_strEPi
0810c7b0 T _ZN18Item_func_unsigned7val_intEv
0810c850 T _ZN16Item_func_signed7val_intEv
0810c900 T _ZN9Item_func18get_tmp_table_itemEP3THD
0810c970 T _ZN9Item_func15tmp_table_fieldEP8st_table
0810cbf0 T _ZN12Item_func_sp15tmp_table_fieldEP8st_table
0810cc50 T _ZN9Item_func8print_opEP6String
0810cdb0 T _ZN9Item_func5printEP6String
0810ce50 T _ZN9Item_func14split_sum_funcEP3THDPP4ItemR4ListIS2_E
0810ceb0 T _ZN9Item_funcC1EP3THDPS_
0810cf90 T _ZN9Item_funcC2EP3THDPS_
0810d070 W _ZNK9Item_func4typeEv
0810d080 W _ZNK9Item_func8functypeEv
0810d090 W _ZNK9Item_func15select_optimizeEv
0810d0a0 W _ZNK9Item_func13have_rev_funcEv
0810d0b0 W _ZNK9Item_func8key_itemEv
0810d0c0 W _ZNK9Item_func10const_itemEv
0810d0d0 W _ZN9Item_func7is_nullEv
0810d0f0 W _ZNK14Item_real_func11result_typeEv
0810d100 W _ZN14Item_real_func18fix_length_and_decEv
0810d120 W _ZNK19Item_func_numhybrid11result_typeEv
0810d130 W _ZN19Item_func_numhybrid7is_nullEv
0810d160 W _ZN14Item_func_num16str_opEP6String
0810d170 W _ZN11Item_num_op6str_opEP6String
0810d180 W _ZN13Item_int_func8val_realEv
0810d1a0 W _ZNK13Item_int_func11result_typeEv
0810d1b0 W _ZN13Item_int_func18fix_length_and_decEv
0810d1c0 W _ZNK16Item_func_signed9func_nameEv
0810d1d0 W _ZN16Item_func_signed8val_realEv
0810d200 W _ZN16Item_func_signed18fix_length_and_decEv
0810d220 W _ZNK16Item_func_signed17decimal_precisionEv
0810d240 W _ZNK18Item_func_unsigned9func_nameEv
0810d250 W _ZN18Item_func_unsigned18fix_length_and_decEv
0810d270 W _ZNK21Item_decimal_typecast11result_typeEv
0810d280 W _ZNK21Item_decimal_typecast10field_typeEv
0810d290 W _ZN21Item_decimal_typecast18fix_length_and_decEv
0810d2a0 W _ZNK21Item_decimal_typecast9func_nameEv
0810d2b0 W _ZNK14Item_func_plus9func_nameEv
0810d2c0 W _ZNK15Item_func_minus9func_nameEv
0810d2d0 W _ZNK13Item_func_mul9func_nameEv
0810d2e0 W _ZN13Item_func_div6int_opEv
0810d2f0 W _ZNK13Item_func_div9func_nameEv
0810d300 W _ZNK17Item_func_int_div9func_nameEv
0810d310 W _ZNK13Item_func_mod9func_nameEv
0810d320 W _ZNK13Item_func_neg9func_nameEv
0810d330 W _ZNK13Item_func_neg17decimal_precisionEv
0810d350 W _ZNK13Item_func_abs9func_nameEv
0810d360 W _ZN13Item_dec_func18fix_length_and_decEv
0810d380 W _ZNK13Item_func_exp9func_nameEv
0810d390 W _ZNK12Item_func_ln9func_nameEv
0810d3a0 W _ZNK13Item_func_log9func_nameEv
0810d3b0 W _ZNK14Item_func_log29func_nameEv
0810d3c0 W _ZNK15Item_func_log109func_nameEv
0810d3d0 W _ZNK14Item_func_sqrt9func_nameEv
0810d3e0 W _ZNK13Item_func_pow9func_nameEv
0810d3f0 W _ZNK14Item_func_acos9func_nameEv
0810d400 W _ZNK14Item_func_asin9func_nameEv
0810d410 W _ZNK14Item_func_atan9func_nameEv
0810d420 W _ZNK13Item_func_cos9func_nameEv
0810d430 W _ZNK13Item_func_sin9func_nameEv
0810d440 W _ZNK13Item_func_tan9func_nameEv
0810d450 W _ZNK17Item_func_ceiling9func_nameEv
0810d460 W _ZNK15Item_func_floor9func_nameEv
0810d470 W _ZNK15Item_func_round9func_nameEv
0810d490 W _ZNK14Item_func_rand9func_nameEv
0810d4a0 W _ZNK14Item_func_rand10const_itemEv
0810d4b0 W _ZNK14Item_func_sign9func_nameEv
0810d4c0 W _ZNK15Item_func_units9func_nameEv
0810d4d0 W _ZN15Item_func_units18fix_length_and_decEv
0810d4f0 W _ZNK17Item_func_min_max11result_typeEv
0810d500 W _ZNK16Item_func_length9func_nameEv
0810d510 W _ZN16Item_func_length18fix_length_and_decEv
0810d520 W _ZNK21Item_func_char_length9func_nameEv
0810d530 W _ZN21Item_func_char_length18fix_length_and_decEv
0810d540 W _ZNK22Item_func_coercibility9func_nameEv
0810d550 W _ZN22Item_func_coercibility18fix_length_and_decEv
0810d570 W _ZNK22Item_func_coercibility15not_null_tablesEv
0810d580 W _ZNK16Item_func_locate9func_nameEv
0810d590 W _ZNK15Item_func_field9func_nameEv
0810d5a0 W _ZNK15Item_func_ascii9func_nameEv
0810d5b0 W _ZN15Item_func_ascii18fix_length_and_decEv
0810d5c0 W _ZNK13Item_func_ord9func_nameEv
0810d5d0 W _ZNK21Item_func_find_in_set9func_nameEv
0810d5e0 W _ZN13Item_func_bit18fix_length_and_decEv
0810d5f0 W _ZNK19Item_func_bit_count9func_nameEv
0810d600 W _ZN19Item_func_bit_count18fix_length_and_decEv
0810d610 W _ZNK20Item_func_shift_left9func_nameEv
0810d620 W _ZNK21Item_func_shift_right9func_nameEv
0810d630 W _ZNK17Item_func_bit_neg9func_nameEv
0810d640 W _ZNK24Item_func_last_insert_id9func_nameEv
0810d650 W _ZN24Item_func_last_insert_id18fix_length_and_decEv
0810d670 W _ZNK19Item_func_benchmark9func_nameEv
0810d680 W _ZN19Item_func_benchmark18fix_length_and_decEv
0810d6a0 W _ZNK15Item_func_sleep10const_itemEv
0810d6b0 W _ZNK15Item_func_sleep9func_nameEv
0810d6c0 W _ZNK13Item_udf_func9func_nameEv
0810d6e0 W _ZNK13Item_udf_func11result_typeEv
0810d700 W _ZNK13Item_udf_func15not_null_tablesEv
0810d710 W _ZN19Item_func_udf_float18fix_length_and_decEv
0810d730 W _ZNK17Item_func_udf_int11result_typeEv
0810d740 W _ZN17Item_func_udf_int18fix_length_and_decEv
0810d760 W _ZNK21Item_func_udf_decimal11result_typeEv
0810d770 W _ZN17Item_func_udf_str8val_realEv
0810d7c0 W _ZN17Item_func_udf_str7val_intEv
0810d820 W _ZNK17Item_func_udf_str11result_typeEv
0810d830 W _ZNK18Item_func_get_lock9func_nameEv
0810d840 W _ZN18Item_func_get_lock18fix_length_and_decEv
0810d860 W _ZNK22Item_func_release_lock9func_nameEv
0810d870 W _ZN22Item_func_release_lock18fix_length_and_decEv
0810d890 W _ZNK20Item_master_pos_wait9func_nameEv
0810d8a0 W _ZN20Item_master_pos_wait18fix_length_and_decEv
0810d8c0 W _ZNK22Item_func_set_user_var11result_typeEv
0810d8d0 W _ZNK22Item_func_set_user_var9func_nameEv
0810d8e0 W _ZNK22Item_func_get_user_var8functypeEv
0810d8f0 W _ZNK22Item_func_get_user_var10field_typeEv
0810d900 W _ZNK22Item_func_get_user_var9func_nameEv
0810d910 W _ZNK22Item_func_get_user_var11used_tablesEv
0810d940 W _ZNK26Item_user_var_as_out_param4typeEv
0810d950 W _ZN24Item_func_get_system_var8val_realEv
0810d960 W _ZN24Item_func_get_system_var7val_intEv
0810d970 W _ZN24Item_func_get_system_var7val_strEP6String
0810d980 W _ZN24Item_func_get_system_var18fix_length_and_decEv
0810d990 W _ZNK24Item_func_get_system_var9func_nameEv
0810d9a0 W _ZNK19Item_func_inet_aton9func_nameEv
0810d9b0 W _ZN19Item_func_inet_aton18fix_length_and_decEv
0810d9d0 W _ZNK15Item_func_match8functypeEv
0810d9e0 W _ZNK15Item_func_match9func_nameEv
0810d9f0 W _ZN15Item_func_match18update_used_tablesEv
0810da00 W _ZNK15Item_func_match15not_null_tablesEv
0810da10 W _ZN15Item_func_match7val_intEv
0810da40 W _ZNK17Item_func_bit_xor9func_nameEv
0810da50 W _ZNK22Item_func_is_free_lock9func_nameEv
0810da60 W _ZN22Item_func_is_free_lock18fix_length_and_decEv
0810da80 W _ZNK22Item_func_is_used_lock9func_nameEv
0810da90 W _ZN22Item_func_is_used_lock18fix_length_and_decEv
0810dab0 W _ZNK19Item_func_row_count9func_nameEv
0810dac0 W _ZN19Item_func_row_count18fix_length_and_decEv
0810dad0 W _ZN12Item_func_sp24change_context_processorEPc
0810dae0 W _ZNK12Item_func_sp8functypeEv
0810daf0 W _ZNK20Item_func_found_rows9func_nameEv
0810db00 W _ZN20Item_func_found_rows18fix_length_and_decEv
0810db10 W _ZN12set_var_baseD1Ev
0810db20 W _ZN12set_var_baseD0Ev
0810db30 W _ZN12set_var_base11light_checkEP3THD
0810db50 W _ZN12set_var_base19no_support_one_shotEv
0810db60 W _ZN15Item_func_sleep18update_used_tablesEv
0810db90 W _ZN17Item_func_udf_int8val_realEv
0810dbb0 W _ZN20Item_func_found_rowsD0Ev
0810dc10 W _ZN20Item_func_found_rowsD1Ev
0810dc70 W _ZN19Item_func_row_countD0Ev
0810dcd0 W _ZN19Item_func_row_countD1Ev
0810dd30 W _ZN17Item_func_bit_xorD0Ev
0810dd90 W _ZN17Item_func_bit_xorD1Ev
0810ddf0 W _ZN17Item_func_bit_negD0Ev
0810de50 W _ZN17Item_func_bit_negD1Ev
0810deb0 W _ZN21Item_func_shift_rightD0Ev
0810df10 W _ZN21Item_func_shift_rightD1Ev
0810df70 W _ZN20Item_func_shift_leftD0Ev
0810dfd0 W _ZN20Item_func_shift_leftD1Ev
0810e030 W _ZN13Item_func_bitD0Ev
0810e090 W _ZN13Item_func_bitD1Ev
0810e0f0 W _ZN19Item_func_inet_atonD0Ev
0810e150 W _ZN19Item_func_inet_atonD1Ev
0810e1b0 W _ZN15Item_func_sleepD0Ev
0810e210 W _ZN15Item_func_sleepD1Ev
0810e270 W _ZN19Item_func_benchmarkD0Ev
0810e2d0 W _ZN19Item_func_benchmarkD1Ev
0810e330 W _ZN24Item_func_last_insert_idD0Ev
0810e390 W _ZN24Item_func_last_insert_idD1Ev
0810e3f0 W _ZN19Item_func_bit_countD0Ev
0810e450 W _ZN19Item_func_bit_countD1Ev
0810e4b0 W _ZN22Item_func_coercibilityD0Ev
0810e510 W _ZN22Item_func_coercibilityD1Ev
0810e570 W _ZN14Item_func_signD0Ev
0810e5d0 W _ZN14Item_func_signD1Ev
0810e630 W _ZN17Item_func_integerD0Ev
0810e690 W _ZN17Item_func_integerD1Ev
0810e6f0 W _ZN17Item_func_int_divD0Ev
0810e750 W _ZN17Item_func_int_divD1Ev
0810e7b0 W _ZN18Item_func_unsignedD0Ev
0810e810 W _ZN18Item_func_unsignedD1Ev
0810e870 W _ZN16Item_func_signedD0Ev
0810e8d0 W _ZN16Item_func_signedD1Ev
0810e930 W _ZN12Item_func_spD0Ev
0810e990 W _ZN12Item_func_spD1Ev
0810e9f0 W _ZN15Item_func_unitsD0Ev
0810ea50 W _ZN15Item_func_unitsD1Ev
0810eab0 W _ZN14Item_func_randD0Ev
0810eb10 W _ZN14Item_func_randD1Ev
0810eb70 W _ZN13Item_func_tanD0Ev
0810ebd0 W _ZN13Item_func_tanD1Ev
0810ec30 W _ZN13Item_func_sinD0Ev
0810ec90 W _ZN13Item_func_sinD1Ev
0810ecf0 W _ZN13Item_func_cosD0Ev
0810ed50 W _ZN13Item_func_cosD1Ev
0810edb0 W _ZN14Item_func_atanD0Ev
0810ee10 W _ZN14Item_func_atanD1Ev
0810ee70 W _ZN14Item_func_asinD0Ev
0810eed0 W _ZN14Item_func_asinD1Ev
0810ef30 W _ZN14Item_func_acosD0Ev
0810ef90 W _ZN14Item_func_acosD1Ev
0810eff0 W _ZN13Item_func_powD0Ev
0810f050 W _ZN13Item_func_powD1Ev
0810f0b0 W _ZN14Item_func_sqrtD0Ev
0810f110 W _ZN14Item_func_sqrtD1Ev
0810f170 W _ZN13Item_func_expD0Ev
0810f1d0 W _ZN13Item_func_expD1Ev
0810f230 W _ZN15Item_func_log10D0Ev
0810f290 W _ZN15Item_func_log10D1Ev
0810f2f0 W _ZN14Item_func_log2D0Ev
0810f350 W _ZN14Item_func_log2D1Ev
0810f3b0 W _ZN13Item_func_logD0Ev
0810f410 W _ZN13Item_func_logD1Ev
0810f470 W _ZN12Item_func_lnD0Ev
0810f4d0 W _ZN12Item_func_lnD1Ev
0810f530 W _ZN13Item_dec_funcD0Ev
0810f590 W _ZN13Item_dec_funcD1Ev
0810f5f0 W _ZN24Item_func_get_system_varD0Ev
0810f650 W _ZN24Item_func_get_system_varD1Ev
0810f6b0 W _ZN22Item_func_get_user_varD0Ev
0810f710 W _ZN22Item_func_get_user_varD1Ev
0810f770 W _ZN17Item_func_udf_strD0Ev
0810f7e0 W _ZN17Item_func_udf_strD1Ev
0810f850 W _ZN21Item_func_udf_decimalD0Ev
0810f8c0 W _ZN21Item_func_udf_decimalD1Ev
0810f930 W _ZN17Item_func_udf_intD0Ev
0810f9a0 W _ZN17Item_func_udf_intD1Ev
0810fa10 W _ZN19Item_func_udf_floatD0Ev
0810fa80 W _ZN19Item_func_udf_floatD1Ev
0810faf0 W _ZN13Item_udf_funcD0Ev
0810fb60 W _ZN13Item_udf_funcD1Ev
0810fbd0 W _ZN15Item_func_roundD0Ev
0810fc30 W _ZN15Item_func_roundD1Ev
0810fc90 W _ZN15Item_func_floorD0Ev
0810fcf0 W _ZN15Item_func_floorD1Ev
0810fd50 W _ZN17Item_func_ceilingD0Ev
0810fdb0 W _ZN17Item_func_ceilingD1Ev
0810fe10 W _ZN17Item_func_int_valD0Ev
0810fe70 W _ZN17Item_func_int_valD1Ev
0810fed0 W _ZN13Item_func_absD0Ev
0810ff30 W _ZN13Item_func_absD1Ev
0810ff90 W _ZN13Item_func_negD0Ev
0810fff0 W _ZN13Item_func_negD1Ev
08110050 W _ZN13Item_func_modD0Ev
081100b0 W _ZN13Item_func_modD1Ev
08110110 W _ZN13Item_func_divD0Ev
08110170 W _ZN13Item_func_divD1Ev
081101d0 W _ZN13Item_func_mulD0Ev
08110230 W _ZN13Item_func_mulD1Ev
08110290 W _ZN15Item_func_minusD0Ev
081102f0 W _ZN15Item_func_minusD1Ev
08110350 W _ZN14Item_func_plusD0Ev
081103b0 W _ZN14Item_func_plusD1Ev
08110410 W _ZN21Item_func_additive_opD0Ev
08110470 W _ZN21Item_func_additive_opD1Ev
081104d0 W _ZN14Item_func_num1D0Ev
08110530 W _ZN14Item_func_num1D1Ev
08110590 W _ZN11Item_num_opD0Ev
081105f0 W _ZN11Item_num_opD1Ev
08110650 W _ZN21Item_decimal_typecastD0Ev
081106b0 W _ZN21Item_decimal_typecastD1Ev
08110710 W _ZN19Item_func_numhybridD0Ev
08110770 W _ZN19Item_func_numhybridD1Ev
081107d0 W _ZN13Item_int_funcD0Ev
08110830 W _ZN13Item_int_funcD1Ev
08110890 W _ZN14Item_real_funcD0Ev
081108f0 W _ZN14Item_real_funcD1Ev
08110950 W _ZN9Item_funcD0Ev
081109b0 W _ZN9Item_funcD1Ev
08110a10 W _ZN26Item_user_var_as_out_paramD0Ev
08110a70 W _ZN26Item_user_var_as_out_paramD1Ev
08110ad0 W _ZN22Item_func_is_used_lockD0Ev
08110b70 W _ZN22Item_func_is_used_lockD1Ev
08110c10 W _ZN22Item_func_is_free_lockD0Ev
08110cb0 W _ZN22Item_func_is_free_lockD1Ev
08110d50 W _ZN15Item_func_matchD0Ev
08110e50 W _ZN15Item_func_matchD1Ev
08110f50 W _ZN22Item_func_set_user_varD0Ev
08111050 W _ZN22Item_func_set_user_varD1Ev
08111150 W _ZN22Item_func_release_lockD0Ev
081111f0 W _ZN22Item_func_release_lockD1Ev
08111290 W _ZN18Item_func_get_lockD0Ev
08111330 W _ZN18Item_func_get_lockD1Ev
081113d0 W _ZN20Item_master_pos_waitD0Ev
08111470 W _ZN20Item_master_pos_waitD1Ev
08111510 W _ZN21Item_func_find_in_setD0Ev
08111600 W _ZN21Item_func_find_in_setD1Ev
081116f0 W _ZN13Item_func_ordD0Ev
08111790 W _ZN13Item_func_ordD1Ev
08111830 W _ZN15Item_func_asciiD0Ev
081118d0 W _ZN15Item_func_asciiD1Ev
08111970 W _ZN15Item_func_fieldD0Ev
08111a60 W _ZN15Item_func_fieldD1Ev
08111b50 W _ZN16Item_func_locateD0Ev
08111c40 W _ZN16Item_func_locateD1Ev
08111d30 W _ZN21Item_func_char_lengthD0Ev
08111dd0 W _ZN21Item_func_char_lengthD1Ev
08111e70 W _ZN16Item_func_lengthD0Ev
08111f10 W _ZN16Item_func_lengthD1Ev
08111fb0 W _ZN17Item_func_min_maxD0Ev
08112050 W _ZN17Item_func_min_maxD1Ev
081120f0 W _ZN15Item_func_match7cleanupEv
08112140 W _ZN17Item_func_udf_str11val_decimalEP10my_decimal
08112190 W _ZN19Item_func_udf_float11val_decimalEP10my_decimal
08112220 W _ZN19Item_func_udf_float7val_intEv
08112260 W _ZN14Item_real_func7val_intEv
081122a0 W _ZN12Item_func_sp11val_decimalEP10my_decimal
081122e0 W _ZN12Item_func_sp7val_strEP6String
08112330 W _ZN12Item_func_sp7val_intEv
08112380 W _ZN12Item_func_sp8val_realEv
081123c0 W _ZN13Item_udf_func10fix_fieldsEP3THDPP4Item
08112420 W _ZN13Item_func_bit5printEP6String
08112430 W _ZN17Item_func_int_div5printEP6String
08112440 W _ZN11Item_num_op5printEP6String
08112450 W _ZN17Item_func_bit_neg5printEP6String
08112460 t _Z15agg_result_typeP11Item_resultPP4Itemj
08112510 T _ZN13Item_func_not7val_intEv
08112550 T _ZN17Item_func_not_all25empty_underlying_subqueryEv
08112580 T _ZN17Item_func_not_all7val_intEv
081125e0 T _ZN17Item_func_nop_all7val_intEv
08112650 T _ZN14Arg_comparator12compare_realEv
081126e0 T _ZN14Arg_comparator14compare_e_realEv
08112760 T _ZN14Arg_comparator18compare_int_signedEv
08112800 T _ZN14Arg_comparator20compare_int_unsignedEv
081128a0 T _ZN14Arg_comparator27compare_int_signed_unsignedEv
08112960 T _ZN14Arg_comparator27compare_int_unsigned_signedEv
08112a10 T _ZN14Arg_comparator13compare_e_intEv
08112ab0 T _ZN14Arg_comparator29compare_e_int_diff_signednessEv
08112b50 T _ZN14Arg_comparator11compare_rowEv
08112c30 T _ZN14Arg_comparator13compare_e_rowEv
08112cd0 T _ZN17Item_in_optimizer7val_intEv
08112d40 T _ZN17Item_in_optimizer20keep_top_level_cacheEv
08112d60 T _ZN17Item_in_optimizer7is_nullEv
08112de0 T _ZN12Item_func_eq7val_intEv
08112e40 T _ZN15Item_func_equal7val_intEv
08112e90 T _ZN12Item_func_ne7val_intEv
08112ef0 T _ZN12Item_func_ge7val_intEv
08112f50 T _ZN12Item_func_gt7val_intEv
08112fb0 T _ZN12Item_func_le7val_intEv
08113020 T _ZN12Item_func_lt7val_intEv
08113090 T _ZNK16Item_func_ifnull17decimal_precisionEv
08113120 T _ZNK16Item_func_ifnull10field_typeEv
08113130 T _ZN16Item_func_ifnull7real_opEv
08113190 T _ZN16Item_func_ifnull6int_opEv
08113210 T _ZN16Item_func_ifnull10decimal_opEP10my_decimal
08113290 T _ZN16Item_func_ifnull6str_opEP6String
08113310 T _ZNK12Item_func_if17decimal_precisionEv
081133a0 T _ZN12Item_func_if8val_realEv
08113400 T _ZN12Item_func_if7val_intEv
08113460 T _ZN12Item_func_if7val_strEP6String
081134c0 T _ZN12Item_func_if11val_decimalEP10my_decimal
08113530 T _ZN16Item_func_nullif8val_realEv
081135b0 T _ZN16Item_func_nullif7val_intEv
08113630 T _ZN16Item_func_nullif7val_strEP6String
081136b0 T _ZN16Item_func_nullif11val_decimalEP10my_decimal
08113730 T _ZN16Item_func_nullif7is_nullEv
08113790 T _ZNK14Item_func_case17decimal_precisionEv
08113880 T _ZN18Item_func_coalesce6str_opEP6String
081138d0 T _ZN18Item_func_coalesce6int_opEv
08113920 T _ZN18Item_func_coalesce7real_opEv
08113970 T _ZN18Item_func_coalesce10decimal_opEP10my_decimal
081139d0 t _Z12cmp_longlongPvPxS0_
08113a40 t _Z10cmp_doublePvPdS0_
08113a80 t _Z7cmp_rowPvP12cmp_item_rowS1_
08113aa0 T _ZN9in_vector4findEP4Item
08113b70 T _ZN9in_string9get_valueEP4Item
08113b90 T _ZN6in_row3setEjP4Item
08113bd0 T _ZN11in_longlong3setEjP4Item
08113c00 T _ZN11in_longlong9get_valueEP4Item
08113c40 T _ZN9in_double3setEjP4Item
08113c60 T _ZN9in_double9get_valueEP4Item
08113ca0 T _ZN10in_decimal3setEjP4Item
08113d10 T _ZN10in_decimal9get_valueEP4Item
08113d40 T _ZN12cmp_item_rowD2Ev
08113da0 T _ZN12cmp_item_rowD1Ev
08113e00 T _ZN6in_rowD0Ev
08113e50 T _ZN6in_rowD1Ev
08113ea0 T _ZN6in_rowD2Ev
08113ef0 T _ZN12cmp_item_rowD0Ev
08113f50 T _ZN12cmp_item_row7compareEP8cmp_item
08113fa0 T _ZN16cmp_item_decimal11store_valueEP4Item
08113ff0 T _ZN12Item_func_in12nulls_in_rowEv
08114040 t _Z9srtcmp_inP15charset_info_stPK6StringS3_
08114090 T _ZN12Item_func_in7val_intEv
081141e0 T _ZN16Item_func_bit_or7val_intEv
08114260 T _ZN17Item_func_bit_and7val_intEv
081142e0 T _ZN9Item_cond13traverse_condEPFvPK4ItemPvES3_NS0_14traverse_orderE
081143f0 T _ZNK9Item_cond11used_tablesEv
08114400 T _ZN9Item_cond18update_used_tablesEv
081144a0 T _ZN13Item_cond_and7val_intEv
08114530 T _ZN12Item_cond_or7val_intEv
081145c0 T _ZN16Item_func_isnull7val_intEv
08114600 T _ZN21Item_is_not_null_test7val_intEv
08114690 T _ZN21Item_is_not_null_test18update_used_tablesEv
08114710 T _ZN19Item_func_isnotnull7val_intEv
08114740 T _ZNK14Item_func_like15select_optimizeEv
081147d0 T _ZN14Item_func_like24turboBM_compute_suffixesEPi
08114970 T _ZN14Item_func_like34turboBM_compute_good_suffix_shiftsEPi
08114aa0 T _ZN14Item_func_like36turboBM_compute_bad_character_shiftsEv
08114b40 T _ZNK14Item_func_like15turboBM_matchesEPKci
08114df0 T _ZN14Item_func_like7val_intEv
08114f10 T _ZN13Item_cond_xor7val_intEv
08114fb0 T _ZN13Item_func_not15neg_transformerEP3THD
08114fc0 T _ZN24Item_bool_rowready_func215neg_transformerEP3THD
08114fe0 T _ZN24Item_bool_rowready_func212negated_itemEv
08114ff0 T _ZN10Item_equal7membersEv
08115000 T _ZN10Item_equal8containsEP5Field
08115080 T _ZN10Item_equal4sortEPFiP10Item_fieldS1_PvES2_
08115160 T _ZN10Item_equal10fix_fieldsEP3THDPP4Item
08115220 T _ZN10Item_equal18update_used_tablesEv
081152e0 T _ZN10Item_equal7val_intEv
081153d0 T _ZN9in_stringD0Ev
081154a0 T _ZN9in_stringD1Ev
08115570 T _ZN9in_stringD2Ev
08115640 T _ZN10Item_equal3addEP10Item_field
08115690 T _ZN9Item_cond20copy_andor_argumentsEP3THDPS_
08115710 T _ZN16cmp_item_decimal9make_sameEv
08115750 T _ZN12cmp_item_row9make_sameEv
08115780 T _ZN13cmp_item_real9make_sameEv
081157b0 T _ZN12cmp_item_int9make_sameEv
081157e0 T _ZN20cmp_item_sort_string9make_sameEv
08115830 T _ZN8cmp_item14get_comparatorE11Item_resultP15charset_info_st
08115930 T _ZN10Item_equal18fix_length_and_decEv
08115990 T _ZN18Item_func_interval18fix_length_and_decEv
08115c80 T _ZN17Item_in_optimizer7cleanupEv
08115cb0 T _ZN16Item_func_strcmp7val_intEv
08115d60 T _ZN14Arg_comparator16compare_e_stringEv
08115df0 T _ZN14Arg_comparator14compare_stringEv
08115e80 T _ZN17Item_func_not_all5printEP6String
08115ec0 T _ZN10Item_equal5printEP6String
08116050 T _ZN9Item_cond5printEP6String
081161b0 T _ZN10Item_equal9transformEM4ItemFPS0_PcES2_
08116250 T _ZN9Item_cond9transformEM4ItemFPS0_PcES2_
081162f0 T _ZN10Item_equal4walkEM4ItemFbPcES1_
08116390 T _ZN9Item_cond4walkEM4ItemFbPcES1_
08116430 T _ZN12Item_func_ne12negated_itemEv
08116530 T _ZNK10Eq_creator6createEP4ItemS1_
08116630 T _ZN12Item_func_le12negated_itemEv
08116730 T _ZNK10Gt_creator6createEP4ItemS1_
08116830 T _ZN12Item_func_gt12negated_itemEv
08116930 T _ZNK10Le_creator6createEP4ItemS1_
08116a30 T _ZN12Item_func_ge12negated_itemEv
08116b30 T _ZNK10Lt_creator6createEP4ItemS1_
08116c30 T _ZN12Item_func_lt12negated_itemEv
08116d30 T _ZNK10Ge_creator6createEP4ItemS1_
08116e30 T _ZN12Item_func_eq12negated_itemEv
08116f30 T _ZNK10Ne_creator6createEP4ItemS1_
08117030 T _ZN10Item_equalC1EPS_
08117140 T _ZN10Item_equalC2EPS_
08117250 T _ZN10Item_equalC1EP4ItemP10Item_field
08117300 T _ZN10Item_equalC2EP4ItemP10Item_field
081173b0 T _ZN10Item_equalC1EP10Item_fieldS1_
08117480 T _ZN10Item_equalC2EP10Item_fieldS1_
08117550 T _Z15and_expressionsP4ItemS0_PS0_
08117720 T _ZN19Item_func_isnotnull15neg_transformerEP3THD
08117790 T _ZN16Item_func_isnull15neg_transformerEP3THD
08117800 T _ZN9Item_cond13neg_argumentsEP3THD
081178d0 T _ZN12Item_cond_or15neg_transformerEP3THD
08117990 T _ZN13Item_cond_and15neg_transformerEP3THD
08117a20 T _ZN15Item_func_regex7cleanupEv
08117a60 T _ZN14Arg_comparator23compare_e_binary_stringEv
08117af0 T _ZN15Item_func_regex7val_intEv
08117e20 T _ZN12cmp_item_row3cmpEP4Item
08117f00 T _ZN12cmp_item_row23store_value_by_templateEP8cmp_itemP4Item
08118030 T _ZN15Item_func_regex10fix_fieldsEP3THDPP4Item
081183f0 T _ZN12Item_func_if18fix_length_and_decEv
081185b0 T _ZN12Item_func_in10fix_fieldsEP3THDPP4Item
08118660 T _ZN12Item_func_if10fix_fieldsEP3THDPP4Item
08118700 T _ZN17Item_func_between10fix_fieldsEP3THDPP4Item
081187b0 T _ZN14Item_func_like10fix_fieldsEP3THDPP4Item
08118b00 T _ZN19Item_func_isnotnull5printEP6String
08118b80 T _ZN14Item_func_case5printEP6String
08118d70 T _ZN17Item_func_between5printEP6String
08118ea0 T _ZN9Item_cond14split_sum_funcEP3THDPP4ItemR4ListIS2_E
08118f20 T _ZN9Item_cond10fix_fieldsEP3THDPP4Item
081191a0 T _ZN14Item_func_case10fix_fieldsEP3THDPP4Item
08119200 T _ZN9Item_condC1EP3THDPS_
08119270 T _ZN9Item_condC2EP3THDPS_
081192e0 T _ZN12Item_func_in5printEP6String
081193c0 t _Z21convert_constant_itemP3THDP5FieldPP4Item
081194e0 t _Z12agg_cmp_typeP3THDP11Item_resultPP4Itemj
081195c0 T _ZN14Item_func_case18fix_length_and_decEv
081197b0 T _ZN17Item_func_between18fix_length_and_decEv
08119850 T _ZN16cmp_item_decimal7compareEP8cmp_item
08119870 T _ZN16cmp_item_decimal3cmpEP4Item
081198d0 t _Z11cmp_decimalPvP10my_decimalS1_
08119900 T _ZN17Item_func_between7val_intEv
08119e80 T _ZN14Arg_comparator17compare_e_decimalEv
08119f50 T _ZN14Arg_comparator15compare_decimalEv
0811a000 T _ZN12cmp_item_row11store_valueEP4Item
0811a140 T _ZN6in_row9get_valueEP4Item
0811a180 T _ZN6in_rowC1EjP4Item
0811a240 T _ZN6in_rowC2EjP4Item
0811a300 T _ZN10in_decimalC1Ej
0811a370 T _ZN10in_decimalC2Ej
0811a3e0 T _ZN9in_doubleC1Ej
0811a440 T _ZN9in_doubleC2Ej
0811a4a0 T _ZN11in_longlongC1Ej
0811a500 T _ZN11in_longlongC2Ej
0811a560 T _ZN9in_stringC1EjPFiPKvS1_S1_EP15charset_info_st
0811a5d0 T _ZN12Item_func_in18fix_length_and_decEv
0811a880 T _ZN9in_stringC2EjPFiPKvS1_S1_EP15charset_info_st
0811a8f0 T _ZN9in_string3setEjP4Item
0811a9c0 T _ZN18Item_func_coalesce18fix_length_and_decEv
0811aa90 T _ZN14Item_func_case9find_itemEP6String
0811ad60 T _ZN14Item_func_case11val_decimalEP10my_decimal
0811ae50 T _ZN14Item_func_case8val_realEv
0811af40 T _ZN14Item_func_case7val_intEv
0811b030 T _ZN14Item_func_case7val_strEP6String
0811b090 T _ZN16Item_func_ifnull15tmp_table_fieldEP8st_table
0811b0a0 T _ZN16Item_func_ifnull18fix_length_and_decEv
0811b1e0 T _ZN18Item_func_interval7val_intEv
0811b4e0 T _ZN17Item_in_optimizer8fix_leftEP3THDPP4Item
0811b6f0 T _ZN17Item_in_optimizer10fix_fieldsEP3THDPP4Item
0811b860 T _ZN14Arg_comparator21compare_binary_stringEv
0811b920 T _ZN14Arg_comparator16set_compare_funcEP15Item_bool_func211Item_result
0811be80 T _ZN10Item_equal3addEP4Item
0811c010 T _ZN10Item_equal5mergeEPS_
0811c080 T _ZN15Item_bool_func218fix_length_and_decEv
0811c2d0 T _ZN16Item_func_nullif18fix_length_and_decEv
0811c370 T _ZN15Item_func_equal18fix_length_and_decEv
0811c390 W _ZNK16Item_func_bit_or9func_nameEv
0811c3a0 W _ZNK17Item_func_bit_and9func_nameEv
0811c3b0 W _ZN14Item_bool_func12is_bool_funcEv
0811c3c0 W _ZN14Item_bool_func18fix_length_and_decEv
0811c3e0 W _ZNK14Item_bool_func17decimal_precisionEv
0811c3f0 W _ZNK17Item_in_optimizer9func_nameEv
0811c400 W _ZNK10Eq_creator6symbolEb
0811c420 W _ZNK10Eq_creator7eqne_opEv
0811c430 W _ZNK10Eq_creator4l_opEv
0811c440 W _ZNK10Ne_creator6symbolEb
0811c460 W _ZNK10Ne_creator7eqne_opEv
0811c470 W _ZNK10Ne_creator4l_opEv
0811c480 W _ZNK10Gt_creator6symbolEb
0811c4a0 W _ZNK10Gt_creator7eqne_opEv
0811c4b0 W _ZNK10Gt_creator4l_opEv
0811c4c0 W _ZNK10Lt_creator6symbolEb
0811c4e0 W _ZNK10Lt_creator7eqne_opEv
0811c4f0 W _ZNK10Lt_creator4l_opEv
0811c500 W _ZNK10Ge_creator6symbolEb
0811c520 W _ZNK10Ge_creator7eqne_opEv
0811c530 W _ZNK10Ge_creator4l_opEv
0811c540 W _ZNK10Le_creator6symbolEb
0811c560 W _ZNK10Le_creator7eqne_opEv
0811c570 W _ZNK10Le_creator4l_opEv
0811c580 W _ZNK15Item_bool_func215select_optimizeEv
0811c590 W _ZNK15Item_bool_func212rev_functypeEv
0811c5a0 W _ZNK15Item_bool_func213have_rev_funcEv
0811c5c0 W _ZN15Item_bool_func27is_nullEv
0811c620 W _ZN15Item_bool_func212is_bool_funcEv
0811c630 W _ZN15Item_bool_func217compare_collationEv
0811c640 W _ZNK15Item_bool_func217decimal_precisionEv
0811c650 W _ZN15Item_bool_func214top_level_itemEv
0811c660 W _ZNK13Item_func_not8functypeEv
0811c670 W _ZNK13Item_func_not9func_nameEv
0811c680 W _ZN17Item_func_not_all14top_level_itemEv
0811c690 W _ZNK17Item_func_not_all8functypeEv
0811c6a0 W _ZNK17Item_func_not_all9func_nameEv
0811c6b0 W _ZNK17Item_func_nop_all9func_nameEv
0811c6c0 W _ZNK12Item_func_eq8functypeEv
0811c6d0 W _ZNK12Item_func_eq12rev_functypeEv
0811c6e0 W _ZNK12Item_func_eq13eq_cmp_resultEv
0811c6f0 W _ZNK12Item_func_eq9func_nameEv
0811c700 W _ZNK15Item_func_equal15not_null_tablesEv
0811c710 W _ZNK15Item_func_equal8functypeEv
0811c720 W _ZNK15Item_func_equal12rev_functypeEv
0811c730 W _ZNK15Item_func_equal13eq_cmp_resultEv
0811c740 W _ZNK15Item_func_equal9func_nameEv
0811c750 W _ZN15Item_func_equal15neg_transformerEP3THD
0811c760 W _ZNK12Item_func_ge8functypeEv
0811c770 W _ZNK12Item_func_ge12rev_functypeEv
0811c780 W _ZNK12Item_func_ge13eq_cmp_resultEv
0811c790 W _ZNK12Item_func_ge9func_nameEv
0811c7a0 W _ZNK12Item_func_gt8functypeEv
0811c7b0 W _ZNK12Item_func_gt12rev_functypeEv
0811c7c0 W _ZNK12Item_func_gt13eq_cmp_resultEv
0811c7d0 W _ZNK12Item_func_gt9func_nameEv
0811c7e0 W _ZNK12Item_func_le8functypeEv
0811c7f0 W _ZNK12Item_func_le12rev_functypeEv
0811c800 W _ZNK12Item_func_le13eq_cmp_resultEv
0811c810 W _ZNK12Item_func_le9func_nameEv
0811c820 W _ZNK12Item_func_lt8functypeEv
0811c830 W _ZNK12Item_func_lt12rev_functypeEv
0811c840 W _ZNK12Item_func_lt13eq_cmp_resultEv
0811c850 W _ZNK12Item_func_lt9func_nameEv
0811c860 W _ZNK12Item_func_ne8functypeEv
0811c870 W _ZNK12Item_func_ne13eq_cmp_resultEv
0811c880 W _ZNK12Item_func_ne15select_optimizeEv
0811c890 W _ZNK12Item_func_ne9func_nameEv
0811c8a0 W _ZN17Item_func_opt_neg14top_level_itemEv
0811c8b0 W _ZN17Item_func_opt_neg15neg_transformerEP3THD
0811c8c0 W _ZNK17Item_func_between15select_optimizeEv
0811c8d0 W _ZNK17Item_func_between8functypeEv
0811c8e0 W _ZNK17Item_func_between9func_nameEv
0811c8f0 W _ZN17Item_func_between12is_bool_funcEv
0811c900 W _ZN17Item_func_between17compare_collationEv
0811c910 W _ZNK17Item_func_between17decimal_precisionEv
0811c920 W _ZNK16Item_func_strcmp15select_optimizeEv
0811c930 W _ZNK16Item_func_strcmp9func_nameEv
0811c940 W _ZNK18Item_func_interval9func_nameEv
0811c950 W _ZNK18Item_func_interval17decimal_precisionEv
0811c960 W _ZN18Item_func_coalesce13find_num_typeEv
0811c970 W _ZNK18Item_func_coalesce11result_typeEv
0811c980 W _ZNK18Item_func_coalesce9func_nameEv
0811c990 W _ZNK18Item_func_coalesce15not_null_tablesEv
0811c9a0 W _ZNK16Item_func_ifnull9func_nameEv
0811c9b0 W _ZNK12Item_func_if11result_typeEv
0811c9c0 W _ZNK12Item_func_if9func_nameEv
0811c9d0 W _ZNK16Item_func_nullif11result_typeEv
0811c9e0 W _ZNK16Item_func_nullif17decimal_precisionEv
0811ca00 W _ZNK16Item_func_nullif9func_nameEv
0811ca10 W _ZNK16Item_func_nullif15not_null_tablesEv
0811ca20 W _ZNK14Item_func_case15not_null_tablesEv
0811ca30 W _ZNK14Item_func_case11result_typeEv
0811ca40 W _ZNK14Item_func_case9func_nameEv
0811ca50 W _ZN14Item_func_case17compare_collationEv
0811ca60 W _ZN9in_vectorD1Ev
0811ca70 W _ZN9in_vectorD0Ev
0811ca80 W _ZN11in_longlongD1Ev
0811ca90 W _ZN11in_longlongD0Ev
0811caa0 W _ZN9in_doubleD1Ev
0811cab0 W _ZN9in_doubleD0Ev
0811cac0 W _ZN10in_decimalD1Ev
0811cad0 W _ZN10in_decimalD0Ev
0811cae0 W _ZN8cmp_itemD1Ev
0811caf0 W _ZN8cmp_itemD0Ev
0811cb00 W _ZN8cmp_item23store_value_by_templateEPS_P4Item
0811cb20 W _ZN15cmp_item_stringD0Ev
0811cb30 W _ZN15cmp_item_stringD1Ev
0811cb40 W _ZN20cmp_item_sort_string11store_valueEP4Item
0811cb70 W _ZN12cmp_item_intD1Ev
0811cb80 W _ZN12cmp_item_intD0Ev
0811cb90 W _ZN12cmp_item_int11store_valueEP4Item
0811cbb0 W _ZN12cmp_item_int3cmpEP4Item
0811cbe0 W _ZN12cmp_item_int7compareEP8cmp_item
0811cc50 W _ZN13cmp_item_realD1Ev
0811cc60 W _ZN13cmp_item_realD0Ev
0811cc70 W _ZN13cmp_item_real11store_valueEP4Item
0811cc90 W _ZN13cmp_item_real3cmpEP4Item
0811ccc0 W _ZN13cmp_item_real7compareEP8cmp_item
0811cd00 W _ZN16cmp_item_decimalD1Ev
0811cd10 W _ZN16cmp_item_decimalD0Ev
0811cd20 W _ZN30cmp_item_sort_string_in_static11store_valueEP4Item
0811cd50 W _ZN30cmp_item_sort_string_in_static3cmpEP4Item
0811cd60 W _ZNK12Item_func_in17decimal_precisionEv
0811cd70 W _ZNK12Item_func_in15select_optimizeEv
0811cd90 W _ZNK12Item_func_in8functypeEv
0811cda0 W _ZNK12Item_func_in9func_nameEv
0811cdb0 W _ZN12Item_func_in12is_bool_funcEv
0811cdc0 W _ZN12Item_func_in17compare_collationEv
0811cdd0 W _ZNK16Item_func_isnull8functypeEv
0811cde0 W _ZN16Item_func_isnull18update_used_tablesEv
0811ce70 W _ZN16Item_func_isnull18fix_length_and_decEv
0811cea0 W _ZNK16Item_func_isnull9func_nameEv
0811ceb0 W _ZNK16Item_func_isnull15not_null_tablesEv
0811cec0 W _ZNK16Item_func_isnull15select_optimizeEv
0811ced0 W _ZN16Item_func_isnull17compare_collationEv
0811cee0 W _ZNK21Item_is_not_null_test8functypeEv
0811cef0 W _ZNK21Item_is_not_null_test9func_nameEv
0811cf00 W _ZNK21Item_is_not_null_test11used_tablesEv
0811cf20 W _ZNK19Item_func_isnotnull8functypeEv
0811cf30 W _ZN19Item_func_isnotnull18fix_length_and_decEv
0811cf50 W _ZNK19Item_func_isnotnull9func_nameEv
0811cf60 W _ZNK19Item_func_isnotnull15select_optimizeEv
0811cf70 W _ZNK19Item_func_isnotnull15not_null_tablesEv
0811cf90 W _ZN19Item_func_isnotnull17compare_collationEv
0811cfa0 W _ZN19Item_func_isnotnull14top_level_itemEv
0811cfb0 W _ZNK14Item_func_like8functypeEv
0811cfc0 W _ZNK14Item_func_like13eq_cmp_resultEv
0811cfd0 W _ZNK14Item_func_like9func_nameEv
0811cfe0 W _ZNK15Item_func_regex9func_nameEv
0811cff0 W _ZN15Item_func_regex17compare_collationEv
0811d000 W _ZNK9Item_cond4typeEv
0811d010 W _ZN9Item_cond14top_level_itemEv
0811d020 W _ZNK10Item_equal8functypeEv
0811d030 W _ZNK10Item_equal9func_nameEv
0811d040 W _ZNK10Item_equal15select_optimizeEv
0811d050 W _ZN10Item_equal17compare_collationEv
0811d070 W _ZNK13Item_cond_and8functypeEv
0811d080 W _ZNK13Item_cond_and9func_nameEv
0811d090 W _ZNK13Item_cond_and15not_null_tablesEv
0811d0b0 W _ZNK12Item_cond_or8functypeEv
0811d0c0 W _ZNK12Item_cond_or9func_nameEv
0811d0d0 W _ZNK12Item_cond_or15not_null_tablesEv
0811d0f0 W _ZNK13Item_cond_xor8functypeEv
0811d100 W _ZNK13Item_cond_xor4typeEv
0811d110 W _ZNK13Item_cond_xor9func_nameEv
0811d120 W _ZN13Item_cond_xor14top_level_itemEv
0811d130 W _ZN10Item_equalD0Ev
0811d190 W _ZN10Item_equalD1Ev
0811d1f0 W _ZN13Item_cond_xorD0Ev
0811d250 W _ZN13Item_cond_xorD1Ev
0811d2b0 W _ZN12Item_cond_orD0Ev
0811d310 W _ZN12Item_cond_orD1Ev
0811d370 W _ZN13Item_cond_andD0Ev
0811d3d0 W _ZN13Item_cond_andD1Ev
0811d430 W _ZN19Item_func_isnotnullD0Ev
0811d490 W _ZN19Item_func_isnotnullD1Ev
0811d4f0 W _ZN21Item_is_not_null_testD0Ev
0811d550 W _ZN21Item_is_not_null_testD1Ev
0811d5b0 W _ZN16Item_func_isnullD0Ev
0811d610 W _ZN16Item_func_isnullD1Ev
0811d670 W _ZN9Item_condD0Ev
0811d6d0 W _ZN9Item_condD1Ev
0811d730 W _ZN17Item_in_optimizerD0Ev
0811d790 W _ZN17Item_in_optimizerD1Ev
0811d7f0 W _ZN17Item_func_nop_allD0Ev
0811d850 W _ZN17Item_func_nop_allD1Ev
0811d8b0 W _ZN17Item_func_not_allD0Ev
0811d910 W _ZN17Item_func_not_allD1Ev
0811d970 W _ZN13Item_func_notD0Ev
0811d9d0 W _ZN13Item_func_notD1Ev
0811da30 W _ZN14Item_bool_funcD0Ev
0811da90 W _ZN14Item_bool_funcD1Ev
0811daf0 W _ZN17Item_func_bit_andD0Ev
0811db50 W _ZN17Item_func_bit_andD1Ev
0811dbb0 W _ZN16Item_func_bit_orD0Ev
0811dc10 W _ZN16Item_func_bit_orD1Ev
0811dc70 W _ZN12Item_func_inD0Ev
0811dcd0 W _ZN12Item_func_inD1Ev
0811dd30 W _ZN17Item_func_opt_negD0Ev
0811dd90 W _ZN17Item_func_opt_negD1Ev
0811ddf0 W _ZN18Item_func_intervalD0Ev
0811de50 W _ZN18Item_func_intervalD1Ev
0811deb0 W _ZN18Item_func_coalesceD0Ev
0811df10 W _ZN18Item_func_coalesceD1Ev
0811df70 W _ZN16Item_func_ifnullD0Ev
0811dfd0 W _ZN16Item_func_ifnullD1Ev
0811e030 W _ZN12Item_func_ifD0Ev
0811e090 W _ZN12Item_func_ifD1Ev
0811e0f0 W _ZN24Item_bool_rowready_func2D0Ev
0811e1f0 W _ZN24Item_bool_rowready_func2D1Ev
0811e2f0 W _ZN14Item_func_likeD0Ev
0811e3f0 W _ZN14Item_func_likeD1Ev
0811e4f0 W _ZN16Item_func_nullifD0Ev
0811e5f0 W _ZN16Item_func_nullifD1Ev
0811e6f0 W _ZN16Item_func_strcmpD0Ev
0811e7f0 W _ZN16Item_func_strcmpD1Ev
0811e8f0 W _ZN12Item_func_ltD0Ev
0811e9f0 W _ZN12Item_func_ltD1Ev
0811eaf0 W _ZN12Item_func_leD0Ev
0811ebf0 W _ZN12Item_func_leD1Ev
0811ecf0 W _ZN12Item_func_gtD0Ev
0811edf0 W _ZN12Item_func_gtD1Ev
0811eef0 W _ZN12Item_func_geD0Ev
0811eff0 W _ZN12Item_func_geD1Ev
0811f0f0 W _ZN12Item_func_neD0Ev
0811f1f0 W _ZN12Item_func_neD1Ev
0811f2f0 W _ZN15Item_func_equalD0Ev
0811f3f0 W _ZN15Item_func_equalD1Ev
0811f4f0 W _ZN12Item_func_eqD0Ev
0811f5f0 W _ZN12Item_func_eqD1Ev
0811f6f0 W _ZN15Item_func_regexD0Ev
0811f7a0 W _ZN15Item_func_regexD1Ev
0811f850 W _ZN20cmp_item_sort_stringD0Ev
0811f8c0 W _ZN20cmp_item_sort_stringD1Ev
0811f930 W _ZN14Item_func_caseD0Ev
0811f9d0 W _ZN14Item_func_caseD1Ev
0811fa70 W _ZN17Item_func_betweenD0Ev
0811fbb0 W _ZN17Item_func_betweenD1Ev
0811fcf0 W _ZN15Item_bool_func2D0Ev
0811fdf0 W _ZN15Item_bool_func2D1Ev
0811fef0 W _ZN30cmp_item_sort_string_in_staticD0Ev
0811ff60 W _ZN30cmp_item_sort_string_in_staticD1Ev
0811ffd0 W _ZN15Item_func_regex5printEP6String
0811ffe0 W _ZN15Item_bool_func25printEP6String
0811fff0 W _ZN30cmp_item_sort_string_in_static9make_sameEv
08120040 W _ZN12Item_func_in7cleanupEv
081200b0 W _ZN20cmp_item_sort_string7compareEP8cmp_item
081200e0 W _ZN20cmp_item_sort_string3cmpEP4Item
08120180 W _ZN30cmp_item_sort_string_in_static7compareEP8cmp_item
081201b0 W _ZN16Item_func_nullif5printEP6String
081201c0 W _ZN16Item_func_strcmp5printEP6String
081201d0 W _ZN12Item_cond_or20copy_andor_structureEP3THD
08120230 W _ZN13Item_cond_and20copy_andor_structureEP3THD
081202c0 T _ZN13Item_func_md518fix_length_and_decEv
081202d0 T _ZN13Item_func_sha18fix_length_and_decEv
081202e0 T _ZN21Item_func_aes_decrypt18fix_length_and_decEv
08120300 T _ZN17Item_func_reverse18fix_length_and_decEv
08120320 T _ZN13Item_str_func21left_right_max_lengthEv
08120390 T _ZN14Item_func_left18fix_length_and_decEv
081203b0 T _ZN15Item_func_right18fix_length_and_decEv
081203d0 T _ZN16Item_func_substr18fix_length_and_decEv
081204a0 T _ZN16Item_func_encode18fix_length_and_decEv
081204d0 T _ZN17Item_func_soundex18fix_length_and_decEv
08120500 t _Z15soundex_toupperc
08120520 t _Z9get_scodePc
08120550 T _ZN13Item_func_elt8val_realEv
081205b0 T _ZN13Item_func_elt7val_intEv
08120620 T _ZN13Item_func_elt7val_strEP6String
08120690 T _ZN16Item_func_repeat18fix_length_and_decEv
08120760 T _ZN22Item_func_conv_charset18fix_length_and_decEv
08120790 T _ZN23Item_func_set_collation7val_strEP6String
081207e0 T _ZNK23Item_func_set_collation2eqEPK4Itemb
081208c0 T _ZN29Item_func_uncompressed_length7val_intEv
08120930 t _Z5tohexPcjj
08120960 t __tcf_0
081209a0 T _ZN13Item_str_func7val_intEv
08120a50 T _ZN13Item_str_func8val_realEv
08120b00 t _GLOBAL__I__ZN13Item_str_func24check_well_formed_resultEP6String
08120b60 t _Z17set_clock_seq_strv
08120bc0 T _ZN14Item_func_uuid7val_strEP6String
08120e80 T _ZN21Item_func_des_decrypt7val_strEP6String
08120ee0 T _ZN21Item_func_des_encrypt7val_strEP6String
08120f40 T _ZN20Item_func_uncompress7val_strEP6String
081210b0 T _ZN18Item_func_compress7val_strEP6String
081211e0 T _ZN15Item_func_crc327val_intEv
08121240 T _ZN18Item_func_database7val_strEP6String
081212c0 T _ZN15Item_func_quote7val_strEP6String
08121430 T _ZN15Item_func_unhex7val_strEP6String
081215d0 T _ZN17Item_func_soundex7val_strEP6String
08121750 T _ZN14Item_func_user7val_strEP6String
08121840 T _ZN19Item_func_inet_ntoa7val_strEP6String
08121950 T _ZN16Item_func_binary5printEP6String
081219c0 T _ZN20Item_func_export_set18fix_length_and_decEv
08121a60 T _ZN14Item_func_lpad18fix_length_and_decEv
08121b80 T _ZN14Item_func_rpad18fix_length_and_decEv
08121ca0 T _ZN18Item_func_make_set18fix_length_and_decEv
08121da0 T _ZN13Item_func_elt18fix_length_and_decEv
08121e40 T _ZN22Item_func_substr_index18fix_length_and_decEv
08121ea0 T _ZN16Item_func_insert18fix_length_and_decEv
08121f30 T _ZN17Item_func_replace18fix_length_and_decEv
08122030 T _ZN19Item_func_concat_ws18fix_length_and_decEv
081220e0 T _ZN16Item_func_concat18fix_length_and_decEv
081221a0 T _ZN20Item_func_export_set7val_strEP6String
08122560 T _ZN14Item_load_file7val_strEP6String
081227b0 T _ZN14Item_func_conv7val_strEP6String
08122940 T _ZN13Item_func_hex7val_strEP6String
08122af0 T _ZN13Item_str_func24check_well_formed_resultEP6String
08122be0 T _ZN14Item_func_char7val_strEP6String
08122db0 T _ZN19Item_func_collation7val_strEP6String
08122e20 T _ZN17Item_func_charset7val_strEP6String
08122e90 T _ZN22Item_func_conv_charset7val_strEP6String
08122f30 T _ZN23Item_func_set_collation5printEP6String
08122ff0 T _ZN23Item_func_set_collation18fix_length_and_decEv
08123160 T _ZN22Item_func_conv_charset5printEP6String
08123210 T _ZN16Item_func_substr7val_strEP6String
081233d0 T _ZN15Item_func_right7val_strEP6String
081234e0 T _ZN14Item_func_left7val_strEP6String
081235e0 T _ZN14Item_func_lpad7val_strEP6String
08123820 T _ZN14Item_func_rpad7val_strEP6String
08123ad0 T _ZN16Item_func_repeat7val_strEP6String
08123cb0 T _ZN18Item_func_make_set7val_strEP6String
08123e50 T _ZN18Item_func_make_set5printEP6String
08123f10 T _ZN18Item_func_make_set18update_used_tablesEv
08123f70 T _ZN18Item_func_make_set14split_sum_funcEP3THDPP4ItemR4ListIS2_E
08123fe0 T _ZN16Item_func_format5printEP6String
08124100 T _ZN13Item_str_conv7val_strEP6String
08124200 T _ZN17Item_func_reverse7val_strEP6String
08124380 T _ZN16Item_func_format7val_strEP6String
08124610 T _ZN16Item_func_formatC1EP4Itemi
081246b0 T _ZN16Item_func_formatC2EP4Itemi
08124750 T _ZN18Item_func_sysconst22safe_charset_converterEP15charset_info_st
08124960 T _ZN16Item_func_decode7val_strEP6String
08124a00 T _ZN16Item_func_encode7val_strEP6String
08124aa0 T _ZN17Item_func_encrypt7val_strEP6String
08124ca0 T _ZN22Item_func_old_password7val_strEP6String
08124d60 T _ZN22Item_func_old_password5allocEP3THDPKc
08124da0 T _ZN18Item_func_password5allocEP3THDPKc
08124de0 T _ZN18Item_func_password7val_strEP6String
08124ea0 T _ZN14Item_func_trim18fix_length_and_decEv
08124f50 T _ZN14Item_func_trim7val_strEP6String
081253a0 T _ZN15Item_func_rtrim7val_strEP6String
08125870 T _ZN15Item_func_ltrim7val_strEP6String
08125ba0 T _ZN22Item_func_substr_index7val_strEP6String
08125fd0 T _ZN16Item_func_insert7val_strEP6String
081261a0 T _ZN17Item_func_replace7val_strEP6String
081264e0 T _ZN19Item_func_concat_ws7val_strEP6String
08126990 T _ZN16Item_func_concat7val_strEP6String
08126c70 T _ZN21Item_func_aes_decrypt7val_strEP6String
08126db0 T _ZN21Item_func_aes_encrypt18fix_length_and_decEv
08126de0 T _ZN21Item_func_aes_encrypt7val_strEP6String
08126f40 T _ZN13Item_func_sha7val_strEP6String
08127100 T _ZN13Item_func_md57val_strEP6String
08127270 W _ZNK13Item_str_func11result_typeEv
08127280 W _ZNK13Item_func_md59func_nameEv
08127290 W _ZNK13Item_func_sha9func_nameEv
081272a0 W _ZNK21Item_func_aes_encrypt9func_nameEv
081272b0 W _ZNK21Item_func_aes_decrypt9func_nameEv
081272c0 W _ZNK16Item_func_concat9func_nameEv
081272d0 W _ZNK19Item_func_concat_ws9func_nameEv
081272e0 W _ZNK19Item_func_concat_ws15not_null_tablesEv
081272f0 W _ZNK17Item_func_reverse9func_nameEv
08127300 W _ZNK17Item_func_replace9func_nameEv
08127310 W _ZNK16Item_func_insert9func_nameEv
08127320 W _ZNK14Item_func_left9func_nameEv
08127330 W _ZNK15Item_func_right9func_nameEv
08127340 W _ZNK16Item_func_substr9func_nameEv
08127350 W _ZNK22Item_func_substr_index9func_nameEv
08127360 W _ZNK14Item_func_trim9func_nameEv
08127370 W _ZNK15Item_func_ltrim9func_nameEv
08127380 W _ZNK15Item_func_rtrim9func_nameEv
08127390 W _ZN18Item_func_password18fix_length_and_decEv
081273a0 W _ZNK18Item_func_password9func_nameEv
081273b0 W _ZN22Item_func_old_password18fix_length_and_decEv
081273c0 W _ZNK22Item_func_old_password9func_nameEv
081273d0 W _ZN21Item_func_des_encrypt18fix_length_and_decEv
081273f0 W _ZNK21Item_func_des_encrypt9func_nameEv
08127400 W _ZN21Item_func_des_decrypt18fix_length_and_decEv
08127420 W _ZNK21Item_func_des_decrypt9func_nameEv
08127430 W _ZN17Item_func_encrypt18fix_length_and_decEv
08127450 W _ZNK17Item_func_encrypt9func_nameEv
08127460 W _ZNK16Item_func_encode9func_nameEv
08127470 W _ZNK16Item_func_decode9func_nameEv
08127480 W _ZN18Item_func_database18fix_length_and_decEv
081274a0 W _ZNK18Item_func_database9func_nameEv
081274b0 W _ZNK18Item_func_database25fully_qualified_func_nameEv
081274c0 W _ZN14Item_func_user18fix_length_and_decEv
081274e0 W _ZNK14Item_func_user9func_nameEv
08127500 W _ZNK14Item_func_user25fully_qualified_func_nameEv
08127520 W _ZNK17Item_func_soundex9func_nameEv
08127530 W _ZNK13Item_func_elt9func_nameEv
08127540 W _ZNK18Item_func_make_set9func_nameEv
08127550 W _ZNK16Item_func_format9func_nameEv
08127560 W _ZN14Item_func_char18fix_length_and_decEv
08127580 W _ZNK14Item_func_char9func_nameEv
08127590 W _ZNK16Item_func_repeat9func_nameEv
081275a0 W _ZNK14Item_func_rpad9func_nameEv
081275b0 W _ZNK14Item_func_lpad9func_nameEv
081275c0 W _ZNK14Item_func_conv9func_nameEv
081275d0 W _ZNK13Item_func_hex9func_nameEv
081275e0 W _ZNK15Item_func_unhex9func_nameEv
081275f0 W _ZN15Item_func_unhex18fix_length_and_decEv
08127620 W _ZN16Item_func_binary7val_strEP6String
08127670 W _ZN16Item_func_binary18fix_length_and_decEv
08127690 W _ZNK16Item_func_binary9func_nameEv
081276a0 W _ZNK14Item_load_file9func_nameEv
081276b0 W _ZN14Item_load_file18fix_length_and_decEv
081276e0 W _ZNK20Item_func_export_set9func_nameEv
081276f0 W _ZNK19Item_func_inet_ntoa9func_nameEv
08127700 W _ZN19Item_func_inet_ntoa18fix_length_and_decEv
08127720 W _ZNK15Item_func_quote9func_nameEv
08127730 W _ZN15Item_func_quote18fix_length_and_decEv
08127760 W _ZNK22Item_func_conv_charset9func_nameEv
08127770 W _ZNK23Item_func_set_collation9func_nameEv
08127780 W _ZN23Item_func_set_collation21filed_for_view_updateEv
081277a0 W _ZNK17Item_func_charset9func_nameEv
081277b0 W _ZN17Item_func_charset18fix_length_and_decEv
081277d0 W _ZNK17Item_func_charset15not_null_tablesEv
081277e0 W _ZNK19Item_func_collation9func_nameEv
081277f0 W _ZN19Item_func_collation18fix_length_and_decEv
08127810 W _ZNK19Item_func_collation15not_null_tablesEv
08127820 W _ZNK15Item_func_crc329func_nameEv
08127830 W _ZN15Item_func_crc3218fix_length_and_decEv
08127840 W _ZNK29Item_func_uncompressed_length9func_nameEv
08127850 W _ZN29Item_func_uncompressed_length18fix_length_and_decEv
08127860 W _ZN18Item_func_compress18fix_length_and_decEv
08127890 W _ZNK18Item_func_compress9func_nameEv
081278a0 W _ZN20Item_func_uncompress18fix_length_and_decEv
081278b0 W _ZNK20Item_func_uncompress9func_nameEv
081278c0 W _ZN14Item_func_uuid18fix_length_and_decEv
081278f0 W _ZNK14Item_func_uuid9func_nameEv
08127900 W _ZN14Item_func_uuidD0Ev
08127960 W _ZN14Item_func_uuidD1Ev
081279c0 W _ZN19Item_func_inet_ntoaD0Ev
08127a20 W _ZN19Item_func_inet_ntoaD1Ev
08127a80 W _ZN20Item_func_export_setD0Ev
08127ae0 W _ZN20Item_func_export_setD1Ev
08127b40 W _ZN16Item_func_binaryD0Ev
08127ba0 W _ZN16Item_func_binaryD1Ev
08127c00 W _ZN19Item_func_collationD0Ev
08127c60 W _ZN19Item_func_collationD1Ev
08127cc0 W _ZN17Item_func_charsetD0Ev
08127d20 W _ZN17Item_func_charsetD1Ev
08127d80 W _ZN23Item_func_set_collationD0Ev
08127de0 W _ZN23Item_func_set_collationD1Ev
08127e40 W _ZN22Item_func_conv_charsetD0Ev
08127ea0 W _ZN22Item_func_conv_charsetD1Ev
08127f00 W _ZN14Item_func_convD0Ev
08127f60 W _ZN14Item_func_convD1Ev
08127fc0 W _ZN14Item_func_charD0Ev
08128020 W _ZN14Item_func_charD1Ev
08128080 W _ZN13Item_func_eltD0Ev
081280e0 W _ZN13Item_func_eltD1Ev
08128140 W _ZN14Item_func_userD0Ev
081281a0 W _ZN14Item_func_userD1Ev
08128200 W _ZN18Item_func_databaseD0Ev
08128260 W _ZN18Item_func_databaseD1Ev
081282c0 W _ZN18Item_func_sysconstD0Ev
08128320 W _ZN18Item_func_sysconstD1Ev
08128380 W _ZN16Item_func_decodeD0Ev
081283e0 W _ZN16Item_func_decodeD1Ev
08128440 W _ZN16Item_func_encodeD0Ev
081284a0 W _ZN16Item_func_encodeD1Ev
08128500 W _ZN22Item_func_old_passwordD0Ev
08128560 W _ZN22Item_func_old_passwordD1Ev
081285c0 W _ZN18Item_func_passwordD0Ev
08128620 W _ZN18Item_func_passwordD1Ev
08128680 W _ZN17Item_func_reverseD0Ev
081286e0 W _ZN17Item_func_reverseD1Ev
08128740 W _ZN21Item_func_aes_decryptD0Ev
081287a0 W _ZN21Item_func_aes_decryptD1Ev
08128800 W _ZN21Item_func_aes_encryptD0Ev
08128860 W _ZN21Item_func_aes_encryptD1Ev
081288c0 W _ZN13Item_func_shaD0Ev
08128920 W _ZN13Item_func_shaD1Ev
08128980 W _ZN13Item_str_funcD0Ev
081289e0 W _ZN13Item_str_funcD1Ev
08128a40 W _ZN20Item_func_uncompressD0Ev
08128ae0 W _ZN20Item_func_uncompressD1Ev
08128b80 W _ZN18Item_func_compressD0Ev
08128c20 W _ZN18Item_func_compressD1Ev
08128cc0 W _ZN15Item_func_crc32D0Ev
08128d60 W _ZN15Item_func_crc32D1Ev
08128e00 W _ZN29Item_func_uncompressed_lengthD0Ev
08128ea0 W _ZN29Item_func_uncompressed_lengthD1Ev
08128f40 W _ZN15Item_func_quoteD0Ev
08128fe0 W _ZN15Item_func_quoteD1Ev
08129080 W _ZN14Item_load_fileD0Ev
08129120 W _ZN14Item_load_fileD1Ev
081291c0 W _ZN15Item_func_unhexD0Ev
08129260 W _ZN15Item_func_unhexD1Ev
08129300 W _ZN13Item_func_hexD0Ev
081293a0 W _ZN13Item_func_hexD1Ev
08129440 W _ZN14Item_func_lpadD0Ev
08129530 W _ZN14Item_func_lpadD1Ev
08129620 W _ZN14Item_func_rpadD0Ev
08129710 W _ZN14Item_func_rpadD1Ev
08129800 W _ZN16Item_func_repeatD0Ev
081298a0 W _ZN16Item_func_repeatD1Ev
08129940 W _ZN18Item_func_make_setD0Ev
081299e0 W _ZN18Item_func_make_setD1Ev
08129a80 W _ZN16Item_func_formatD0Ev
08129b20 W _ZN16Item_func_formatD1Ev
08129bc0 W _ZN17Item_func_soundexD0Ev
08129c60 W _ZN17Item_func_soundexD1Ev
08129d00 W _ZN17Item_func_encryptD0Ev
08129da0 W _ZN17Item_func_encryptD1Ev
08129e40 W _ZN14Item_func_trimD0Ev
08129f30 W _ZN14Item_func_trimD1Ev
0812a020 W _ZN15Item_func_rtrimD0Ev
0812a110 W _ZN15Item_func_rtrimD1Ev
0812a200 W _ZN15Item_func_ltrimD0Ev
0812a2f0 W _ZN15Item_func_ltrimD1Ev
0812a3e0 W _ZN22Item_func_substr_indexD0Ev
0812a480 W _ZN22Item_func_substr_indexD1Ev
0812a520 W _ZN16Item_func_substrD0Ev
0812a5c0 W _ZN16Item_func_substrD1Ev
0812a660 W _ZN15Item_func_rightD0Ev
0812a700 W _ZN15Item_func_rightD1Ev
0812a7a0 W _ZN14Item_func_leftD0Ev
0812a840 W _ZN14Item_func_leftD1Ev
0812a8e0 W _ZN13Item_str_convD0Ev
0812a980 W _ZN13Item_str_convD1Ev
0812aa20 W _ZN16Item_func_insertD0Ev
0812aac0 W _ZN16Item_func_insertD1Ev
0812ab60 W _ZN17Item_func_replaceD0Ev
0812ac50 W _ZN17Item_func_replaceD1Ev
0812ad40 W _ZN19Item_func_concat_wsD0Ev
0812ade0 W _ZN19Item_func_concat_wsD1Ev
0812ae80 W _ZN21Item_func_des_decryptD0Ev
0812af20 W _ZN21Item_func_des_decryptD1Ev
0812afc0 W _ZN21Item_func_des_encryptD0Ev
0812b060 W _ZN21Item_func_des_encryptD1Ev
0812b100 W _ZN16Item_func_concatD0Ev
0812b1a0 W _ZN16Item_func_concatD1Ev
0812b240 W _ZN13Item_func_md5D0Ev
0812b2e0 W _ZN13Item_func_md5D1Ev
0812b380 W _ZN13Item_func_hex18fix_length_and_decEv
0812b3b0 W _ZN14Item_func_conv18fix_length_and_decEv
0812b3e0 W _ZN16Item_func_format18fix_length_and_decEv
0812b420 W _ZN18Item_func_make_set9transformEM4ItemFPS0_PcES2_
0812b4a0 W _ZN18Item_func_make_set4walkEM4ItemFbPcES1_
0812b530 W _ZN18Item_func_make_set10fix_fieldsEP3THDPP4Item
0812b5d0 T _ZN20Item_func_dayofmonth7val_intEv
0812b610 T _ZN15Item_func_month7val_intEv
0812b650 T _ZN17Item_func_quarter7val_intEv
0812b6a0 T _ZN14Item_func_hour7val_intEv
0812b6e0 T _ZN16Item_func_minute7val_intEv
0812b720 T _ZN16Item_func_second7val_intEv
0812b760 T _Z9week_modej
0812b780 T _ZN14Item_func_year7val_intEv
0812b7c0 T _ZN21Item_func_time_to_sec7val_intEv
0812b820 T _ZN9Item_date7val_intEv
0812b870 T _ZN17Item_func_curdate8get_dateEP13st_mysql_timej
0812b8d0 T _ZN13Item_func_now8get_dateEP13st_mysql_timej
0812b930 T _ZN13Item_func_now13save_in_fieldEP5Fieldb
0812b970 T _ZN23Item_func_sysdate_local18fix_length_and_decEv
0812b990 T _ZN23Item_func_sysdate_local8get_dateEP13st_mysql_timej
0812ba10 T _ZN23Item_func_sysdate_local13save_in_fieldEP5Fieldb
0812ba70 T _ZN21Item_func_sec_to_time7val_intEv
0812bbf0 T _ZNK21Item_func_date_format2eqEPK4Itemb
0812bcb0 T _ZN21Item_func_date_format13format_lengthEPK6String
0812bd30 T _ZN21Item_func_date_format18fix_length_and_decEv
0812bdc0 T _ZN23Item_func_from_unixtime8get_dateEP13st_mysql_timej
0812be40 T _ZN20Item_func_convert_tz18fix_length_and_decEv
0812be60 T _ZNK12Item_extract2eqEPK4Itemb
0812bf00 T _ZNK18Item_char_typecast2eqEPK4Itemb
0812bfa0 T _ZN18Item_time_typecast8get_timeEP13st_mysql_time
0812c010 T _ZN18Item_date_typecast8get_dateEP13st_mysql_timej
0812c080 T _ZN18Item_func_add_time18fix_length_and_decEv
0812c0f0 T _ZN21Item_func_microsecond7val_intEv
0812c130 T _ZN13Item_func_now7val_strEP6String
0812c1a0 T _ZN17Item_func_curtime7val_strEP6String
0812c210 T _ZN21Item_func_str_to_date15tmp_table_fieldEP8st_table
0812c410 T _ZN18Item_func_last_day8get_dateEP13st_mysql_timej
0812c490 t _Z13make_datetime22date_time_format_typesP13st_mysql_timeP6String
0812c6b0 T _ZN18Item_time_typecast7val_strEP6String
0812c720 T _ZN22Item_datetime_typecast7val_strEP6String
0812c790 T _ZN12Item_extract18fix_length_and_decEv
0812c870 T _ZN22Item_date_add_interval18fix_length_and_decEv
0812c920 t _Z14calc_time_diffP13st_mysql_timeS0_iPxPl
0812cb10 T _ZN24Item_func_timestamp_diff7val_intEv
0812cff0 T _ZN19Item_func_dayofyear7val_intEv
0812d090 T _ZN17Item_func_to_days7val_intEv
0812d100 T _ZN19Item_func_from_days8get_dateEP13st_mysql_timej
0812d1a0 T _ZN17Item_func_weekday7val_intEv
0812d250 t _Z17extract_date_timeP19st_date_time_formatPKcjP13st_mysql_time25enum_mysql_timestamp_typePS2_S2_
0812ddc0 T _ZN21Item_func_str_to_date8get_dateEP13st_mysql_timej
0812dff0 T _ZN21Item_func_str_to_date7val_strEP6String
0812e060 T _ZN23Item_func_from_unixtime18fix_length_and_decEv
0812e0a0 T _ZN17Item_func_now_utc17store_now_in_TIMEEP13st_mysql_time
0812e0e0 T _ZN19Item_func_now_local17store_now_in_TIMEEP13st_mysql_time
0812e130 T _ZN21Item_func_curtime_utc17store_now_in_TIMEEP13st_mysql_time
0812e170 T _ZN23Item_func_curtime_local17store_now_in_TIMEEP13st_mysql_time
0812e1c0 T _ZN21Item_func_curdate_utc17store_now_in_TIMEEP13st_mysql_time
0812e200 T _ZN23Item_func_curdate_local17store_now_in_TIMEEP13st_mysql_time
0812e250 T _ZN21Item_func_str_to_date18fix_length_and_decEv
0812e470 T _ZN20Item_func_get_format5printEP6String
0812e590 T _ZN24Item_func_timestamp_diff5printEP6String
0812e740 T _ZN18Item_func_add_time5printEP6String
0812e850 T _ZN13Item_typecast5printEP6String
0812e900 T _ZN12Item_extract5printEP6String
0812e9b0 T _ZN22Item_date_add_interval5printEP6String
0812eae0 T _ZN17Item_func_dayname7val_strEP6String
0812eb70 T _ZN19Item_func_monthname7val_strEP6String
0812ec10 T _ZN20Item_func_get_format7val_strEP6String
0812ed30 T _ZN18Item_func_maketime7val_strEP6String
0812ee40 T _ZN21Item_func_sec_to_time7val_strEP6String
0812ef50 T _ZN18Item_func_timediff7val_strEP6String
0812f0b0 T _ZN18Item_func_add_time7val_strEP6String
0812f360 T _ZN18Item_func_makedate7val_strEP6String
0812f450 T _ZN18Item_date_typecast7val_strEP6String
0812f4f0 T _ZN17Item_func_curdate7val_strEP6String
0812f550 T _ZN9Item_date7val_strEP6String
0812f5d0 T _ZN18Item_char_typecast18fix_length_and_decEv
0812f690 T _ZN18Item_char_typecast7val_strEP6String
0812f900 T _ZN18Item_char_typecast5printEP6String
0812fae0 T _ZN12Item_extract7val_intEv
0812ff70 T _ZN18Item_func_yearweek7val_intEv
08130000 T _ZN14Item_func_week7val_intEv
08130080 t _Z17get_interval_infoPKcjP15charset_info_stjPyb
081302c0 T _ZN22Item_date_add_interval8get_dateEP13st_mysql_timej
08130d30 T _ZN22Item_date_add_interval7val_intEv
08130e40 T _ZN22Item_date_add_interval7val_strEP6String
08130eb0 T _ZN20Item_func_convert_tz7cleanupEv
08130ed0 T _ZN20Item_func_convert_tz8get_dateEP13st_mysql_timej
081310d0 T _ZN20Item_func_convert_tz7val_intEv
08131120 T _ZN23Item_func_from_unixtime7val_intEv
08131170 T _ZN23Item_func_sysdate_local8val_realEv
081311b0 T _ZN23Item_func_sysdate_local7val_intEv
081311e0 T _ZN20Item_func_convert_tz7val_strEP6String
08131260 T _ZN23Item_func_from_unixtime7val_strEP6String
081312e0 T _ZN20Item_func_convert_tz10fix_fieldsEP3THDPP4Item
08131390 T _ZN23Item_func_sysdate_local7val_strEP6String
08131420 T _ZN13Item_func_now18fix_length_and_decEv
08131480 T _ZN23Item_func_sysdate_local17store_now_in_TIMEEP13st_mysql_time
081314d0 T _ZN17Item_func_curtime18fix_length_and_decEv
08131530 T _ZN17Item_func_curdate18fix_length_and_decEv
081315a0 T _ZN9Item_date13save_in_fieldEP5Fieldb
08131610 T _ZN24Item_func_unix_timestamp7val_intEv
08131710 T _ZN21Item_func_period_diff7val_intEv
081317a0 T _ZN20Item_func_period_add7val_intEv
08131830 T _Z14make_date_timeP19st_date_time_formatP13st_mysql_time25enum_mysql_timestamp_typeP6String
08132040 T _ZN21Item_func_date_format7val_strEP6String
081321b0 W _ZNK20Item_func_period_add9func_nameEv
081321c0 W _ZN20Item_func_period_add18fix_length_and_decEv
081321d0 W _ZNK21Item_func_period_diff9func_nameEv
081321e0 W _ZN21Item_func_period_diff18fix_length_and_decEv
08132200 W _ZNK17Item_func_to_days9func_nameEv
08132210 W _ZN17Item_func_to_days18fix_length_and_decEv
08132230 W _ZNK20Item_func_dayofmonth9func_nameEv
08132240 W _ZN20Item_func_dayofmonth18fix_length_and_decEv
08132260 W _ZNK15Item_func_month9func_nameEv
08132270 W _ZNK15Item_func_month11result_typeEv
08132280 W _ZN15Item_func_month18fix_length_and_decEv
081322a0 W _ZNK19Item_func_monthname9func_nameEv
081322b0 W _ZNK19Item_func_monthname11result_typeEv
081322c0 W _ZN19Item_func_monthname18fix_length_and_decEv
081322f0 W _ZNK19Item_func_dayofyear9func_nameEv
08132300 W _ZN19Item_func_dayofyear18fix_length_and_decEv
08132320 W _ZNK14Item_func_hour9func_nameEv
08132330 W _ZN14Item_func_hour18fix_length_and_decEv
08132350 W _ZNK16Item_func_minute9func_nameEv
08132360 W _ZN16Item_func_minute18fix_length_and_decEv
08132380 W _ZNK17Item_func_quarter9func_nameEv
08132390 W _ZN17Item_func_quarter18fix_length_and_decEv
081323b0 W _ZNK16Item_func_second9func_nameEv
081323c0 W _ZN16Item_func_second18fix_length_and_decEv
081323e0 W _ZNK14Item_func_week9func_nameEv
081323f0 W _ZN14Item_func_week18fix_length_and_decEv
08132410 W _ZNK18Item_func_yearweek9func_nameEv
08132420 W _ZN18Item_func_yearweek18fix_length_and_decEv
08132440 W _ZNK14Item_func_year9func_nameEv
08132450 W _ZN14Item_func_year18fix_length_and_decEv
08132470 W _ZN17Item_func_weekday8val_realEv
08132490 W _ZNK17Item_func_weekday9func_nameEv
081324b0 W _ZNK17Item_func_weekday11result_typeEv
081324c0 W _ZN17Item_func_weekday18fix_length_and_decEv
081324e0 W _ZNK17Item_func_dayname9func_nameEv
081324f0 W _ZNK17Item_func_dayname11result_typeEv
08132500 W _ZN17Item_func_dayname18fix_length_and_decEv
08132520 W _ZNK24Item_func_unix_timestamp9func_nameEv
08132530 W _ZN24Item_func_unix_timestamp18fix_length_and_decEv
08132550 W _ZNK21Item_func_time_to_sec9func_nameEv
08132560 W _ZN21Item_func_time_to_sec18fix_length_and_decEv
08132580 W _ZNK9Item_date11result_typeEv
08132590 W _ZNK9Item_date10field_typeEv
081325a0 W _ZN9Item_date8val_realEv
081325c0 W _ZNK9Item_date9func_nameEv
081325d0 W _ZN9Item_date18fix_length_and_decEv
081325f0 W _ZNK14Item_date_func10field_typeEv
08132600 W _ZNK17Item_func_curtime11result_typeEv
08132610 W _ZNK17Item_func_curtime10field_typeEv
08132620 W _ZN17Item_func_curtime8val_realEv
08132630 W _ZN17Item_func_curtime7val_intEv
08132640 W _ZNK23Item_func_curtime_local9func_nameEv
08132650 W _ZNK21Item_func_curtime_utc9func_nameEv
08132660 W _ZN17Item_func_curdate7val_intEv
08132670 W _ZNK23Item_func_curdate_local9func_nameEv
08132680 W _ZNK21Item_func_curdate_utc9func_nameEv
08132690 W _ZNK13Item_func_now11result_typeEv
081326a0 W _ZN13Item_func_now8val_realEv
081326b0 W _ZN13Item_func_now7val_intEv
081326c0 W _ZNK19Item_func_now_local9func_nameEv
081326d0 W _ZNK19Item_func_now_local8functypeEv
081326e0 W _ZNK17Item_func_now_utc9func_nameEv
081326f0 W _ZNK23Item_func_sysdate_local10const_itemEv
08132700 W _ZNK23Item_func_sysdate_local9func_nameEv
08132710 W _ZNK19Item_func_from_days9func_nameEv
08132720 W _ZNK21Item_func_date_format9func_nameEv
08132740 W _ZNK23Item_func_from_unixtime9func_nameEv
08132750 W _ZN20Item_func_convert_tz8val_realEv
08132770 W _ZNK20Item_func_convert_tz9func_nameEv
08132780 W _ZN21Item_func_sec_to_time18fix_length_and_decEv
081327a0 W _ZNK21Item_func_sec_to_time10field_typeEv
081327b0 W _ZNK21Item_func_sec_to_time9func_nameEv
081327c0 W _ZNK22Item_date_add_interval9func_nameEv
081327d0 W _ZNK22Item_date_add_interval10field_typeEv
081327e0 W _ZN22Item_date_add_interval8val_realEv
08132800 W _ZNK12Item_extract8functypeEv
08132810 W _ZNK12Item_extract9func_nameEv
08132820 W _ZN13Item_typecast7val_strEP6String
08132870 W _ZN13Item_typecast18fix_length_and_decEv
08132890 W _ZN24Item_typecast_maybe_null18fix_length_and_decEv
081328b0 W _ZNK18Item_char_typecast8functypeEv
081328c0 W _ZNK18Item_char_typecast9func_nameEv
081328d0 W _ZNK18Item_char_typecast9cast_typeEv
081328e0 W _ZNK18Item_date_typecast9func_nameEv
081328f0 W _ZNK18Item_date_typecast9cast_typeEv
08132900 W _ZNK18Item_date_typecast10field_typeEv
08132910 W _ZN18Item_date_typecast18fix_length_and_decEv
08132930 W _ZNK18Item_time_typecast9func_nameEv
08132940 W _ZNK18Item_time_typecast9cast_typeEv
08132950 W _ZNK18Item_time_typecast10field_typeEv
08132960 W _ZNK22Item_datetime_typecast9func_nameEv
08132970 W _ZNK22Item_datetime_typecast9cast_typeEv
08132980 W _ZNK22Item_datetime_typecast10field_typeEv
08132990 W _ZNK18Item_func_makedate9func_nameEv
081329a0 W _ZNK18Item_func_makedate10field_typeEv
081329b0 W _ZN18Item_func_makedate18fix_length_and_decEv
081329d0 W _ZNK18Item_func_add_time10field_typeEv
081329e0 W _ZNK18Item_func_add_time9func_nameEv
081329f0 W _ZNK18Item_func_timediff9func_nameEv
08132a00 W _ZNK18Item_func_timediff10field_typeEv
08132a10 W _ZN18Item_func_timediff18fix_length_and_decEv
08132a30 W _ZNK18Item_func_maketime9func_nameEv
08132a40 W _ZNK18Item_func_maketime10field_typeEv
08132a50 W _ZN18Item_func_maketime18fix_length_and_decEv
08132a70 W _ZNK21Item_func_microsecond9func_nameEv
08132a80 W _ZN21Item_func_microsecond18fix_length_and_decEv
08132a90 W _ZNK24Item_func_timestamp_diff9func_nameEv
08132aa0 W _ZN24Item_func_timestamp_diff18fix_length_and_decEv
08132ab0 W _ZNK20Item_func_get_format9func_nameEv
08132ac0 W _ZN20Item_func_get_format18fix_length_and_decEv
08132ae0 W _ZNK21Item_func_str_to_date9func_nameEv
08132af0 W _ZNK21Item_func_str_to_date10field_typeEv
08132b00 W _ZNK18Item_func_last_day9func_nameEv
08132b10 W _ZN15Item_func_month8val_realEv
08132b30 W _ZN21Item_func_sec_to_time8val_realEv
08132b50 W _ZN18Item_func_last_dayD0Ev
08132bb0 W _ZN18Item_func_last_dayD1Ev
08132c10 W _ZN21Item_func_curdate_utcD0Ev
08132c70 W _ZN21Item_func_curdate_utcD1Ev
08132cd0 W _ZN23Item_func_curdate_localD0Ev
08132d30 W _ZN23Item_func_curdate_localD1Ev
08132d90 W _ZN17Item_func_curdateD0Ev
08132df0 W _ZN17Item_func_curdateD1Ev
08132e50 W _ZN19Item_func_from_daysD0Ev
08132eb0 W _ZN19Item_func_from_daysD1Ev
08132f10 W _ZN21Item_func_str_to_dateD0Ev
08132f70 W _ZN21Item_func_str_to_dateD1Ev
08132fd0 W _ZN20Item_func_get_formatD0Ev
08133030 W _ZN20Item_func_get_formatD1Ev
08133090 W _ZN18Item_func_maketimeD0Ev
081330f0 W _ZN18Item_func_maketimeD1Ev
08133150 W _ZN18Item_func_timediffD0Ev
081331b0 W _ZN18Item_func_timediffD1Ev
08133210 W _ZN18Item_func_add_timeD0Ev
08133270 W _ZN18Item_func_add_timeD1Ev
081332d0 W _ZN18Item_func_makedateD0Ev
08133330 W _ZN18Item_func_makedateD1Ev
08133390 W _ZN18Item_date_typecastD0Ev
081333f0 W _ZN18Item_date_typecastD1Ev
08133450 W _ZN18Item_time_typecastD0Ev
081334b0 W _ZN18Item_time_typecastD1Ev
08133510 W _ZN22Item_datetime_typecastD0Ev
08133570 W _ZN22Item_datetime_typecastD1Ev
081335d0 W _ZN24Item_typecast_maybe_nullD0Ev
08133630 W _ZN24Item_typecast_maybe_nullD1Ev
08133690 W _ZN13Item_typecastD0Ev
081336f0 W _ZN13Item_typecastD1Ev
08133750 W _ZN20Item_func_convert_tzD0Ev
081337b0 W _ZN20Item_func_convert_tzD1Ev
08133810 W _ZN23Item_func_from_unixtimeD0Ev
08133870 W _ZN23Item_func_from_unixtimeD1Ev
081338d0 W _ZN23Item_func_sysdate_localD0Ev
08133930 W _ZN23Item_func_sysdate_localD1Ev
08133990 W _ZN17Item_func_now_utcD0Ev
081339f0 W _ZN17Item_func_now_utcD1Ev
08133a50 W _ZN19Item_func_now_localD0Ev
08133ab0 W _ZN19Item_func_now_localD1Ev
08133b10 W _ZN13Item_func_nowD0Ev
08133b70 W _ZN13Item_func_nowD1Ev
08133bd0 W _ZN14Item_date_funcD0Ev
08133c30 W _ZN14Item_date_funcD1Ev
08133c90 W _ZN21Item_func_sec_to_timeD0Ev
08133cf0 W _ZN21Item_func_sec_to_timeD1Ev
08133d50 W _ZN24Item_func_timestamp_diffD0Ev
08133db0 W _ZN24Item_func_timestamp_diffD1Ev
08133e10 W _ZN21Item_func_microsecondD0Ev
08133e70 W _ZN21Item_func_microsecondD1Ev
08133ed0 W _ZN21Item_func_time_to_secD0Ev
08133f30 W _ZN21Item_func_time_to_secD1Ev
08133f90 W _ZN14Item_func_yearD0Ev
08133ff0 W _ZN14Item_func_yearD1Ev
08134050 W _ZN18Item_func_yearweekD0Ev
081340b0 W _ZN18Item_func_yearweekD1Ev
08134110 W _ZN14Item_func_weekD0Ev
08134170 W _ZN14Item_func_weekD1Ev
081341d0 W _ZN16Item_func_secondD0Ev
08134230 W _ZN16Item_func_secondD1Ev
08134290 W _ZN16Item_func_minuteD0Ev
081342f0 W _ZN16Item_func_minuteD1Ev
08134350 W _ZN14Item_func_hourD0Ev
081343b0 W _ZN14Item_func_hourD1Ev
08134410 W _ZN17Item_func_quarterD0Ev
08134470 W _ZN17Item_func_quarterD1Ev
081344d0 W _ZN20Item_func_dayofmonthD0Ev
08134530 W _ZN20Item_func_dayofmonthD1Ev
08134590 W _ZN19Item_func_dayofyearD0Ev
081345f0 W _ZN19Item_func_dayofyearD1Ev
08134650 W _ZN17Item_func_to_daysD0Ev
081346b0 W _ZN17Item_func_to_daysD1Ev
08134710 W _ZN21Item_func_period_diffD0Ev
08134770 W _ZN21Item_func_period_diffD1Ev
081347d0 W _ZN20Item_func_period_addD0Ev
08134830 W _ZN20Item_func_period_addD1Ev
08134890 W _ZN21Item_func_curtime_utcD0Ev
081348f0 W _ZN21Item_func_curtime_utcD1Ev
08134950 W _ZN23Item_func_curtime_localD0Ev
081349b0 W _ZN23Item_func_curtime_localD1Ev
08134a10 W _ZN17Item_func_curtimeD0Ev
08134a70 W _ZN17Item_func_curtimeD1Ev
08134ad0 W _ZN9Item_dateD0Ev
08134b30 W _ZN9Item_dateD1Ev
08134b90 W _ZN17Item_func_daynameD0Ev
08134bf0 W _ZN17Item_func_daynameD1Ev
08134c50 W _ZN17Item_func_weekdayD0Ev
08134cb0 W _ZN17Item_func_weekdayD1Ev
08134d10 W _ZN19Item_func_monthnameD0Ev
08134d70 W _ZN19Item_func_monthnameD1Ev
08134dd0 W _ZN15Item_func_monthD0Ev
08134e30 W _ZN15Item_func_monthD1Ev
08134e90 W _ZN18Item_char_typecastD0Ev
08134f30 W _ZN18Item_char_typecastD1Ev
08134fd0 W _ZN12Item_extractD0Ev
08135070 W _ZN12Item_extractD1Ev
08135110 W _ZN22Item_date_add_intervalD0Ev
081351b0 W _ZN22Item_date_add_intervalD1Ev
08135250 W _ZN21Item_func_date_formatD0Ev
081352f0 W _ZN21Item_func_date_formatD1Ev
08135390 W _ZN24Item_func_unix_timestampD0Ev
08135430 W _ZN24Item_func_unix_timestampD1Ev
081354d0 W _ZN18Item_func_maketime15tmp_table_fieldEP8st_table
08135550 W _ZN18Item_func_timediff15tmp_table_fieldEP8st_table
081355d0 W _ZN18Item_time_typecast15tmp_table_fieldEP8st_table
08135650 W _ZN21Item_func_sec_to_time15tmp_table_fieldEP8st_table
081356d0 W _ZN17Item_func_curtime15tmp_table_fieldEP8st_table
08135750 W _ZN22Item_datetime_typecast15tmp_table_fieldEP8st_table
081357d0 W _ZN14Item_date_func15tmp_table_fieldEP8st_table
08135850 W _ZN18Item_func_add_time15tmp_table_fieldEP8st_table
081359d0 W _ZN18Item_func_makedate15tmp_table_fieldEP8st_table
08135a50 W _ZN18Item_date_typecast15tmp_table_fieldEP8st_table
08135ad0 W _ZN9Item_date15tmp_table_fieldEP8st_table
08135b50 W _ZN23Item_func_sysdate_local18update_used_tablesEv
08135b80 W _ZN17Item_func_weekday7val_strEP6String
08135bd0 W _ZN15Item_func_month7val_strEP6String
08135c20 W _ZN23Item_func_from_unixtime8val_realEv
08135c40 T _Z16sql_element_freePv
08135c50 T _Z9sql_allocj
08135c80 T _Z24sql_strmake_with_convertPKcjP15charset_info_stjS2_Pj
08135d40 T _Z10sql_memdupPKvj
08135d80 T _Z11sql_strmakePKcj
08135dd0 T _Z10sql_strdupPKc
08135e20 T _Z10sql_callocj
08135e60 T _Z14init_sql_allocP11st_mem_rootjj
08135e90 T sql_alloc_error_handler
08135ed0 T _Z20create_func_last_dayP4Item
08135f10 T _Z21create_func_from_daysP4Item
08135f50 T _Z19create_func_to_daysP4Item
08135f90 T _Z20create_func_isclosedP4Item
08135fd0 T _Z20create_func_issimpleP4Item
08136010 T _Z19create_func_isemptyP4Item
08136050 T _Z18create_func_isnullP4Item
08136090 T _Z16create_func_yearP4Item
081360d0 T _Z23create_func_time_to_secP4Item
08136110 T _Z16create_func_signP4Item
08136150 T _Z24create_func_coercibilityP4Item
08136190 T _Z21create_func_inet_atonP4Item
081361d0 T _Z21create_func_dayofyearP4Item
08136210 T _Z22create_func_dayofmonthP4Item
08136250 T _Z21create_func_bit_countP4Item
08136290 T _Z25create_func_geometry_typeP4Item
081362d0 T _Z20create_func_envelopeP4Item
08136310 T _Z20create_func_centroidP4Item
08136350 T _Z24create_func_exteriorringP4Item
08136390 T _Z20create_func_endpointP4Item
081363d0 T _Z22create_func_startpointP4Item
08136410 T _Z18create_func_as_wkbP4Item
08136450 T _Z18create_func_as_wktP4Item
08136490 T _Z15create_func_shaP4Item
081364d0 T _Z23create_func_sec_to_timeP4Item
08136510 T _Z19create_func_reverseP4Item
08136550 T _Z21create_func_inet_ntoaP4Item
08136590 T _Z15create_func_tanP4Item
081365d0 T _Z16create_func_sqrtP4Item
08136610 T _Z15create_func_sinP4Item
08136650 T _Z17create_func_log10P4Item
08136690 T _Z16create_func_log2P4Item
081366d0 T _Z14create_func_lnP4Item
08136710 T _Z15create_func_expP4Item
08136750 T _Z15create_func_cosP4Item
08136790 T _Z16create_func_asinP4Item
081367d0 T _Z16create_func_acosP4Item
08136810 T _Z19create_func_radiansP4Item
08136860 T _Z19create_func_degreesP4Item
081368b0 T _Z19create_func_weekdayP4Item
081368f0 T _Z21create_func_dayofweekP4Item
08136930 T _Z17create_func_monthP4Item
08136970 T _Z21create_func_monthnameP4Item
081369b0 T _Z17create_func_floorP4Item
081369f0 T _Z19create_func_ceilingP4Item
08136a30 T _Z15create_func_absP4Item
08136a70 T _Z19create_func_daynameP4Item
08136ab0 T _Z23create_func_str_to_dateP4ItemS0_
08136b30 T _Z20create_func_timediffP4ItemS0_
08136bb0 T _Z19create_func_subtimeP4ItemS0_
08136c40 T _Z19create_func_addtimeP4ItemS0_
08136cd0 T _Z20create_func_makedateP4ItemS0_
08136d50 T _Z17create_func_pointP4ItemS0_
08136dd0 T _Z21create_func_geometrynP4ItemS0_
08136e60 T _Z25create_func_interiorringnP4ItemS0_
08136ef0 T _Z18create_func_pointnP4ItemS0_
08136f80 T _Z23create_func_aes_decryptP4ItemS0_
08137000 T _Z23create_func_aes_encryptP4ItemS0_
08137080 T _Z23create_func_period_diffP4ItemS0_
08137110 T _Z22create_func_period_addP4ItemS0_
081371a0 T _Z20create_func_datediffP4ItemS0_
08137270 T _Z15create_func_modP4ItemS0_
08137300 T _Z18create_func_ifnullP4ItemS0_
08137390 T _Z15create_func_powP4ItemS0_
08137410 T _Z20create_func_maketimeP4ItemS0_S0_
081374b0 T _Z16create_func_convP4ItemS0_S0_
08137550 T _Z16create_func_uuidv
081375a0 T _Z22create_func_weekofyearP4Item
08137660 T _Z15create_func_cotP4Item
08137730 T _Z14create_func_piv
08137790 T _Z15create_func_octP4Item
08137890 T _Z15create_func_binP4Item
08137990 T _Z22create_func_name_constP4ItemS0_
081379d0 T _Z31create_func_uncompressed_lengthP4Item
08137a30 T _Z22create_func_uncompressP4Item
08137a90 T _Z20create_func_compressP4Item
08137af0 T _Z17create_func_crc32P4Item
08137b50 T _Z19create_func_glengthP4Item
08137bb0 T _Z16create_func_areaP4Item
08137c10 T _Z25create_func_numgeometriesP4Item
08137c70 T _Z27create_func_numinteriorringP4Item
08137cd0 T _Z21create_func_numpointsP4Item
08137d30 T _Z13create_func_yP4Item
08137d90 T _Z13create_func_xP4Item
08137df0 T _Z21create_func_dimensionP4Item
08137e50 T _Z20create_func_overlapsP4ItemS0_
08137f50 T _Z20create_func_containsP4ItemS0_
08138050 T _Z18create_func_withinP4ItemS0_
08138150 T _Z19create_func_crossesP4ItemS0_
08138250 T _Z19create_func_touchesP4ItemS0_
08138350 T _Z22create_func_intersectsP4ItemS0_
08138450 T _Z20create_func_disjointP4ItemS0_
08138550 T _Z18create_func_equalsP4ItemS0_
08138650 T _Z18create_func_strcmpP4ItemS0_
08138740 T _Z18create_func_nullifP4ItemS0_
08138840 T _Z16create_func_sridP4Item
081388a0 T _Z17create_func_quoteP4Item
08138900 T _Z17create_func_unhexP4Item
08138960 T _Z17create_func_ucaseP4Item
081389c0 T _Z17create_func_lcaseP4Item
08138a20 T _Z23create_func_time_formatP4ItemS0_
08138ad0 T _Z23create_func_date_formatP4ItemS0_
08138b80 T _Z19create_func_soundexP4Item
08138be0 T _Z18create_func_repeatP4ItemS0_
08138c90 T _Z17create_func_rtrimP4Item
08138d10 T _Z17create_func_ltrimP4Item
08138d90 T _Z16create_func_rpadP4ItemS0_S0_
08138e80 T _Z15create_func_md5P4Item
08138ee0 T _Z16create_func_lpadP4ItemS0_S0_
08138fd0 T _Z23create_func_char_lengthP4Item
08139030 T _Z22create_func_bit_lengthP4Item
08139090 T _Z18create_func_lengthP4Item
081390f0 T _Z17create_func_instrP4ItemS0_
081391e0 T _Z18create_func_locateP4ItemS0_
081392d0 T _Z15create_func_hexP4Item
08139330 T _Z23create_func_find_in_setP4ItemS0_
08139420 T _Z15create_func_ordP4Item
08139480 T _Z17create_func_asciiP4Item
081394e0 T _Z24create_func_is_used_lockP4Item
08139560 T _Z24create_func_is_free_lockP4Item
081395e0 T _Z16create_func_castP4Item11Cast_targetiiP15charset_info_st
081397d0 T _Z16create_load_fileP4Item
08139850 T _Z17create_func_sleepP4Item
081398b0 T _Z24create_func_release_lockP4Item
08139930 T _Z24create_func_current_userv
081399b0 T _Z20create_func_get_lockP4ItemS0_
08139a80 T _Z22create_func_found_rowsv
08139af0 T _Z25create_func_connection_idv
08139b80 T _Z19create_func_versionv
08139c40 T _Z17create_func_spaceP4Item
08139e50 W _ZNK20Item_func_bit_length9func_nameEv
08139e60 W _ZNK15Item_func_lcase9func_nameEv
08139e70 W _ZN15Item_func_lcase18fix_length_and_decEv
08139ec0 W _ZNK15Item_func_ucase9func_nameEv
08139ed0 W _ZN15Item_func_ucase18fix_length_and_decEv
08139f20 W _ZN6st_lex11uncacheableEh
08139f80 W _ZN4ItemnwEj
08139f90 W _ZN9Item_funcC2EP4Item
08139fe0 W _ZN9Item_funcD2Ev
0813a040 W _ZN13Item_str_funcD2Ev
0813a060 W _ZN13Item_int_funcD2Ev
0813a080 W _ZN13Item_int_funcC2EP4Item
0813a0b0 W _ZN13Item_str_funcC2EP4Item
0813a0e0 W _ZN15Item_func_ucaseD0Ev
0813a150 W _ZN15Item_func_ucaseD1Ev
0813a1c0 W _ZN15Item_func_lcaseD0Ev
0813a230 W _ZN15Item_func_lcaseD1Ev
0813a2a0 W _ZN20Item_func_bit_lengthD0Ev
0813a310 W _ZN20Item_func_bit_lengthD1Ev
0813a380 W _ZN20Item_func_bit_length7val_intEv
0813a3a0 T _ZN14Item_subselect18select_transformerEP4JOIN
0813a3b0 T _ZN14Item_subselect4execEv
0813a3f0 T _ZNK14Item_subselect4typeEv
0813a400 T _ZN14Item_subselect18fix_length_and_decEv
0813a420 T _ZNK14Item_subselect11used_tablesEv
0813a450 T _ZNK14Item_subselect10const_itemEv
0813a460 T _ZN14Item_subselect18update_used_tablesEv
0813a4c0 T _ZN24Item_singlerow_subselect5resetEv
0813a4e0 T _ZN24Item_singlerow_subselect5storeEjP4Item
0813a520 T _ZNK24Item_singlerow_subselect11result_typeEv
0813a530 T _ZN24Item_singlerow_subselect4colsEv
0813a550 T _ZN24Item_singlerow_subselect11null_insideEv
0813a590 T _ZN24Item_singlerow_subselect11bring_valueEv
0813a5b0 T _ZN24Item_singlerow_subselect8val_realEv
0813a600 T _ZN24Item_singlerow_subselect7val_intEv
0813a650 T _ZN24Item_singlerow_subselect7val_strEP6String
0813a6a0 T _ZN24Item_singlerow_subselect11val_decimalEP10my_decimal
0813a6f0 T _ZN24Item_singlerow_subselect8val_boolEv
0813a740 T _ZN21Item_exists_subselect8val_realEv
0813a780 T _ZN21Item_exists_subselect7val_intEv
0813a7c0 T _ZN21Item_exists_subselect8val_boolEv
0813a800 T _ZN17Item_in_subselect8val_realEv
0813a860 T _ZN17Item_in_subselect7val_intEv
0813a8c0 T _ZN17Item_in_subselect8val_boolEv
0813a920 T _ZN16subselect_engine7set_thdEP3THD
0813a940 T _ZN30subselect_single_select_engineC2EP13st_select_lexP16select_subselectP14Item_subselect
0813a9a0 T _ZN30subselect_single_select_engineC1EP13st_select_lexP16select_subselectP14Item_subselect
0813aa00 T _ZN30subselect_single_select_engine7cleanupEv
0813aa30 T _ZNK22subselect_union_engine11is_executedEv
0813aa50 T _ZN31subselect_uniquesubquery_engine7cleanupEv
0813aa60 T _ZN31subselect_uniquesubquery_engine7prepareEv
0813aa70 T _ZN31subselect_uniquesubquery_engine18fix_length_and_decEPP10Item_cache
0813aa80 T _ZN31subselect_uniquesubquery_engineD2Ev
0813aac0 T _ZN31subselect_uniquesubquery_engineD1Ev
0813ab00 T _ZN31subselect_uniquesubquery_engineD0Ev
0813ab40 T _ZN30subselect_single_select_engine4colsEv
0813ab60 T _ZN22subselect_union_engine4colsEv
0813ab80 T _ZN30subselect_single_select_engine11uncacheableEv
0813ab90 T _ZN22subselect_union_engine11uncacheableEv
0813aba0 T _ZN31subselect_uniquesubquery_engine7excludeEv
0813abb0 T _ZN16subselect_engine17calc_const_tablesEP13st_table_list
0813ac20 T _ZN30subselect_single_select_engine25upper_select_const_tablesEv
0813ac50 T _ZN22subselect_union_engine25upper_select_const_tablesEv
0813ac80 T _ZN31subselect_uniquesubquery_engine13change_resultEP14Item_subselectP16select_subselect
0813ac90 T _ZN30subselect_single_select_engine9no_tablesEv
0813acb0 T _ZN22subselect_union_engine9no_tablesEv
0813ace0 T _ZN31subselect_uniquesubquery_engine9no_tablesEv
0813acf0 T _ZN22subselect_union_engine13change_resultEP14Item_subselectP16select_subselect
0813ad40 T _ZN30subselect_single_select_engine13change_resultEP14Item_subselectP16select_subselect
0813ad70 T _ZN30subselect_indexsubquery_engine5printEP6String
0813aef0 T _ZN31subselect_uniquesubquery_engine5printEP6String
0813b030 T _ZN14Item_subselect5printEP6String
0813b0c0 T _ZN21Item_allany_subselect5printEP6String
0813b1b0 T _ZN17Item_in_subselect5printEP6String
0813b240 T _ZN21Item_exists_subselect5printEP6String
0813b280 T _ZN21Item_maxmin_subselect5printEP6String
0813b2d0 T _ZN22subselect_union_engine5printEP6String
0813b2f0 T _ZN30subselect_single_select_engine5printEP6String
0813b320 T _ZN22subselect_union_engine7excludeEv
0813b340 T _ZN30subselect_single_select_engine7excludeEv
0813b360 T _ZN31subselect_uniquesubquery_engine4execEv
0813b4c0 T _ZN30subselect_indexsubquery_engine4execEv
0813b6d0 T _ZN22subselect_union_engine4execEv
0813b710 T _ZN30subselect_single_select_engine4execEv
0813b8c0 t _Z7set_rowR4ListI4ItemEPS0_PP10Item_cachePb
0813b970 T _ZN22subselect_union_engine18fix_length_and_decEPP10Item_cache
0813b9f0 T _ZN30subselect_single_select_engine18fix_length_and_decEPP10Item_cache
0813ba40 T _ZN22subselect_union_engine7prepareEv
0813ba70 T _ZN24Item_singlerow_subselect18fix_length_and_decEv
0813bb00 T _ZN14Item_subselectD0Ev
0813bb80 T _ZN14Item_subselectD1Ev
0813bc00 T _ZN14Item_subselectD2Ev
0813bc80 T _ZN30subselect_single_select_engine7prepareEv
0813c160 T _ZN22subselect_union_engineC1EP18st_select_lex_unitP16select_subselectP14Item_subselect
0813c1d0 T _ZN14Item_subselect4initEP13st_select_lexP16select_subselect
0813c2f0 T _ZN22subselect_union_engineC2EP18st_select_lex_unitP16select_subselectP14Item_subselect
0813c360 T _ZN22subselect_union_engine7cleanupEv
0813c390 T _ZN24Item_singlerow_subselect10check_colsEj
0813c3e0 T _ZN14Item_subselectC1Ev
0813c450 T _ZN14Item_subselectC2Ev
0813c4c0 T _ZN21Item_exists_subselect18fix_length_and_decEv
0813c530 T _ZN17Item_in_subselect21row_value_transformerEP4JOIN
0813d000 T _ZN24Item_singlerow_subselect18select_transformerEP4JOIN
0813d150 T _ZN17Item_in_subselect11val_decimalEP10my_decimal
0813d1e0 T _ZN21Item_exists_subselect11val_decimalEP10my_decimal
0813d250 T _ZN17Item_in_subselect7val_strEP6String
0813d2c0 T _ZN21Item_exists_subselect7val_strEP6String
0813d330 T _ZN21Item_exists_subselectC1EP13st_select_lex
0813d3a0 T _ZN21Item_exists_subselectC2EP13st_select_lex
0813d410 T _ZN21Item_maxmin_subselectC1EP3THDP14Item_subselectP13st_select_lexb
0813d4c0 T _ZN21Item_maxmin_subselectC2EP3THDP14Item_subselectP13st_select_lexb
0813d570 T _ZN24Item_singlerow_subselectC1EP13st_select_lex
0813d5e0 T _ZN17Item_in_subselect24single_value_transformerEP4JOINP12Comp_creator
0813e1b0 T _ZN17Item_in_subselect26select_in_like_transformerEP4JOINP12Comp_creator
0813e4a0 T _ZN21Item_allany_subselect18select_transformerEP4JOIN
0813e4e0 T _ZN17Item_in_subselect18select_transformerEP4JOIN
0813e510 T _ZN24Item_singlerow_subselectC2EP13st_select_lex
0813e580 T _ZN17Item_in_subselect10test_limitEP18st_select_lex_unit
0813e5e0 T _ZN21Item_allany_subselectC1EP4ItemP12Comp_creatorP13st_select_lexb
0813e6b0 T _ZN21Item_allany_subselectC2EP4ItemP12Comp_creatorP13st_select_lexb
0813e780 T _ZN17Item_in_subselectC1EP4ItemP13st_select_lex
0813e840 T _ZN17Item_in_subselectC2EP4ItemP13st_select_lex
0813e900 T _ZN14Item_subselect18get_tmp_table_itemEP3THD
0813e970 T _ZN14Item_subselect10fix_fieldsEP3THDPP4Item
0813eb60 T _ZN14Item_subselect7cleanupEv
0813ebd0 T _ZN24Item_singlerow_subselect7cleanupEv
0813ec00 T _ZN21Item_maxmin_subselect7cleanupEv
0813ec20 W _ZN14Item_subselect8substypeEv
0813ec30 W _ZN14Item_subselect5resetEv
0813ec40 W _ZN14Item_subselect7is_nullEv
0813ec60 W _ZNK14Item_subselect15not_null_tablesEv
0813ec70 W _ZN14Item_subselect24reset_value_registrationEv
0813ec80 W _ZN24Item_singlerow_subselect8substypeEv
0813ec90 W _ZN24Item_singlerow_subselect2elEj
0813ecb0 W _ZN24Item_singlerow_subselect4addrEj
0813ecd0 W _ZN21Item_maxmin_subselect24reset_value_registrationEv
0813ece0 W _ZN21Item_exists_subselect8substypeEv
0813ecf0 W _ZN21Item_exists_subselect5resetEv
0813ed00 W _ZNK21Item_exists_subselect11result_typeEv
0813ed10 W _ZN17Item_in_subselect8substypeEv
0813ed20 W _ZN17Item_in_subselect5resetEv
0813ed40 W _ZN17Item_in_subselect14top_level_itemEv
0813ed50 W _ZN21Item_allany_subselect8substypeEv
0813ed70 W _ZN16subselect_engineD1Ev
0813ed80 W _ZN16subselect_engineD0Ev
0813ed90 W _ZNK16subselect_engine11is_executedEv
0813eda0 W _ZN30subselect_single_select_engineD1Ev
0813edb0 W _ZN30subselect_single_select_engineD0Ev
0813edc0 W _ZNK30subselect_single_select_engine11is_executedEv
0813ede0 W _ZN22subselect_union_engineD1Ev
0813edf0 W _ZN22subselect_union_engineD0Ev
0813ee00 W _ZN31subselect_uniquesubquery_engine4colsEv
0813ee10 W _ZN31subselect_uniquesubquery_engine11uncacheableEv
0813ee20 W _ZN31subselect_uniquesubquery_engine25upper_select_const_tablesEv
0813ee30 W _ZN13select_result7prepareER4ListI4ItemEP18st_select_lex_unit
0813ee40 W _ZN13select_result8prepare2Ev
0813ee50 W _ZN13select_result17initialize_tablesEP4JOIN
0813ee60 W _ZN13select_result13simple_selectEv
0813ee70 W _ZN13select_result5abortEv
0813ee80 W _ZN25select_result_interceptorD0Ev
0813ee90 W _ZN25select_result_interceptorD1Ev
0813eea0 W _ZNK25select_result_interceptor11field_countER4ListI4ItemE
0813eeb0 W _ZN25select_result_interceptor11send_fieldsER4ListI4ItemEj
0813eec0 W _ZN16select_subselectD0Ev
0813eed0 W _ZN16select_subselectD1Ev
0813eee0 W _ZN16select_subselect8send_eofEv
0813eef0 W _ZN30subselect_indexsubquery_engineD0Ev
0813ef10 W _ZN30subselect_indexsubquery_engineD1Ev
0813ef30 W _ZN17Item_result_fieldD2Ev
0813ef90 W _ZN21Item_allany_subselectD0Ev
0813efb0 W _ZN21Item_allany_subselectD1Ev
0813efd0 W _ZN17Item_in_subselectD0Ev
0813eff0 W _ZN17Item_in_subselectD1Ev
0813f010 W _ZN21Item_exists_subselectD0Ev
0813f030 W _ZN21Item_exists_subselectD1Ev
0813f050 W _ZN21Item_maxmin_subselectD0Ev
0813f070 W _ZN21Item_maxmin_subselectD1Ev
0813f090 W _ZN24Item_singlerow_subselectD0Ev
0813f0b0 W _ZN24Item_singlerow_subselectD1Ev
0813f0d0 W _Z9and_itemsP4ItemS0_
0813f1d0 W _ZN15Item_direct_refC1EP23Name_resolution_contextPP4ItemPKcS6_
0813f210 T _ZN8Item_row10fix_fieldsEP3THDPP4Item
0813f370 T _ZN8Item_row18update_used_tablesEv
0813f400 T _ZN8Item_row4walkEM4ItemFbPcES1_
0813f4a0 T _ZN8Item_row9transformEM4ItemFPS0_PcES2_
0813f530 T _ZN8Item_row11bring_valueEv
0813f570 T _ZN8Item_row5printEP6String
0813f650 T _ZN8Item_row10check_colsEj
0813f690 T _ZN8Item_row19illegal_method_callEPKc
0813f6c0 T _ZN8Item_row14split_sum_funcEP3THDPP4ItemR4ListIS2_E
0813f720 T _ZN8Item_rowC1ER4ListI4ItemE
0813f7c0 T _ZN8Item_rowC2ER4ListI4ItemE
0813f860 W _ZNK8Item_row4typeEv
0813f870 W _ZN8Item_row7is_nullEv
0813f890 W _ZNK8Item_row11used_tablesEv
0813f8a0 W _ZNK8Item_row10const_itemEv
0813f8b0 W _ZNK8Item_row11result_typeEv
0813f8c0 W _ZN8Item_row4colsEv
0813f8d0 W _ZN8Item_row2elEj
0813f8f0 W _ZN8Item_row4addrEj
0813f910 W _ZN8Item_row11null_insideEv
0813f920 W _ZN8Item_rowD0Ev
0813f980 W _ZN8Item_rowD1Ev
0813f9e0 W _ZN8Item_row11val_decimalEP10my_decimal
0813fa00 W _ZN8Item_row7val_strEP6String
0813fa20 W _ZN8Item_row7val_intEv
0813fa40 W _ZN8Item_row8val_realEv
0813fa60 W _ZN8Item_row10make_fieldEP10Send_field
0813fa70 T _ZN18Item_geometry_func18fix_length_and_decEv
0813fa90 T _ZN16Item_func_as_wkt18fix_length_and_decEv
0813faa0 T _ZN18Item_func_issimple7val_intEv
0813fb30 T _ZN17Item_func_isempty7val_intEv
0813fbb0 T _ZN14Item_func_srid7val_intEv
0813fc20 T _ZN17Item_func_glength8val_realEv
0813fcb0 T _ZN14Item_func_area8val_realEv
0813fd40 T _ZN11Item_func_y8val_realEv
0813fdd0 T _ZN11Item_func_x8val_realEv
0813fe60 T _ZN19Item_func_numpoints7val_intEv
0813fef0 T _ZN23Item_func_numgeometries7val_intEv
0813ff80 T _ZN25Item_func_numinteriorring7val_intEv
08140010 T _ZN19Item_func_dimension7val_intEv
081400a0 T _ZN18Item_func_isclosed7val_intEv
08140180 T _ZN21Item_func_spatial_rel7val_intEv
081406d0 T _ZN26Item_func_spatial_decomp_n7val_strEP6String
08140890 T _ZN24Item_func_spatial_decomp7val_strEP6String
08140a20 T _ZN18Item_func_centroid7val_strEP6String
08140b70 T _ZN15Item_func_point7val_strEP6String
08140c40 T _ZN28Item_func_spatial_collection7val_strEP6String
08141050 T _ZN18Item_func_envelope7val_strEP6String
081411b0 T _ZN16Item_func_as_wkb7val_strEP6String
081412c0 T _ZN23Item_func_geometry_type7val_strEP6String
08141360 T _ZN16Item_func_as_wkt7val_strEP6String
081414f0 T _ZN27Item_func_geometry_from_wkb7val_strEP6String
08141620 T _ZN28Item_func_geometry_from_text7val_strEP6String
081417d0 W _ZNK28Item_func_geometry_from_text9func_nameEv
081417e0 W _ZNK27Item_func_geometry_from_wkb9func_nameEv
081417f0 W _ZNK16Item_func_as_wkt9func_nameEv
08141800 W _ZNK16Item_func_as_wkb9func_nameEv
08141810 W _ZNK23Item_func_geometry_type9func_nameEv
08141820 W _ZN23Item_func_geometry_type18fix_length_and_decEv
08141830 W _ZNK18Item_func_centroid9func_nameEv
08141840 W _ZNK18Item_func_envelope9func_nameEv
08141850 W _ZNK15Item_func_point9func_nameEv
08141860 W _ZNK24Item_func_spatial_decomp9func_nameEv
081418a0 W _ZNK26Item_func_spatial_decomp_n9func_nameEv
081418e0 W _ZNK28Item_func_spatial_collection9func_nameEv
081418f0 W _ZNK21Item_func_spatial_rel8functypeEv
08141920 W _ZNK21Item_func_spatial_rel12rev_functypeEv
08141930 W _ZNK21Item_func_spatial_rel9func_nameEv
081419a0 W _ZNK17Item_func_isempty15select_optimizeEv
081419b0 W _ZNK17Item_func_isempty9func_nameEv
081419c0 W _ZNK18Item_func_issimple15select_optimizeEv
081419d0 W _ZNK18Item_func_issimple9func_nameEv
081419e0 W _ZNK18Item_func_isclosed15select_optimizeEv
081419f0 W _ZNK18Item_func_isclosed9func_nameEv
08141a00 W _ZNK19Item_func_dimension9func_nameEv
08141a10 W _ZN19Item_func_dimension18fix_length_and_decEv
08141a20 W _ZNK11Item_func_x9func_nameEv
08141a30 W _ZNK11Item_func_y9func_nameEv
08141a40 W _ZNK23Item_func_numgeometries9func_nameEv
08141a50 W _ZN23Item_func_numgeometries18fix_length_and_decEv
08141a60 W _ZNK25Item_func_numinteriorring9func_nameEv
08141a70 W _ZN25Item_func_numinteriorring18fix_length_and_decEv
08141a80 W _ZNK19Item_func_numpoints9func_nameEv
08141a90 W _ZN19Item_func_numpoints18fix_length_and_decEv
08141aa0 W _ZNK14Item_func_area9func_nameEv
08141ab0 W _ZNK17Item_func_glength9func_nameEv
08141ac0 W _ZNK14Item_func_srid9func_nameEv
08141ad0 W _ZN14Item_func_srid18fix_length_and_decEv
08141ae0 W _ZN14Item_func_sridD0Ev
08141b80 W _ZN18Item_func_isclosedD0Ev
08141be0 W _ZN18Item_func_isclosedD1Ev
08141c40 W _ZN18Item_func_issimpleD0Ev
08141ca0 W _ZN18Item_func_issimpleD1Ev
08141d00 W _ZN17Item_func_isemptyD0Ev
08141d60 W _ZN17Item_func_isemptyD1Ev
08141dc0 W _ZN15Item_func_pointD0Ev
08141e20 W _ZN15Item_func_pointD1Ev
08141e80 W _ZN26Item_func_spatial_decomp_nD0Ev
08141ee0 W _ZN26Item_func_spatial_decomp_nD1Ev
08141f40 W _ZN24Item_func_spatial_decompD0Ev
08141fa0 W _ZN24Item_func_spatial_decompD1Ev
08142000 W _ZN18Item_func_centroidD0Ev
08142060 W _ZN18Item_func_centroidD1Ev
081420c0 W _ZN18Item_func_envelopeD0Ev
08142120 W _ZN18Item_func_envelopeD1Ev
08142180 W _ZN16Item_func_as_wkbD0Ev
081421e0 W _ZN16Item_func_as_wkbD1Ev
08142240 W _ZN27Item_func_geometry_from_wkbD0Ev
081422a0 W _ZN27Item_func_geometry_from_wkbD1Ev
08142300 W _ZN28Item_func_geometry_from_textD0Ev
08142360 W _ZN28Item_func_geometry_from_textD1Ev
081423c0 W _ZN23Item_func_geometry_typeD0Ev
08142420 W _ZN23Item_func_geometry_typeD1Ev
08142480 W _ZN16Item_func_as_wktD0Ev
081424e0 W _ZN16Item_func_as_wktD1Ev
08142540 W _ZN18Item_geometry_funcD0Ev
081425a0 W _ZN18Item_geometry_funcD1Ev
08142600 W _ZN14Item_func_sridD1Ev
081426a0 W _ZN17Item_func_glengthD0Ev
08142740 W _ZN17Item_func_glengthD1Ev
081427e0 W _ZN14Item_func_areaD0Ev
08142880 W _ZN14Item_func_areaD1Ev
08142920 W _ZN11Item_func_yD0Ev
081429c0 W _ZN11Item_func_yD1Ev
08142a60 W _ZN11Item_func_xD0Ev
08142b00 W _ZN11Item_func_xD1Ev
08142ba0 W _ZN19Item_func_numpointsD0Ev
08142c40 W _ZN19Item_func_numpointsD1Ev
08142ce0 W _ZN23Item_func_numgeometriesD0Ev
08142d80 W _ZN23Item_func_numgeometriesD1Ev
08142e20 W _ZN25Item_func_numinteriorringD0Ev
08142ec0 W _ZN25Item_func_numinteriorringD1Ev
08142f60 W _ZN19Item_func_dimensionD0Ev
08143000 W _ZN19Item_func_dimensionD1Ev
081430a0 W _ZN21Item_func_spatial_relD0Ev
081431a0 W _ZN21Item_func_spatial_relD1Ev
081432a0 W _ZN28Item_func_spatial_collectionD0Ev
08143340 W _ZN28Item_func_spatial_collectionD1Ev
081433e0 W _ZN21Item_func_spatial_rel5printEP6String
081433f0 T _ZN5Field16field_type_mergeE16enum_field_typesS0_
08143420 T _ZN5Field17result_merge_typeE16enum_field_types
08143440 T _ZN5Field22type_can_have_key_partE16enum_field_types
08143470 T _ZN5FieldC2EPcjPhhNS_5utypeEPKcP8st_table
08143510 T _ZN9Field_numC1EPcjPhhN5Field5utypeEPKcP8st_tablehbb
081435c0 T _ZN9Field_numC2EPcjPhhN5Field5utypeEPKcP8st_tablehbb
08143670 T _ZN5FieldC1EPcjPhhNS_5utypeEPKcP8st_table
08143710 T _ZN5Field6offsetEv
08143730 T _ZN5Field11val_decimalEP10my_decimal
08143740 T _ZN5Field10make_fieldEP10Send_field
081437f0 T _ZN9Field_strC2EPcjPhhN5Field5utypeEPKcP8st_tableP15charset_info_st
08143860 T _ZN9Field_strC1EPcjPhhN5Field5utypeEPKcP8st_tableP15charset_info_st
081438d0 T _ZN9Field_num10make_fieldEP10Send_field
08143900 T _ZN5Field16fill_cache_fieldEP14st_cache_field
081439a0 T _ZN5Field14optimize_rangeEjj
081439e0 T _ZN5Field13new_key_fieldEP11st_mem_rootP8st_tablePcPhj
08143a20 T _ZN5Field12needs_quotesEv
08143a80 T _ZN13Field_decimal8val_realEv
08143ac0 T _ZN13Field_decimal7val_intEv
08143b40 T _ZN13Field_decimal3cmpEPKcS1_
08143c30 T _ZN10Field_tiny8val_realEv
08143c60 T _ZN10Field_tiny7val_intEv
08143c80 T _ZN10Field_tiny11send_binaryEP8Protocol
08143cc0 T _ZN10Field_tiny3cmpEPKcS1_
08143d00 T _ZN10Field_tiny11sort_stringEPcj
08143d30 T _ZN11Field_short8val_realEv
08143d60 T _ZN11Field_short7val_intEv
08143d90 T _ZN11Field_short11send_binaryEP8Protocol
08143dc0 T _ZN11Field_short3cmpEPKcS1_
08143e00 T _ZN11Field_short11sort_stringEPcj
08143e40 T _ZN12Field_medium8val_realEv
08143eb0 T _ZN12Field_medium7val_intEv
08143f20 T _ZN12Field_medium11send_binaryEP8Protocol
08143f50 T _ZN12Field_medium3cmpEPKcS1_
08144010 T _ZN12Field_medium11sort_stringEPcj
08144060 T _ZN10Field_long8val_realEv
08144090 T _ZN10Field_long7val_intEv
081440b0 T _ZN10Field_long11send_binaryEP8Protocol
081440e0 T _ZN10Field_long3cmpEPKcS1_
08144120 T _ZN10Field_long11sort_stringEPcj
08144190 T _ZN14Field_longlong11sort_stringEPcj
08144200 T _ZN11Field_float5storeExb
08144260 T _ZN12Field_double5storeExb
081442c0 T _ZN12Field_double8val_realEv
081442e0 T _ZN12Field_double11send_binaryEP8Protocol
08144330 T _ZN12Field_double3cmpEPKcS1_
081443a0 T _ZN15Field_timestampC2EPcjPhhN5Field5utypeEPKcP8st_tableP15charset_info_st
08144430 T _ZN15Field_timestampC1EPcjPhhN5Field5utypeEPKcP8st_tableP15charset_info_st
081444c0 T _ZNK15Field_timestamp17get_auto_set_typeEv
08144500 T _ZN15Field_timestamp7val_intEv
08144600 T _ZN15Field_timestamp8val_realEv
08144620 T _ZN15Field_timestamp3cmpEPKcS1_
08144640 T _ZN15Field_timestamp11sort_stringEPcj
08144680 T _ZN15Field_timestamp8set_timeEv
081446c0 T _ZN10Field_time8val_realEv
081446e0 T _ZN10Field_time7val_intEv
08144720 T _ZN10Field_time8get_timeEP13st_mysql_time
081447e0 T _ZN10Field_time11send_binaryEP8Protocol
08144830 T _ZN10Field_time3cmpEPKcS1_
081448c0 T _ZN10Field_time11sort_stringEPcj
081448f0 T _ZN10Field_year7val_intEv
08144930 T _ZN10Field_year8val_realEv
08144950 T _ZN10Field_year11send_binaryEP8Protocol
08144980 T _ZNK10Field_year8sql_typeER6String
081449d0 T _ZN10Field_date8val_realEv
081449f0 T _ZN10Field_date7val_intEv
08144a00 T _ZN10Field_date11send_binaryEP8Protocol
08144aa0 T _ZN10Field_date3cmpEPKcS1_
08144ac0 T _ZN10Field_date11sort_stringEPcj
08144b00 T _ZN13Field_newdate7val_intEv
08144b40 T _ZN13Field_newdate8val_realEv
08144b60 T _ZN13Field_newdate8get_dateEP13st_mysql_timej
08144be0 T _ZN13Field_newdate11send_binaryEP8Protocol
08144c20 T _ZN13Field_newdate8get_timeEP13st_mysql_time
08144c50 T _ZN13Field_newdate3cmpEPKcS1_
08144c80 T _ZN13Field_newdate11sort_stringEPcj
08144cb0 T _ZN14Field_datetime11sort_stringEPcj
08144d10 T _ZN12Field_string8val_realEv
08144d50 T _ZN12Field_string7val_intEv
08144da0 T _ZN12Field_string3cmpEPKcS1_
08144ea0 T _ZN12Field_string11sort_stringEPcj
08144ee0 T _ZN12Field_string8pack_cmpEPKcS1_jc
08144f60 T _ZN12Field_string8pack_cmpEPKcjc
08144ff0 T _ZN12Field_string17packed_col_lengthEPKcj
08145010 T _ZN12Field_string21max_packed_col_lengthEj
08145030 T _ZN15Field_varstring8val_realEv
08145090 T _ZN15Field_varstring7val_intEv
08145100 T _ZN15Field_varstring3cmpEPKcS1_
08145180 T _ZN15Field_varstring7key_cmpEPKcj
08145230 T _ZN15Field_varstring7key_cmpEPKcS1_
08145280 T _ZN15Field_varstring11sort_stringEPcj
08145320 T _ZNK15Field_varstring8key_typeEv
08145360 T _ZN15Field_varstring8pack_cmpEPKcS1_jc
081453e0 T _ZN15Field_varstring8pack_cmpEPKcjc
081454d0 T _ZN15Field_varstring17packed_col_lengthEPKcj
081454f0 T _ZN15Field_varstring21max_packed_col_lengthEj
08145510 T _ZN15Field_varstring13new_key_fieldEP11st_mem_rootP8st_tablePcPhj
08145560 T _ZN10Field_blob12store_lengthEj
081455d0 T _ZN10Field_blob10get_lengthEPKc
08145620 T _ZN10Field_blob10put_lengthEPcj
08145680 T _ZN10Field_blob3cmpEPKcjS1_j
081456c0 T _ZN10Field_blob7key_cmpEPKcS1_
08145700 T _ZN10Field_blob8pack_cmpEPKcS1_jc
08145780 T _ZN10Field_blob17packed_col_lengthEPKcj
081457a0 T _ZN10Field_blob21max_packed_col_lengthEj
081457c0 T _ZNK10Field_enum8key_typeEv
08145810 T _ZN5Field6eq_defEPS_
08145890 T _ZN9Field_num6eq_defEP5Field
08145900 T _ZN9Field_bitC2EPcjPhhS1_hN5Field5utypeEPKcP8st_table
08145990 T _ZN9Field_bitC1EPcjPhhS1_hN5Field5utypeEPKcP8st_table
08145a20 T _ZN9Field_bit13new_key_fieldEP11st_mem_rootP8st_tablePcPhj
08145a80 T _ZN9Field_bit5storeEd
08145ac0 T _ZN9Field_bit5storeExb
08145b30 T _ZN9Field_bit7val_intEv
08145e00 T _ZN9Field_bit8val_realEv
08145e20 T _ZNK9Field_bit8sql_typeER6String
08145e80 T _ZN17Field_bit_as_charC2EPcjPhhS1_hN5Field5utypeEPKcP8st_table
08145f00 T _ZN17Field_bit_as_charC1EPcjPhhS1_hN5Field5utypeEPKcP8st_table
08145f80 T _ZNK17Field_bit_as_char8sql_typeER6String
08145fd0 T _ZN12create_field18init_for_tmp_tableE16enum_field_typesjjbb
08146040 T _Z25get_blob_type_from_lengthm
08146080 T _Z23pack_length_to_packflagj
081460d0 T _ZN10Field_blob10max_lengthEv
08146110 T _ZN15Field_timestamp8get_dateEP13st_mysql_timej
08146190 T _ZN15Field_timestamp11send_binaryEP8Protocol
081461d0 T _ZN15Field_timestamp8get_timeEP13st_mysql_time
08146200 T _ZN10Field_blobC1EPcPhhN5Field5utypeEPKcP8st_tablejP15charset_info_st
081462d0 T _ZN10Field_blobC2EPcPhhN5Field5utypeEPKcP8st_tablejP15charset_info_st
081463a0 T _ZN5Field11send_binaryEP8Protocol
08146480 T _ZNK10Field_geom8sql_typeER6String
08146660 T _ZN15Field_varstring7val_strEP6StringS1_
081466e0 T _ZN12Field_string7val_strEP6StringS1_
08146760 T _ZN9Field_bit6unpackEPcPKc
08146810 T _ZN9Field_bit4packEPcPKcj
081468b0 T _ZN9Field_bit13get_key_imageEPcjN5Field9imagetypeE
08146920 T _ZN10Field_enum7val_intEv
08146990 T _ZN10Field_enum11sort_stringEPcj
081469e0 T _ZN10Field_enum3cmpEPKcS1_
08146a50 T _ZN10Field_enum7val_strEP6StringS1_
08146b30 T _ZN10Field_enum8val_realEv
08146b50 T _ZN10Field_enum10store_typeEy
08146bf0 T _ZN10Field_blob23pack_key_from_key_imageEPcPKcj
08146c60 T _ZN10Field_blob10unpack_keyEPcPKcj
08146ce0 T _ZN10Field_blob8pack_keyEPcPKcj
08146db0 T _ZN10Field_blob8pack_cmpEPKcjc
08146e50 T _ZN10Field_blob6unpackEPcPKc
08146ec0 T _ZN10Field_blob4packEPcPKcj
08146f90 T _ZN10Field_blob11sort_stringEPcj
08147090 T _ZN10Field_blob7key_cmpEPKcj
08147130 T _ZN10Field_blob3cmpEPKcS1_
081471a0 T _ZN10Field_blob7val_strEP6StringS1_
08147280 T _ZN10Field_blob7val_intEv
08147310 T _ZN10Field_blob8val_realEv
08147380 T _ZN15Field_varstring13get_key_imageEPcjN5Field9imagetypeE
08147450 T _ZN15Field_varstring6unpackEPcPKc
081474c0 T _ZN15Field_varstring23pack_key_from_key_imageEPcPKcj
08147530 T _ZN15Field_varstring10unpack_keyEPcPKcj
081475b0 T _ZN15Field_varstring8pack_keyEPcPKcj
08147670 T _ZN15Field_varstring4packEPcPKcj
08147700 T _ZN12Field_string4packEPcPKcj
081477b0 T _ZN14Field_datetime3cmpEPKcS1_
08147810 T _ZN14Field_datetime7val_intEv
08147830 T _ZN14Field_datetime8get_dateEP13st_mysql_timej
08147940 T _ZN14Field_datetime8get_timeEP13st_mysql_time
08147970 T _ZN14Field_datetime11send_binaryEP8Protocol
081479c0 T _ZN14Field_datetime8val_realEv
081479e0 T _ZN11Field_float11sort_stringEPcj
08147a80 T _ZN11Field_float3cmpEPKcS1_
08147ab0 T _ZN11Field_float8val_realEv
08147ac0 T _ZN11Field_float11send_binaryEP8Protocol
08147b10 T _ZN14Field_longlong3cmpEPKcS1_
08147bb0 T _ZN14Field_longlong7val_intEv
08147bd0 T _ZN14Field_longlong11send_binaryEP8Protocol
08147c20 T _ZN14Field_longlong8val_realEv
08147c70 T _ZN17Field_new_decimal11sort_stringEPcj
08147c90 T _ZN13Field_decimal11sort_stringEPcj
08147d50 T _ZN5Field13copy_from_tmpEi
08147db0 T _ZN9Field_bit10cmp_offsetEj
08147e60 T _ZN9Field_bit7key_cmpEPKcj
08147ee0 T _ZN10Field_blob10cmp_binaryEPKcS1_j
08147f70 T _ZN15Field_varstring10cmp_binaryEPKcS1_j
08148000 T _ZN17Field_new_decimal3cmpEPKcS1_
08148040 T _ZN9Field_str5storeEd
08148170 T _ZN5Field11set_warningEN11MYSQL_ERROR18enum_warning_levelEji
08148200 T _ZN5Field20set_datetime_warningEN11MYSQL_ERROR18enum_warning_levelEjd25enum_mysql_timestamp_type
081482b0 T _ZN10Field_time5storeEd
08148420 T _ZN10Field_time10store_timeEP13st_mysql_time25enum_mysql_timestamp_type
08148480 T _ZN5Field20set_datetime_warningEN11MYSQL_ERROR18enum_warning_levelEjx25enum_mysql_timestamp_typei
08148540 T _ZN10Field_time5storeExb
081486d0 T _ZN5Field20set_datetime_warningEN11MYSQL_ERROR18enum_warning_levelEjPKcj25enum_mysql_timestamp_typei
08148780 T _ZN9Field_set5storeExb
08148840 T _ZN10Field_enum5storeExb
08148900 T _ZN10Field_enum5storeEd
08148940 T _ZN14Field_datetime10store_timeEP13st_mysql_time25enum_mysql_timestamp_type
08148a20 T _ZN13Field_newdate10store_timeEP13st_mysql_time25enum_mysql_timestamp_type
08148ab0 T _ZN10Field_year5storeExb
08148b90 T _ZN10Field_year5storeEd
08148c10 T _ZN14Field_longlong5storeExb
08148cc0 T _ZN10Field_long5storeExb
08148da0 T _ZN12Field_medium5storeExb
08148f10 T _ZN11Field_short5storeExb
08149010 T _ZN10Field_tiny5storeExb
08149100 T _ZN5Field16warn_if_overflowEi
08149170 T _ZN10Field_time8get_dateEP13st_mysql_timej
081492b0 T _ZN12create_fieldC1EP5FieldS1_
08149700 T _ZN12create_fieldC2EP5FieldS1_
08149b50 T _Z16calc_pack_length16enum_field_typesj
08149bf0 T _ZN12create_field4initEP3THDPc16enum_field_typesS2_S2_jP4ItemS5_P13st_lex_stringS2_P4ListI6StringEP15charset_info_stj
0814a610 T _ZN12create_field32create_length_to_internal_lengthEv
0814a700 T _ZN17Field_new_decimalC1EjbPKcP8st_tablehb
0814a7b0 T _ZN17Field_new_decimalC2EjbPKcP8st_tablehb
0814a860 T _ZN17Field_new_decimalC1EPcjPhhN5Field5utypeEPKcP8st_tablehbb
0814a910 T _Z10make_fieldPcjPhhj16enum_field_typesP15charset_info_stN5Field13geometry_typeENS4_5utypeEP10st_typelibPKcP8st_table
0814b500 T _ZN17Field_new_decimalC2EPcjPhhN5Field5utypeEPKcP8st_tablehbb
0814b5b0 T _ZN17Field_bit_as_char5storeEPKcjP15charset_info_st
0814b730 T _ZN9Field_bit5storeEPKcjP15charset_info_st
0814ba50 T _ZN12Field_string6unpackEPcPKc
0814bac0 T _ZN13Field_decimal8overflowEb
0814bba0 T _ZN13Field_decimal5storeExb
0814bcf0 T _ZN9Field_bit11val_decimalEP10my_decimal
0814bd40 T _ZN9Field_str11val_decimalEP10my_decimal
0814bd90 T _ZN9Field_num11val_decimalEP10my_decimal
0814be00 T _ZN9Field_bit7val_strEP6StringS1_
0814beb0 T _ZN14Field_datetime7val_strEP6StringS1_
0814c100 T _ZN13Field_newdate7val_strEP6StringS1_
0814c210 T _ZN10Field_year7val_strEP6StringS1_
0814c290 T _ZN15Field_timestamp7val_strEP6StringS1_
0814c490 T _ZN5Field14val_int_as_strEP6Stringc
0814c530 T _ZN10Field_enum6eq_defEP5Field
0814c600 T _ZNK15Field_varstring8sql_typeER6String
0814c6f0 T _ZNK12Field_string8sql_typeER6String
0814c820 T _ZNK9Field_num25add_zerofill_and_unsignedER6String
0814c8a0 T _ZNK14Field_longlong8sql_typeER6String
0814c900 T _ZNK10Field_long8sql_typeER6String
0814c960 T _ZNK12Field_medium8sql_typeER6String
0814c9c0 T _ZNK11Field_short8sql_typeER6String
0814ca20 T _ZNK10Field_tiny8sql_typeER6String
0814ca80 T _ZNK17Field_new_decimal8sql_typeER6String
0814cae0 T _ZNK13Field_decimal8sql_typeER6String
0814cb60 T _ZN13Field_decimal5storeEPKcjP15charset_info_st
0814d410 T _ZN13Field_decimal5resetEv
0814d440 T _ZNK9Field_set8sql_typeER6String
0814d5e0 T _ZNK10Field_enum8sql_typeER6String
0814d780 T _ZN9Field_set7val_strEP6StringS1_
0814d8b0 T _ZN15Field_varstring5storeEPKcjP15charset_info_st
0814db30 T _ZN15Field_varstring13set_key_imageEPcj
0814db60 T _ZN15Field_varstring5storeExb
0814dbd0 T _ZN12Field_string5storeEPKcjP15charset_info_st
0814de60 T _ZN12Field_string5storeExb
0814def0 T _ZN9Field_set5storeEPKcjP15charset_info_st
0814e150 T _ZN10Field_enum5storeEPKcjP15charset_info_st
0814e320 T _ZN5Field9check_intEPKciS1_P15charset_info_st
0814e4e0 T _ZN10Field_year5storeEPKcjP15charset_info_st
0814e620 T _ZN14Field_longlong5storeEPKcjP15charset_info_st
0814e7e0 T _ZN10Field_long5storeEPKcjP15charset_info_st
0814e9a0 T _ZN12Field_medium5storeEPKcjP15charset_info_st
0814eae0 T _ZN11Field_short5storeEPKcjP15charset_info_st
0814ec60 T _ZN10Field_tiny5storeEPKcjP15charset_info_st
0814edd0 T _ZN10Field_blob5storeEPKcjP15charset_info_st
0814f0b0 T _ZN10Field_blob13set_key_imageEPcj
0814f0e0 T _ZN10Field_geom5storeEPKcjP15charset_info_st
0814f210 T _ZN10Field_geom13store_decimalEPK10my_decimal
0814f240 T _ZN10Field_geom5storeExb
0814f270 T _ZN10Field_geom5storeEd
0814f2a0 T _ZN10Field_geom13get_key_imageEPcjN5Field9imagetypeE
0814f370 T _ZN10Field_blob13get_key_imageEPcjN5Field9imagetypeE
0814f4e0 T _ZNK10Field_blob8sql_typeER6String
0814f5a0 T _ZNK14Field_datetime8sql_typeER6String
0814f5d0 T _ZNK13Field_newdate8sql_typeER6String
0814f600 T _ZNK10Field_date8sql_typeER6String
0814f630 T _ZNK10Field_time8sql_typeER6String
0814f660 T _ZNK15Field_timestamp8sql_typeER6String
0814f690 T _ZNK12Field_double8sql_typeER6String
0814f730 T _ZNK11Field_float8sql_typeER6String
0814f7d0 T _ZN13Field_decimal7val_strEP6StringS1_
0814f850 T _ZNK10Field_null8sql_typeER6String
0814f880 T _ZNK10Field_blob11sort_lengthEv
0814f8c0 T _ZN10Field_blob11val_decimalEP10my_decimal
0814f930 T _ZN15Field_varstring11val_decimalEP10my_decimal
0814f9a0 T _ZN12Field_string11val_decimalEP10my_decimal
0814f9f0 T _ZN10Field_blob5storeExb
0814fab0 T _ZN10Field_blob5storeEd
0814fb20 T _ZN13Field_longstr13store_decimalEPK10my_decimal
0814fbd0 T _ZN17Field_new_decimal7val_strEP6StringS1_
0814fc50 T _ZN14Field_datetime5storeExb
0814fd30 T _ZN13Field_newdate5storeExb
0814fe20 T _ZN10Field_date5storeExb
0814fee0 T _ZN14Field_datetime5storeEd
0814ff80 T _ZN13Field_newdate5storeEd
08150030 T _ZN10Field_date5storeEd
08150140 T _ZN12Field_double7val_intEv
08150190 T _ZN11Field_float7val_intEv
081501d0 T _ZN14Field_longlong5storeEd
08150340 T _ZN10Field_long5storeEd
08150480 T _ZN12Field_medium5storeEd
08150600 T _ZN11Field_short5storeEd
08150710 T _ZN10Field_tiny5storeEd
08150820 T _ZN13Field_newdate5storeEPKcjP15charset_info_st
08150900 T _ZN10Field_date5storeEPKcjP15charset_info_st
081509e0 T _ZN14Field_datetime5storeEPKcjP15charset_info_st
08150ae0 T _ZN10Field_date7val_strEP6StringS1_
08150ba0 T _ZN10Field_time7val_strEP6StringS1_
08150cd0 T _ZN10Field_time5storeEPKcjP15charset_info_st
08150e70 T _ZN15Field_timestamp5storeExb
08151030 T _ZN15Field_timestamp5storeEd
081510d0 T _ZN15Field_timestamp5storeEPKcjP15charset_info_st
08151240 T _ZN12Field_double11sort_stringEPcj
08151270 T _ZN10Field_real11val_decimalEP10my_decimal
08151300 T _ZN17Field_new_decimal21set_value_on_overflowEP10my_decimalb
08151390 T _ZN10Field_real13store_decimalEPK10my_decimal
081513d0 T _ZN17Field_new_decimal8val_realEv
08151410 T _ZN9Field_str13store_decimalEPK10my_decimal
08151460 T _ZN12Field_double5storeEd
081515f0 T _ZN12Field_double5storeEPKcjP15charset_info_st
081516c0 T _ZN11Field_float5storeEd
08151860 T _ZN11Field_float5storeEPKcjP15charset_info_st
08151930 T _ZN17Field_new_decimal11val_decimalEP10my_decimal
08151980 T _ZN17Field_new_decimal7val_intEv
08151a60 T _ZN5Field24convert_decimal2longlongEPK10my_decimalbPi
08151bd0 T _ZN9Field_bit13store_decimalEPK10my_decimal
08151c30 T _ZN9Field_num13store_decimalEPK10my_decimal
08151c90 T _ZN17Field_new_decimal11store_valueEPK10my_decimal
08151db0 T _ZN17Field_new_decimal13store_decimalEPK10my_decimal
08151dd0 T _ZN17Field_new_decimal5storeExb
08151ed0 T _ZN17Field_new_decimal5storeEd
08152010 T _ZN17Field_new_decimal5storeEPKcjP15charset_info_st
081521f0 T _ZN17Field_new_decimal5resetEv
08152210 T _ZN13Field_decimal5storeEd
08152380 T _ZN5Field10quote_dataEP6String
08152480 T _ZN5Field9new_fieldEP11st_mem_rootP8st_table
08152520 T _ZN15Field_varstring9new_fieldEP11st_mem_rootP8st_table
08152560 T _ZN12Field_string9new_fieldEP11st_mem_rootP8st_table
08152680 T _ZN5Field10store_timeEP13st_mysql_time25enum_mysql_timestamp_type
081526d0 T _ZN5Field8get_timeEP13st_mysql_time
08152780 T _ZN5Field8get_dateEP13st_mysql_timej
08152840 T _ZN9Field_num13prepend_zerosEP6String
081528c0 T _ZN12Field_double7val_strEP6StringS1_
081529e0 T _ZN11Field_float7val_strEP6StringS1_
08152b00 T _ZN14Field_longlong7val_strEP6StringS1_
08152bc0 T _ZN10Field_long7val_strEP6StringS1_
08152ca0 T _ZN12Field_medium7val_strEP6StringS1_
08152d90 T _ZN11Field_short7val_strEP6StringS1_
08152e50 T _ZN10Field_tiny7val_strEP6StringS1_
08152f00 W _ZN4ListI12create_fieldEC1Ev
08152f20 W _ZN4ListI12create_fieldEC2Ev
08152f40 W _ZN4ListI12create_fieldEC1ERKS1_
08152f60 W _ZN4ListI12create_fieldEC2ERKS1_
08152f80 W _ZN4ListI12create_fieldE6concatEPS1_
08152fb0 W _ZN4ListI12create_fieldE3popEv
08152fe0 W _ZN4ListI12create_fieldE7disjoinEPS1_
08153020 W _ZN4ListI12create_fieldE7prepandEPS1_
08153050 W _ZN4ListI12create_fieldE4headEv
08153060 W _ZN4ListI12create_fieldE8head_refEv
08153080 W _ZN13List_iteratorI12create_fieldEC1Ev
081530b0 W _ZN13List_iteratorI12create_fieldEC2Ev
081530e0 W _ZN13List_iteratorI12create_fieldE4initER4ListIS0_E
08153100 W _ZN13List_iteratorI12create_fieldEC1ER4ListIS0_E
08153120 W _ZN13List_iteratorI12create_fieldEC2ER4ListIS0_E
08153140 W _ZN13List_iteratorI12create_fieldEppEi
08153160 W _ZN13List_iteratorI12create_fieldE6rewindEv
08153170 W _ZN13List_iteratorI12create_fieldE7replaceEPS0_
08153190 W _ZN13List_iteratorI12create_fieldE7replaceER4ListIS0_E
08153210 W _ZN13List_iteratorI12create_fieldE6removeEv
08153270 W _ZN13List_iteratorI12create_fieldE3refEv
08153280 W _ZN5FieldD1Ev
08153290 W _ZN5FieldD0Ev
081532a0 W _ZNK5Field8cmp_typeEv
081532c0 W _ZNK5Field16cast_to_int_typeEv
081532e0 W _ZNK5Field11pack_lengthEv
081532f0 W _ZNK5Field18pack_length_in_recEv
08153310 W _ZNK5Field11sort_lengthEv
08153330 W _ZN5Field12reset_fieldsEv
08153340 W _ZNK5Field6binaryEv
08153350 W _ZNK5Field9zero_packEv
08153360 W _ZNK5Field8key_typeEv
08153370 W _ZNK5Field10key_lengthEv
08153390 W _ZNK5Field9real_typeEv
081533b0 W _ZN5Field7key_cmpEPKcS1_
081533e0 W _ZN5Field7key_cmpEPKcj
08153410 W _ZNK5Field8decimalsEv
08153420 W _ZNK5Field27can_be_compared_as_longlongEv
08153430 W _ZN5Field4freeEv
08153440 W _ZN5Field8pack_keyEPcPKcj
08153470 W _ZN5Field23pack_key_from_key_imageEPcPKcj
081534a0 W _ZN5Field10unpack_keyEPcPKcj
081534d0 W _ZN5Field17packed_col_lengthEPKcj
081534e0 W _ZN5Field21max_packed_col_lengthEj
081534f0 W _ZN5Field8pack_cmpEPKcS1_jc
08153520 W _ZN5Field8pack_cmpEPKcjc
08153550 W _ZNK5Field7charsetEv
08153560 W _ZNK5Field12sort_charsetEv
08153580 W _ZNK5Field11has_charsetEv
08153590 W _ZN5Field11set_charsetEP15charset_info_st
081535a0 W _ZN9Field_numD0Ev
081535b0 W _ZN9Field_numD1Ev
081535c0 W _ZNK9Field_num11result_typeEv
081535d0 W _ZNK9Field_num8decimalsEv
081535e0 W _ZNK9Field_num7size_ofEv
081535f0 W _ZN9Field_strD0Ev
08153600 W _ZN9Field_strD1Ev
08153610 W _ZNK9Field_str11result_typeEv
08153620 W _ZNK9Field_str8decimalsEv
08153630 W _ZNK9Field_str7size_ofEv
08153640 W _ZNK9Field_str7charsetEv
08153650 W _ZN9Field_str11set_charsetEP15charset_info_st
08153660 W _ZNK9Field_str6binaryEv
08153680 W _ZN9Field_str10max_lengthEv
08153690 W _ZN13Field_longstrD0Ev
081536a0 W _ZN13Field_longstrD1Ev
081536b0 W _ZN10Field_realD0Ev
081536c0 W _ZN10Field_realD1Ev
081536d0 W _ZN13Field_decimalD1Ev
081536e0 W _ZN13Field_decimalD0Ev
081536f0 W _ZNK13Field_decimal4typeEv
08153700 W _ZNK13Field_decimal8key_typeEv
08153720 W _ZNK13Field_decimal9zero_packEv
08153730 W _ZN13Field_decimal10max_lengthEv
08153740 W _ZN17Field_new_decimalD1Ev
08153750 W _ZN17Field_new_decimalD0Ev
08153760 W _ZNK17Field_new_decimal4typeEv
08153770 W _ZNK17Field_new_decimal8key_typeEv
08153780 W _ZNK17Field_new_decimal11result_typeEv
08153790 W _ZNK17Field_new_decimal9zero_packEv
081537a0 W _ZN17Field_new_decimal10max_lengthEv
081537b0 W _ZNK17Field_new_decimal7size_ofEv
081537c0 W _ZNK17Field_new_decimal11pack_lengthEv
081537d0 W _ZN10Field_tinyD0Ev
081537e0 W _ZN10Field_tinyD1Ev
081537f0 W _ZNK10Field_tiny11result_typeEv
08153800 W _ZNK10Field_tiny4typeEv
08153810 W _ZNK10Field_tiny8key_typeEv
08153830 W _ZN10Field_tiny5resetEv
08153840 W _ZNK10Field_tiny11pack_lengthEv
08153850 W _ZN10Field_tiny10max_lengthEv
08153860 W _ZN11Field_shortD1Ev
08153870 W _ZN11Field_shortD0Ev
08153880 W _ZNK11Field_short11result_typeEv
08153890 W _ZNK11Field_short4typeEv
081538a0 W _ZNK11Field_short8key_typeEv
081538c0 W _ZN11Field_short5resetEv
081538e0 W _ZNK11Field_short11pack_lengthEv
081538f0 W _ZN11Field_short10max_lengthEv
08153900 W _ZN12Field_mediumD1Ev
08153910 W _ZN12Field_mediumD0Ev
08153920 W _ZNK12Field_medium11result_typeEv
08153930 W _ZNK12Field_medium4typeEv
08153940 W _ZNK12Field_medium8key_typeEv
08153960 W _ZN12Field_medium5resetEv
08153980 W _ZNK12Field_medium11pack_lengthEv
08153990 W _ZN12Field_medium10max_lengthEv
081539a0 W _ZN10Field_longD1Ev
081539b0 W _ZN10Field_longD0Ev
081539c0 W _ZNK10Field_long11result_typeEv
081539d0 W _ZNK10Field_long4typeEv
081539e0 W _ZNK10Field_long8key_typeEv
08153a00 W _ZN10Field_long5resetEv
08153a20 W _ZNK10Field_long11pack_lengthEv
08153a30 W _ZN10Field_long10max_lengthEv
08153a40 W _ZN14Field_longlongD1Ev
08153a50 W _ZN14Field_longlongD0Ev
08153a60 W _ZNK14Field_longlong11result_typeEv
08153a70 W _ZNK14Field_longlong4typeEv
08153a80 W _ZNK14Field_longlong8key_typeEv
08153aa0 W _ZN14Field_longlong5resetEv
08153ad0 W _ZNK14Field_longlong11pack_lengthEv
08153ae0 W _ZNK14Field_longlong27can_be_compared_as_longlongEv
08153af0 W _ZN14Field_longlong10max_lengthEv
08153b00 W _ZN11Field_floatD1Ev
08153b10 W _ZN11Field_floatD0Ev
08153b20 W _ZNK11Field_float4typeEv
08153b30 W _ZNK11Field_float8key_typeEv
08153b40 W _ZNK11Field_float11pack_lengthEv
08153b50 W _ZN11Field_float10max_lengthEv
08153b60 W _ZN12Field_doubleD1Ev
08153b70 W _ZN12Field_doubleD0Ev
08153b80 W _ZNK12Field_double4typeEv
08153b90 W _ZNK12Field_double8key_typeEv
08153ba0 W _ZNK12Field_double11pack_lengthEv
08153bb0 W _ZN12Field_double10max_lengthEv
08153bc0 W _ZN10Field_nullD1Ev
08153bd0 W _ZN10Field_nullD0Ev
08153be0 W _ZNK10Field_null4typeEv
08153bf0 W _ZN10Field_null5storeEPKcjP15charset_info_st
08153c00 W _ZN10Field_null5storeEd
08153c10 W _ZN10Field_null5storeExb
08153c20 W _ZN10Field_null13store_decimalEPK10my_decimal
08153c30 W _ZN10Field_null5resetEv
08153c40 W _ZN10Field_null8val_realEv
08153c50 W _ZN10Field_null7val_intEv
08153c60 W _ZN10Field_null11val_decimalEP10my_decimal
08153c70 W _ZN10Field_null7val_strEP6StringS1_
08153c80 W _ZN10Field_null3cmpEPKcS1_
08153c90 W _ZN10Field_null11sort_stringEPcj
08153ca0 W _ZNK10Field_null11pack_lengthEv
08153cb0 W _ZNK10Field_null7size_ofEv
08153cc0 W _ZN10Field_null10max_lengthEv
08153cd0 W _ZN15Field_timestampD1Ev
08153ce0 W _ZN15Field_timestampD0Ev
08153cf0 W _ZNK15Field_timestamp4typeEv
08153d00 W _ZNK15Field_timestamp8key_typeEv
08153d10 W _ZNK15Field_timestamp8cmp_typeEv
08153d20 W _ZN15Field_timestamp5resetEv
08153d40 W _ZNK15Field_timestamp11pack_lengthEv
08153d50 W _ZNK15Field_timestamp27can_be_compared_as_longlongEv
08153d60 W _ZNK15Field_timestamp9zero_packEv
08153d70 W _ZN10Field_yearD1Ev
08153d80 W _ZN10Field_yearD0Ev
08153d90 W _ZNK10Field_year4typeEv
08153da0 W _ZNK10Field_year27can_be_compared_as_longlongEv
08153db0 W _ZN10Field_dateD1Ev
08153dc0 W _ZN10Field_dateD0Ev
08153dd0 W _ZNK10Field_date4typeEv
08153de0 W _ZNK10Field_date8key_typeEv
08153df0 W _ZNK10Field_date8cmp_typeEv
08153e00 W _ZN10Field_date5resetEv
08153e20 W _ZNK10Field_date11pack_lengthEv
08153e30 W _ZNK10Field_date27can_be_compared_as_longlongEv
08153e40 W _ZNK10Field_date9zero_packEv
08153e50 W _ZN13Field_newdateD1Ev
08153e60 W _ZN13Field_newdateD0Ev
08153e70 W _ZNK13Field_newdate4typeEv
08153e80 W _ZNK13Field_newdate9real_typeEv
08153e90 W _ZNK13Field_newdate8key_typeEv
08153ea0 W _ZNK13Field_newdate8cmp_typeEv
08153eb0 W _ZN13Field_newdate5resetEv
08153ed0 W _ZNK13Field_newdate11pack_lengthEv
08153ee0 W _ZNK13Field_newdate27can_be_compared_as_longlongEv
08153ef0 W _ZNK13Field_newdate9zero_packEv
08153f00 W _ZN10Field_timeD1Ev
08153f10 W _ZN10Field_timeD0Ev
08153f20 W _ZNK10Field_time4typeEv
08153f30 W _ZNK10Field_time8key_typeEv
08153f40 W _ZNK10Field_time8cmp_typeEv
08153f50 W _ZN10Field_time5resetEv
08153f70 W _ZNK10Field_time11pack_lengthEv
08153f80 W _ZNK10Field_time27can_be_compared_as_longlongEv
08153f90 W _ZNK10Field_time9zero_packEv
08153fa0 W _ZN14Field_datetimeD1Ev
08153fb0 W _ZN14Field_datetimeD0Ev
08153fc0 W _ZNK14Field_datetime4typeEv
08153fd0 W _ZNK14Field_datetime8key_typeEv
08153fe0 W _ZNK14Field_datetime8cmp_typeEv
08153ff0 W _ZNK14Field_datetime8decimalsEv
08154000 W _ZN14Field_datetime5resetEv
08154030 W _ZNK14Field_datetime11pack_lengthEv
08154040 W _ZNK14Field_datetime27can_be_compared_as_longlongEv
08154050 W _ZNK14Field_datetime9zero_packEv
08154060 W _ZN12Field_stringD1Ev
08154070 W _ZN12Field_stringD0Ev
08154080 W _ZNK12Field_string4typeEv
081540c0 W _ZNK12Field_string8key_typeEv
081540e0 W _ZNK12Field_string9zero_packEv
081540f0 W _ZN12Field_string5resetEv
08154150 W _ZNK12Field_string7size_ofEv
08154160 W _ZNK12Field_string9real_typeEv
08154170 W _ZNK12Field_string11has_charsetEv
081541a0 W _ZN15Field_varstringD1Ev
081541b0 W _ZN15Field_varstringD0Ev
081541c0 W _ZNK15Field_varstring4typeEv
081541d0 W _ZNK15Field_varstring9zero_packEv
081541e0 W _ZNK15Field_varstring11pack_lengthEv
081541f0 W _ZNK15Field_varstring10key_lengthEv
08154200 W _ZNK15Field_varstring11sort_lengthEv
08154220 W _ZNK15Field_varstring7size_ofEv
08154230 W _ZNK15Field_varstring9real_typeEv
08154240 W _ZNK15Field_varstring11has_charsetEv
08154270 W _ZNK10Field_blob4typeEv
08154280 W _ZNK10Field_blob8key_typeEv
081542a0 W _ZNK10Field_blob10key_lengthEv
081542b0 W _ZNK10Field_blob11pack_lengthEv
081542d0 W _ZNK10Field_blob7size_ofEv
081542e0 W _ZNK10Field_blob11has_charsetEv
08154310 W _ZNK10Field_geom8key_typeEv
08154320 W _ZNK10Field_geom4typeEv
08154330 W _ZNK10Field_geom7size_ofEv
08154340 W _ZN10Field_enumD0Ev
08154350 W _ZN10Field_enumD1Ev
08154360 W _ZNK10Field_enum4typeEv
08154370 W _ZNK10Field_enum8cmp_typeEv
08154380 W _ZNK10Field_enum16cast_to_int_typeEv
08154390 W _ZNK10Field_enum11pack_lengthEv
081543a0 W _ZNK10Field_enum7size_ofEv
081543b0 W _ZNK10Field_enum9real_typeEv
081543c0 W _ZNK10Field_enum9zero_packEv
081543d0 W _ZN10Field_enum14optimize_rangeEjj
081543e0 W _ZNK10Field_enum11has_charsetEv
081543f0 W _ZNK10Field_enum12sort_charsetEv
08154400 W _ZN9Field_setD1Ev
08154410 W _ZN9Field_setD0Ev
08154420 W _ZNK9Field_set9zero_packEv
08154430 W _ZNK9Field_set9real_typeEv
08154440 W _ZNK9Field_set11has_charsetEv
08154450 W _ZN9Field_bitD0Ev
08154460 W _ZN9Field_bitD1Ev
08154470 W _ZNK9Field_bit4typeEv
08154480 W _ZNK9Field_bit8key_typeEv
08154490 W _ZNK9Field_bit10key_lengthEv
081544b0 W _ZN9Field_bit10max_lengthEv
081544d0 W _ZNK9Field_bit7size_ofEv
081544e0 W _ZNK9Field_bit11result_typeEv
081544f0 W _ZN9Field_bit3cmpEPKcS1_
08154520 W _ZN9Field_bit7key_cmpEPKcS1_
08154550 W _ZN9Field_bit11sort_stringEPcj
08154580 W _ZNK9Field_bit11pack_lengthEv
081545a0 W _ZNK9Field_bit18pack_length_in_recEv
081545b0 W _ZN17Field_bit_as_charD1Ev
081545c0 W _ZN17Field_bit_as_charD0Ev
081545d0 W _ZNK17Field_bit_as_char8key_typeEv
081545e0 W _ZN17Field_bit_as_char10max_lengthEv
081545f0 W _ZNK17Field_bit_as_char7size_ofEv
08154600 W _ZN4ListI12create_fieldE15delete_elementsEv
08154630 W _ZN17Field_bit_as_char5storeEd
08154640 W _ZN17Field_bit_as_char5storeExb
08154650 W _ZN9Field_bit5resetEv
08154680 W _ZN10Field_enum5resetEv
081546b0 W _ZN10Field_blob12reset_fieldsEv
081546d0 W _ZN10Field_blob5resetEv
08154700 W _ZN15Field_varstring5resetEv
08154730 W _ZN12Field_double5resetEv
08154750 W _ZN11Field_float5resetEv
08154770 W _ZN5Field5resetEv
081547a0 W _ZN10Field_geomD0Ev
08154810 W _ZN10Field_geomD1Ev
08154880 W _ZN10Field_blobD0Ev
081548f0 W _ZN10Field_blobD1Ev
08154960 W _ZN10Field_blob4freeEv
081549b0 W _ZN5Field6unpackEPcPKc
081549f0 W _ZN5Field4packEPcPKcj
08154a30 W _ZN5Field13set_key_imageEPcj
08154a50 W _ZN5Field13get_key_imageEPcjNS_9imagetypeE
08154a70 W _ZN5Field11set_defaultEv
08154ae0 W _ZN15Field_timestamp11set_defaultEv
08154b70 W _ZN5Field10cmp_binaryEPKcS1_j
08154bb0 W _ZN15Field_varstring5storeEd
08154bc0 W _ZN12Field_string5storeEd
08154bd0 W _ZN9Field_set5storeEd
08154c10 W _ZN4ListI12create_fieldE9push_backEPS0_
08154c60 W _ZN13List_iteratorI12create_fieldE5afterEPS0_
08154cd0 W _ZN4ListI12create_fieldE10push_frontEPS0_
08154d20 W _ZN9Field_bit13set_key_imageEPcj
08154d50 W _ZN4ListI12create_fieldE9push_backEPS0_P11st_mem_root
08154da0 T _Z9find_typeP10st_typelibPKcjb
08154e90 T _Z10find_type2P10st_typelibPKcjP15charset_info_st
08154f10 T _Z8find_setP10st_typelibPKcjP15charset_info_stPPcPjPb
08155110 T _Z11unhex_type2P10st_typelib
08155220 T _Z10check_wordP10st_typelibPKcS2_PS2_
081552a0 T _Z17check_if_key_usedP8st_tablejR4ListI4ItemE
081553c0 T _Z7key_cmpP16st_key_part_infoPKcj
08155470 T _Z10key_unpackP6StringP8st_tablej
08155600 T _Z15key_cmp_if_sameP8st_tablePKcjj
081557a0 T _Z11key_restorePcS_P6st_keyj
081559b0 T _Z8key_copyPcS_P6st_keyj
08155b60 T _Z12find_ref_keyP8st_tableP5FieldPj
08155c30 T get_var_key
08155c50 T _ZN17Open_tables_stateC2Em
08155c90 T _ZN17Open_tables_stateC1Em
08155cd0 T _Z13add_to_statusP17system_status_varS0_
08155d10 T _ZN3THD26rollback_item_tree_changesEv
08155d80 T _ZN13select_result7cleanupEv
08155d90 T _ZN12sql_exchangeC2EPcb
08155de0 T _ZN12sql_exchangeC1EPcb
08155e30 T _ZN11select_send11send_fieldsER4ListI4ItemEj
08155e80 T _ZN31select_max_min_finder_subselect7cleanupEv
08155e90 T _ZN31select_max_min_finder_subselect8cmp_realEv
08155f80 T _ZN31select_max_min_finder_subselect7cmp_intEv
08156090 T _ZN23select_exists_subselect9send_dataER4ListI4ItemE
081560f0 T _ZN14select_dumpvar7cleanupEv
08156120 T _ZNK11Query_arena4typeEv
08156130 T _ZN11Query_arena10free_itemsEv
08156180 T _ZN3THD19cleanup_after_queryEv
081561d0 T _ZN11Query_arena15set_query_arenaEPS_
081561f0 T _ZN11Query_arena12cleanup_stmtEv
08156200 T _ZNK9Statement4typeEv
08156210 T _ZN9Statement13set_statementEPS_
08156270 T _ZN9Statement22set_n_backup_statementEPS_S0_
081562a0 T _ZN9Statement24restore_backup_statementEPS_S0_
081562d0 T _ZN3THD25set_n_backup_active_arenaEP11Query_arenaS1_
08156310 T _ZN3THD20restore_active_arenaEP11Query_arenaS1_
08156350 t get_statement_id_as_hash_key
08156370 t delete_statement_as_hash_key
08156390 t get_stmt_name_hash_key
081563b0 T _ZN13Statement_map23close_transient_cursorsEv
081563c0 T _ZN15TMP_TABLE_PARAM4initEv
08156410 T _ZN16Security_context4initEv
08156450 T _ZN16Security_context11skip_grantsEv
08156480 T _ZN3THD32reset_n_backup_open_tables_stateEP17Open_tables_state
08156500 T _ZN3THD32restore_backup_open_tables_stateEP17Open_tables_state
08156550 t _Z16xid_get_hash_keyPKcPjc
08156570 t _GLOBAL__I_get_var_key
08156670 t __tcf_2
081566b0 t __tcf_1
081566f0 t __tcf_0
08156730 t _Z13xid_free_hashPv
08156750 T _ZN16Security_context7destroyEv
081567c0 T free_user_var
081567f0 T _Z16xid_cache_deleteP12st_xid_state
08156830 T _Z16xid_cache_insertP12st_xid_state
08156880 T _ZN13Statement_map6insertEP9Statement
081568f0 T _Z16xid_cache_searchP5xid_t
08156940 T _Z16xid_cache_insertP5xid_t9xa_states
08156a60 T _Z14xid_cache_freev
08156a90 T _Z14xid_cache_initv
08156b00 T _ZN13Statement_mapC1Ev
08156bb0 T _ZN13Statement_mapC2Ev
08156c60 T _ZN3THD27restore_sub_statement_stateEP19Sub_statement_state
08156d60 T _ZN3THD25reset_sub_statement_stateEP19Sub_statement_statej
08156f00 T _ZN3THD19set_status_var_initEv
08156f40 T thd_increment_net_big_packet_count
08156f60 T thd_increment_bytes_received
08156f80 T _ZN13select_resultC1Ev
08156fb0 T _ZN13select_resultC2Ev
08156fe0 T _ZN16select_subselectC1EP14Item_subselect
08157010 T _ZN16select_subselectC2EP14Item_subselect
08157040 T thd_increment_bytes_sent
08157070 T _ZN14select_dumpvar8send_eofEv
081570f0 T _ZN13select_result10send_errorEjPKc
08157110 T _ZN14select_dumpvar9send_dataER4ListI4ItemE
081572e0 T _ZN9StatementD0Ev
08157370 T _ZN9StatementD1Ev
08157400 T _ZN9StatementD2Ev
08157490 T _ZN3THD13end_statementEv
081574e0 T _ZN9StatementC1EN11Query_arena10enum_stateEmmm
08157590 T _ZN9StatementC2EN11Query_arena10enum_stateEmmm
08157640 T _ZN14select_dumpvar7prepareER4ListI4ItemEP18st_select_lex_unit
081578e0 T _ZN31select_max_min_finder_subselect7cmp_strEv
08157a80 T _ZN31select_max_min_finder_subselect11cmp_decimalEv
08157bb0 T _ZN26select_singlerow_subselect9send_dataER4ListI4ItemE
08157c80 T _ZN31select_max_min_finder_subselect9send_dataER4ListI4ItemE
08157dd0 T _ZN11select_dump9send_dataER4ListI4ItemE
08158020 t _Z11create_fileP3THDPcP12sql_exchangeP11st_io_cache
081581a0 T _ZN11select_dump7prepareER4ListI4ItemEP18st_select_lex_unit
081581e0 T _ZN13select_export9send_dataER4ListI4ItemE
08158ae0 T _ZN13select_export7prepareER4ListI4ItemEP18st_select_lex_unit
08158c80 T _ZN14select_to_fileD0Ev
08158cd0 T _ZN14select_to_fileD1Ev
08158d20 T _ZN14select_to_fileD2Ev
08158d70 T _ZN13select_exportD0Ev
08158db0 T _ZN13select_exportD1Ev
08158df0 T _ZN13select_exportD2Ev
08158e30 T _ZN14select_to_file7cleanupEv
08158e90 T _ZN14select_to_file8send_eofEv
08158f30 T _ZN14select_to_file10send_errorEjPKc
08158fa0 T _ZN11select_send9send_dataER4ListI4ItemE
081591e0 T _ZN11select_send8send_eofEv
08159260 T _ZN11select_send5abortEv
081592d0 T _ZN3THD33nocheck_register_item_tree_changeEPP4ItemS1_P11st_mem_root
08159340 T _ZN3THD17changed_table_dupEPKcl
081593d0 T _ZN3THD19send_explain_fieldsEP13select_result
08159be0 T _ZN3THD17add_changed_tableEPKcl
08159ca0 T _ZN3THD17add_changed_tableEP8st_table
08159cd0 T _ZN3THD14update_charsetEv
08159d40 T _ZN3THD14convert_stringEP6StringP15charset_info_stS3_
08159dd0 T _ZN3THD14convert_stringEP13st_lex_stringP15charset_info_stPKcjS3_
08159e70 T _ZN3THD13store_globalsEv
08159ef0 T _ZN3THD5awakeENS_12killed_stateE
08159fb0 T _ZN3THD7cleanupEv
0815a110 T _ZN3THDD0Ev
0815a340 T _ZN3THDD1Ev
0815a590 T _ZN3THDD2Ev
0815a7e0 T _ZN3THD16init_for_queriesEv
0815a860 T _ZN3THD4initEv
0815aa00 T _ZN3THD11change_userEv
0815aad0 T _ZN3THDC1Ev
0815b060 T _ZN3THDC2Ev
0815b5f0 T _ZNK13key_part_speceqERKS_
0815b630 T _Z18foreign_key_prefixP3KeyS0_
0815b710 W _ZN4ListI12Alter_columnE15delete_elementsEv
0815b740 W _ZN4ListI10Alter_dropE15delete_elementsEv
0815b770 W _ZN4ListI13key_part_specE15delete_elementsEv
0815b7a0 W _ZN4ListI13key_part_specEC1Ev
0815b7c0 W _ZN4ListI13key_part_specEC2Ev
0815b7e0 W _ZN4ListI3KeyEC1Ev
0815b800 W _ZN4ListI3KeyEC2Ev
0815b820 W _ZN4ListI12Alter_columnEC1Ev
0815b840 W _ZN4ListI12Alter_columnEC2Ev
0815b860 W _ZN4ListI10Alter_dropEC1Ev
0815b880 W _ZN4ListI10Alter_dropEC2Ev
0815b8a0 W _ZN4ListI12Alter_columnEC1ERKS1_
0815b8c0 W _ZN4ListI12Alter_columnEC2ERKS1_
0815b8e0 W _ZN4ListI10Alter_dropEC1ERKS1_
0815b900 W _ZN4ListI10Alter_dropEC2ERKS1_
0815b920 W _ZN4ListI3KeyEC1ERKS1_
0815b940 W _ZN4ListI3KeyEC2ERKS1_
0815b960 W _ZN4ListI13key_part_specEC1ERKS1_
0815b980 W _ZN4ListI13key_part_specEC2ERKS1_
0815b9a0 W _ZN4ListI12Alter_columnE6concatEPS1_
0815b9d0 W _ZN4ListI10Alter_dropE6concatEPS1_
0815ba00 W _ZN4ListI13key_part_specE6concatEPS1_
0815ba30 W _ZN4ListI3KeyE6concatEPS1_
0815ba60 W _ZN4ListI12Alter_columnE3popEv
0815ba90 W _ZN4ListI10Alter_dropE3popEv
0815bac0 W _ZN4ListI13key_part_specE3popEv
0815baf0 W _ZN4ListI3KeyE3popEv
0815bb20 W _ZN4ListI12Alter_columnE7disjoinEPS1_
0815bb60 W _ZN4ListI10Alter_dropE7disjoinEPS1_
0815bba0 W _ZN4ListI13key_part_specE7disjoinEPS1_
0815bbe0 W _ZN4ListI3KeyE7disjoinEPS1_
0815bc20 W _ZN4ListI12Alter_columnE7prepandEPS1_
0815bc50 W _ZN4ListI10Alter_dropE7prepandEPS1_
0815bc80 W _ZN4ListI13key_part_specE7prepandEPS1_
0815bcb0 W _ZN4ListI3KeyE7prepandEPS1_
0815bce0 W _ZN4ListI12Alter_columnE4headEv
0815bcf0 W _ZN4ListI10Alter_dropE4headEv
0815bd00 W _ZN4ListI13key_part_specE4headEv
0815bd10 W _ZN4ListI3KeyE4headEv
0815bd20 W _ZN4ListI12Alter_columnE8head_refEv
0815bd40 W _ZN4ListI10Alter_dropE8head_refEv
0815bd60 W _ZN4ListI13key_part_specE8head_refEv
0815bd80 W _ZN4ListI3KeyE8head_refEv
0815bda0 W _ZN13List_iteratorI12Alter_columnEC1Ev
0815bdd0 W _ZN13List_iteratorI12Alter_columnEC2Ev
0815be00 W _ZN13List_iteratorI10Alter_dropEC1Ev
0815be30 W _ZN13List_iteratorI10Alter_dropEC2Ev
0815be60 W _ZN13List_iteratorI13key_part_specEC1Ev
0815be90 W _ZN13List_iteratorI13key_part_specEC2Ev
0815bec0 W _ZN13List_iteratorI3KeyEC1Ev
0815bef0 W _ZN13List_iteratorI3KeyEC2Ev
0815bf20 W _ZN13List_iteratorI12Alter_columnE4initER4ListIS0_E
0815bf40 W _ZN13List_iteratorI10Alter_dropE4initER4ListIS0_E
0815bf60 W _ZN13List_iteratorI13key_part_specE4initER4ListIS0_E
0815bf80 W _ZN13List_iteratorI3KeyE4initER4ListIS0_E
0815bfa0 W _ZN13List_iteratorI12Alter_columnEC1ER4ListIS0_E
0815bfc0 W _ZN13List_iteratorI12Alter_columnEC2ER4ListIS0_E
0815bfe0 W _ZN13List_iteratorI10Alter_dropEC1ER4ListIS0_E
0815c000 W _ZN13List_iteratorI10Alter_dropEC2ER4ListIS0_E
0815c020 W _ZN13List_iteratorI13key_part_specEC1ER4ListIS0_E
0815c040 W _ZN13List_iteratorI13key_part_specEC2ER4ListIS0_E
0815c060 W _ZN13List_iteratorI3KeyEC1ER4ListIS0_E
0815c080 W _ZN13List_iteratorI3KeyEC2ER4ListIS0_E
0815c0a0 W _ZN13List_iteratorI12Alter_columnEppEi
0815c0c0 W _ZN13List_iteratorI10Alter_dropEppEi
0815c0e0 W _ZN13List_iteratorI13key_part_specEppEi
0815c100 W _ZN13List_iteratorI3KeyEppEi
0815c120 W _ZN13List_iteratorI12Alter_columnE6rewindEv
0815c130 W _ZN13List_iteratorI10Alter_dropE6rewindEv
0815c140 W _ZN13List_iteratorI13key_part_specE6rewindEv
0815c150 W _ZN13List_iteratorI3KeyE6rewindEv
0815c160 W _ZN13List_iteratorI12Alter_columnE7replaceEPS0_
0815c180 W _ZN13List_iteratorI10Alter_dropE7replaceEPS0_
0815c1a0 W _ZN13List_iteratorI13key_part_specE7replaceEPS0_
0815c1c0 W _ZN13List_iteratorI3KeyE7replaceEPS0_
0815c1e0 W _ZN13List_iteratorI12Alter_columnE7replaceER4ListIS0_E
0815c260 W _ZN13List_iteratorI10Alter_dropE7replaceER4ListIS0_E
0815c2e0 W _ZN13List_iteratorI13key_part_specE7replaceER4ListIS0_E
0815c360 W _ZN13List_iteratorI3KeyE7replaceER4ListIS0_E
0815c3e0 W _ZN13List_iteratorI12Alter_columnE6removeEv
0815c440 W _ZN13List_iteratorI10Alter_dropE6removeEv
0815c4a0 W _ZN13List_iteratorI13key_part_specE6removeEv
0815c500 W _ZN13List_iteratorI3KeyE6removeEv
0815c560 W _ZN13List_iteratorI12Alter_columnE3refEv
0815c570 W _ZN13List_iteratorI10Alter_dropE3refEv
0815c580 W _ZN13List_iteratorI13key_part_specE3refEv
0815c590 W _ZN13List_iteratorI3KeyE3refEv
0815c5a0 W _ZNK15Item_return_int10field_typeEv
0815c5b0 W _ZN4ListI3KeyE15delete_elementsEv
0815c5e0 W _ZN13select_resultD1Ev
0815c5f0 W _ZN13select_resultD0Ev
0815c600 W _ZNK13select_result11field_countER4ListI4ItemE
0815c610 W _ZN11select_sendD1Ev
0815c620 W _ZN11select_sendD0Ev
0815c630 W _ZN11select_send13simple_selectEv
0815c640 W _ZN26select_singlerow_subselectD1Ev
0815c650 W _ZN26select_singlerow_subselectD0Ev
0815c660 W _ZN31select_max_min_finder_subselectD1Ev
0815c670 W _ZN31select_max_min_finder_subselectD0Ev
0815c680 W _ZN23select_exists_subselectD1Ev
0815c690 W _ZN23select_exists_subselectD0Ev
0815c6a0 W _ZN14select_dumpvarD1Ev
0815c6b0 W _ZN14select_dumpvarD0Ev
0815c6c0 W _ZThn12_NK9Statement4typeEv
0815c6d0 W _ZN11Query_arenaD0Ev
0815c6f0 W _ZN11Query_arenaD1Ev
0815c700 W _ZN15Item_return_intD0Ev
0815c760 W _ZN15Item_return_intD1Ev
0815c7c0 W _ZN5ilinkD0Ev
0815c800 W _ZN5ilinkD1Ev
0815c840 W _ZN18Item_change_recordD0Ev
0815c880 W _ZN18Item_change_recordD1Ev
0815c8c0 W _ZThn12_N9StatementD0Ev
0815c8d0 W _ZThn12_N9StatementD1Ev
0815c8e0 W _ZN4ListI12Alter_columnE9push_backEPS0_
0815c930 W _ZN4ListI10Alter_dropE9push_backEPS0_
0815c980 W _ZN4ListI13key_part_specE9push_backEPS0_
0815c9d0 W _ZN4ListI3KeyE9push_backEPS0_
0815ca20 W _ZN13List_iteratorI12Alter_columnE5afterEPS0_
0815ca90 W _ZN13List_iteratorI10Alter_dropE5afterEPS0_
0815cb00 W _ZN13List_iteratorI13key_part_specE5afterEPS0_
0815cb70 W _ZN13List_iteratorI3KeyE5afterEPS0_
0815cbe0 W _ZN4ListI12Alter_columnE10push_frontEPS0_
0815cc30 W _ZN4ListI10Alter_dropE10push_frontEPS0_
0815cc80 W _ZN4ListI13key_part_specE10push_frontEPS0_
0815ccd0 W _ZN4ListI3KeyE10push_frontEPS0_
0815cd20 W _ZN11select_dumpD0Ev
0815cd40 W _ZN11select_dumpD1Ev
0815cd60 W _ZN4ListI12Alter_columnE9push_backEPS0_P11st_mem_root
0815cdb0 W _ZN4ListI10Alter_dropE9push_backEPS0_P11st_mem_root
0815ce00 W _ZN4ListI13key_part_specE9push_backEPS0_P11st_mem_root
0815ce50 W _ZN4ListI3KeyE9push_backEPS0_P11st_mem_root
0815cea0 W _ZThn12_N3THDD0Ev
0815ceb0 W _ZThn12_N3THDD1Ev
0815cec0 t __tcf_0
0815ced0 T _Z9free_listP6I_ListI13i_string_pairE
0815cf30 T _Z9free_listP6I_ListI8i_stringE
0815cf90 t _GLOBAL__I__Z9free_listP6I_ListI13i_string_pairE
0815cfd0 T net_clear
0815d060 t _Z13net_safe_readP6st_netPcjPPi
0815d0e0 T net_real_write
0815d420 t _Z14net_write_buffP6st_netPKcm
0815d570 T net_flush
0815d5c0 T net_write_command
0815d6f0 T net_end
0815d710 T my_net_write
0815d800 T net_realloc
0815d8a0 t _Z12my_real_readP6st_netPm
0815dc70 T my_net_read
0815def0 T my_net_init
0815dfe0 T _Z16net_store_lengthPcj
0815e010 T _ZN8Protocol4initEP3THD
0815e030 T _ZN15Protocol_simple18prepare_for_resendEv
0815e050 T _ZN13Protocol_prep10store_nullEv
0815e090 T _ZN13Protocol_prep5storeEP5Field
0815e100 T _ZN13Protocol_prep5storeEdjP6String
0815e170 T _ZN13Protocol_prep14store_longlongExb
0815e1e0 T _ZN13Protocol_prep10store_longEx
0815e250 T _ZN13Protocol_prep11store_shortEx
0815e2c0 T _ZN13Protocol_prep10store_timeEP13st_mysql_time
0815e3c0 T _ZN13Protocol_prep5storeEP13st_mysql_time
0815e4a0 T _ZN13Protocol_prep10store_dateEP13st_mysql_time
0815e4e0 T _ZN13Protocol_prep10store_tinyEx
0815e550 T _ZN15Protocol_simple10store_nullEv
0815e5c0 T _ZN13Protocol_prep5storeEfjP6String
0815e620 T _Z14net_store_dataPcPKcj
0815e660 T _ZN13Protocol_prep13store_decimalEPK10my_decimal
0815e720 T _ZN13Protocol_prep18prepare_for_resendEv
0815e760 T _ZN13Protocol_prep16prepare_for_sendEP4ListI4ItemE
0815e7b0 T _Z14net_store_dataPcx
0815e820 T _Z14net_store_dataPci
0815e890 T _ZN8Protocol5storeEP6I_ListI8i_stringE
0815ea20 T _ZN8Protocol5storeEPKcP15charset_info_st
0815ea80 T _ZN8Protocol5writeEv
0815eac0 t _Z16write_eof_packetP3THDP6st_net
0815eb50 T _ZN8Protocol5flushEv
0815eb80 T _Z25send_old_password_requestP3THD
0815ebe0 T _Z8send_eofP3THD
0815ec40 T _Z7send_okP3THDyyPKc
0815ed90 T _ZN8Protocol14net_store_dataEPKcj
0815ee20 T _ZN15Protocol_simple10store_timeEP13st_mysql_time
0815ef10 T _ZN15Protocol_simple10store_dateEP13st_mysql_time
0815ef50 T _ZN15Protocol_simple5storeEP13st_mysql_time
0815f010 T _ZN15Protocol_simple5storeEdjP6String
0815f060 T _ZN15Protocol_simple5storeEfjP6String
0815f0b0 T _ZN15Protocol_simple13store_decimalEPK10my_decimal
0815f160 T _ZN15Protocol_simple14store_longlongExb
0815f1b0 T _ZN15Protocol_simple10store_longEx
0815f200 T _ZN15Protocol_simple11store_shortEx
0815f240 T _ZN15Protocol_simple10store_tinyEx
0815f280 T _ZN8Protocol16store_string_auxEPKcjP15charset_info_stS3_
0815f350 T _ZN13Protocol_prep5storeEPKcjP15charset_info_stS3_
0815f390 T _ZN13Protocol_prep5storeEPKcjP15charset_info_st
0815f3d0 T _ZN15Protocol_simple5storeEP5Field
0815f4e0 T _ZN15Protocol_simple5storeEPKcjP15charset_info_st
0815f520 T _ZN15Protocol_simple5storeEPKcjP15charset_info_stS3_
0815f560 T _ZN8Protocol11send_fieldsEP4ListI4ItemEj
0815fb10 T _Z16net_printf_errorP3THDjz
0815fdb0 T _Z14net_send_errorP3THDjPKc
08160000 W _ZN8Protocol16prepare_for_sendEP4ListI4ItemE
08160020 W _ZN13Protocol_prepD0Ev
08160040 W _ZN13Protocol_prepD1Ev
08160050 W _ZN15Protocol_simpleD0Ev
08160070 W _ZN15Protocol_simpleD1Ev
08160080 W _ZN8ProtocolD0Ev
081600a0 W _ZN8ProtocolD1Ev
081600b0 T mysql_errno_to_sqlstate
08160110 T _Z34make_global_read_lock_block_commitP3THD
08160240 T _Z21lock_global_read_lockP3THD
081603b0 T _Z30start_waiting_global_read_lockP3THD
08160420 T _Z23unlock_global_read_lockP3THD
081604b0 T _Z24wait_if_global_read_lockP3THDbb
08160660 T _Z27wait_for_locked_table_namesP3THDP13st_table_list
081606e0 T _Z17unlock_table_nameP3THDP13st_table_list
08160710 T _Z18unlock_table_namesP3THDP13st_table_listS2_
08160760 T _Z16mysql_lock_mergeP13st_mysql_lockS0_
081608f0 T _Z15lock_table_nameP3THDP13st_table_list
08160a50 T _Z16lock_table_namesP3THDP13st_table_list
08160ad0 T _Z28lock_and_wait_for_table_nameP3THDP13st_table_list
08160b90 t _Z13get_lock_dataP3THDPP8st_tablejbS3_
08160d80 T _Z27mysql_lock_abort_for_threadP3THDP8st_table
08160e10 t _Z16print_lock_erroriPKc
08160e90 t _Z15unlock_externalP3THDPP8st_tablej
08160f20 T _Z16mysql_lock_abortP3THDP8st_table
08160f80 T _Z24mysql_unlock_read_tablesP3THDP13st_mysql_lock
08161030 T _Z19mysql_unlock_tablesP3THDP13st_mysql_lock
08161090 T _Z24mysql_unlock_some_tablesP3THDPP8st_tablej
081610d0 T _Z17mysql_lock_removeP3THDP13st_mysql_lockP8st_table
08161180 T _Z17mysql_lock_tablesP3THDPP8st_tablejjPb
081614e0 T my_lock
08161650 T _ZN6String8strip_spEv
081616b0 T _ZN6String8numcharsEv
081616e0 T _ZN6String7charposEij
08161730 T _ZN6String6strstrERKS_j
081617d0 T _ZN6String7strrstrERKS_j
08161880 T _Z7sortcmpPK6StringS1_P15charset_info_st
081618d0 T _Z16copy_and_convertPcjP15charset_info_stPKcjS1_Pj
081619b0 T _ZN6String4swapERS_
08161a00 T _ZN6String9qs_appendEPKcj
08161a40 T _Z9stringcmpPK6StringS1_
08161aa0 T _ZN6String9qs_appendEj
08161ae0 T _ZN6String9qs_appendEi
08161b20 T _ZN6String9qs_appendEd
08161b60 T _ZN6String9qs_appendEPd
08161b90 T _ZN6String16needs_conversionEjP15charset_info_stS1_Pj
08161c10 T _ZN6String7reallocEj
08161cd0 T _Z19copy_if_not_allocedP6StringS0_j
08161d70 T _ZN6String7reserveEjj
08161dc0 T _ZN6String7replaceEjjPKcj
08161ed0 T _ZN6String7replaceEjjRKS_
08161f10 T _ZN6String6appendEPKcjP15charset_info_st
08162010 T _ZN6String6appendEPKcj
08162100 T _ZN6String5printEPS_
08162250 T _ZN6String19append_with_prefillEPKcjjc
081622e0 T _ZN6String6appendEPKc
08162310 T _ZN6String6appendERKS_
08162380 T _ZN6String4fillEjc
08162400 T _ZN6String4copyEv
08162430 T _ZN6String10real_allocEj
081624c0 T _ZN6String6appendEP11st_io_cachej
081625a0 T _ZN6String12copy_alignedEPKcjjP15charset_info_st
08162640 T _ZN6String19set_or_copy_alignedEPKcjP15charset_info_st
081626e0 T _ZN6String4copyEPKcjP15charset_info_st
08162760 T _ZN6String4copyEPKcjP15charset_info_stS3_Pj
08162890 T _ZN6String9set_asciiEPKcj
08162930 T _ZN6String3setEdjP15charset_info_st
08162a40 T _ZN6String4copyERKS_
08162ab0 T _ZN6String3setEyP15charset_info_st
08162b50 T _ZN6String3setExP15charset_info_st
08162bf0 T handle_manager
08162dd0 t __tcf_0
08162e10 t _GLOBAL__I__ZN12mapped_filesC2EPcS0_j
08162e60 T _Z10unmap_fileP12mapped_files
08162eb0 T _ZN12mapped_filesD0Ev
08162f40 T _ZN12mapped_filesD1Ev
08162fd0 T _ZN12mapped_filesD2Ev
08163060 T _ZN12mapped_filesC1EPcS0_j
08163220 T _Z8map_filePcS_j
081633a0 T _ZN12mapped_filesC2EPcS0_j
08163560 W _ZN6I_ListI12mapped_filesE5emptyEv
08163570 W _ZN6I_ListI12mapped_filesE8is_emptyEv
08163590 W _ZN6I_ListI12mapped_filesE6appendEPS0_
081635b0 W _ZN6I_ListI12mapped_filesE9push_backEPS0_
081635e0 W _ZN6I_ListI12mapped_filesE3getEv
08163620 W _ZN6I_ListI12mapped_filesE4headEv
08163640 W _ZN15I_List_iteratorI12mapped_filesEC1ER6I_ListIS0_E
08163660 W _ZN15I_List_iteratorI12mapped_filesEC2ER6I_ListIS0_E
08163680 W _ZN15I_List_iteratorI12mapped_filesEppEi
081636b0 W _ZN6I_ListI12mapped_filesEC1Ev
081636d0 W _ZN6I_ListI12mapped_filesEC2Ev
081636f0 t __tcf_7
08163730 t __tcf_6
08163770 t __tcf_0
081637b0 t __tcf_5
081637f0 t __tcf_4
08163830 t __tcf_3
08163870 t __tcf_2
081638b0 t __tcf_1
081638f0 t _GLOBAL__I_myisam_stats_method_str
08163d40 t _Z18my_str_free_mysqldPv
08163d50 T _Z31fn_format_relative_to_data_homePcPKcS1_S1_
08163dd0 t _Z20my_str_malloc_mysqldj
08163df0 T _Z10kill_mysqlv
08163e20 t _Z9bootstrapP8_IO_FILE
08163f30 T _Z18flush_thread_cachev
08163fb0 t _Z18mysql_getopt_valuePKcjPK9my_option
08164050 t _Z17get_relative_pathPKc
08164090 t _Z9set_portsv
08164140 t _Z9fix_pathsv
081643a0 t _Z27init_global_datetime_format25enum_mysql_timestamp_typePP19st_date_time_format
08164440 t _Z13find_bit_typePKcP10st_typelib
08164590 t _Z21option_error_reporter8loglevelPKcz
081645c0 t _Z18set_server_versionv
08164630 t _Z13print_versionv
08164680 t _Z14get_one_optioniPK9my_optionPc
08165170 t _Z24test_if_case_insensitivePKc
08165270 t _Z29wait_for_signal_thread_to_endv
081652d0 t _Z16clean_up_mutexesv
08165440 t _Z14my_message_sqljPKci
081655a0 T signal_hand
08165880 T handle_segfault
08165b60 T _Z10end_threadP3THDb
08165d40 T end_thread_signal
08165d80 T _Z16close_connectionP3THDjb
08165e20 T handle_connections_sockets
081664b0 T _Z7yyerrorPKc
08166580 t _Z8clean_upb
08166830 T unireg_abort
08166890 t _Z21init_common_variablesPKciPPcPS0_
08167ab0 t _Z8set_userPKcP6passwd
08167b40 T main
08169100 T _Z10unireg_endv
08169130 T print_signal_warning
081691e0 T kill_server_thread
08169670 W _ZN6I_ListI8i_stringE5emptyEv
08169680 W _ZN6I_ListI13i_string_pairE5emptyEv
08169690 W _ZN6I_ListI10NAMED_LISTE5emptyEv
081696a0 W _ZN6I_ListI3THDE5emptyEv
081696b0 W _ZN6I_ListI9StatementE5emptyEv
081696c0 W _ZN6I_ListI9StatementE8is_emptyEv
081696e0 W _ZN6I_ListI10NAMED_LISTE8is_emptyEv
08169700 W _ZN6I_ListI13i_string_pairE8is_emptyEv
08169720 W _ZN6I_ListI8i_stringE8is_emptyEv
08169740 W _ZN6I_ListI3THDE8is_emptyEv
08169760 W _ZN6I_ListI9StatementE6appendEPS0_
08169780 W _ZN6I_ListI10NAMED_LISTE6appendEPS0_
081697a0 W _ZN6I_ListI13i_string_pairE6appendEPS0_
081697c0 W _ZN6I_ListI8i_stringE6appendEPS0_
081697e0 W _ZN6I_ListI3THDE6appendEPS0_
08169800 W _ZN6I_ListI9StatementE9push_backEPS0_
08169830 W _ZN6I_ListI3THDE9push_backEPS0_
08169860 W _ZN6I_ListI13i_string_pairE9push_backEPS0_
08169890 W _ZN6I_ListI8i_stringE9push_backEPS0_
081698c0 W _ZN6I_ListI10NAMED_LISTE9push_backEPS0_
081698f0 W _ZN6I_ListI9StatementE3getEv
08169930 W _ZN6I_ListI10NAMED_LISTE3getEv
08169970 W _ZN6I_ListI13i_string_pairE3getEv
081699b0 W _ZN6I_ListI8i_stringE3getEv
081699f0 W _ZN6I_ListI3THDE3getEv
08169a30 W _ZN6I_ListI9StatementE4headEv
08169a50 W _ZN6I_ListI10NAMED_LISTE4headEv
08169a70 W _ZN6I_ListI13i_string_pairE4headEv
08169a90 W _ZN6I_ListI8i_stringE4headEv
08169ab0 W _ZN6I_ListI3THDE4headEv
08169ad0 W _ZN15I_List_iteratorI9StatementEC1ER6I_ListIS0_E
08169af0 W _ZN15I_List_iteratorI9StatementEC2ER6I_ListIS0_E
08169b10 W _ZN15I_List_iteratorI3THDEC1ER6I_ListIS0_E
08169b30 W _ZN15I_List_iteratorI3THDEC2ER6I_ListIS0_E
08169b50 W _ZN15I_List_iteratorI9StatementEppEi
08169b80 W _ZN15I_List_iteratorI3THDEppEi
08169bb0 W _ZN6I_ListI9StatementEC1Ev
08169bd0 W _ZN6I_ListI9StatementEC2Ev
08169bf0 W _ZN6I_ListI10NAMED_LISTEC1Ev
08169c10 W _ZN6I_ListI10NAMED_LISTEC2Ev
08169c30 W _ZN6I_ListI8i_stringEC1Ev
08169c50 W _ZN6I_ListI8i_stringEC2Ev
08169c70 W _ZN6I_ListI13i_string_pairEC1Ev
08169c90 W _ZN6I_ListI13i_string_pairEC2Ev
08169cb0 W _ZN6I_ListI3THDEC1Ev
08169cd0 W _ZN6I_ListI3THDEC2Ev
08169cf0 W _ZN13i_string_pairD0Ev
08169d30 W _ZN13i_string_pairD1Ev
08169d70 W _ZN8i_stringD0Ev
08169db0 W _ZN8i_stringD1Ev
08169df0 T randominit
08169e30 T my_rnd
08169e80 T hash_password
08169f10 T check_scramble_323
0816a0a0 T get_salt_from_password_323
0816a130 T create_random_string
0816a1a0 T octet2hex
0816a1f0 t my_crypt
0816a230 T get_salt_from_password
0816a2e0 T make_password_from_salt
0816a310 T check_scramble
0816a3d0 T scramble
0816a4b0 T make_scrambled_password
0816a550 T scramble_323
0816a6c0 T make_password_from_salt_323
0816a6f0 T make_scrambled_password_323
0816a740 T _Z17reset_host_errorsP7in_addr
0816a7d0 T _Z15inc_host_errorsP7in_addr
0816a860 t _Z12add_hostnameP7in_addrPKc
0816aa00 T _Z14ip_to_hostnameP7in_addrPj
0816ac70 T _Z19hostname_cache_freev
0816ace0 T _Z19hostname_cache_initv
0816ade0 T _Z22hostname_cache_refreshv
0816ae90 T _ZN7sys_var5checkEP3THDP7set_var
0816aec0 t _Z24fix_low_priority_updatesP3THD13enum_var_type
0816aef0 t _Z29fix_myisam_max_sort_file_sizeP3THD13enum_var_type
0816af10 t _Z17fix_max_join_sizeP3THD13enum_var_type
0816af70 t _Z16fix_tx_isolationP3THD13enum_var_type
0816af90 t _Z19fix_completion_typeP3THD13enum_var_type
0816afa0 t _Z20fix_net_read_timeoutP3THD13enum_var_type
0816afc0 t _Z21fix_net_write_timeoutP3THD13enum_var_type
0816afe0 t _Z19fix_net_retry_countP3THD13enum_var_type
0816b000 T _Z19fix_delay_key_writeP3THD13enum_var_type
0816b040 t _Z13fix_server_idP3THD13enum_var_type
0816b050 T _ZN16sys_var_long_ptr5checkEP3THDP7set_var
0816b0a0 T _ZN16sys_var_long_ptr11set_defaultEP3THD13enum_var_type
0816b0c0 T _ZN16sys_var_bool_ptr6updateEP3THDP7set_var
0816b0e0 T _ZN16sys_var_bool_ptr11set_defaultEP3THD13enum_var_type
0816b100 T _ZN12sys_var_enum6updateEP3THDP7set_var
0816b120 T _ZN12sys_var_enum9value_ptrEP3THD13enum_var_typeP13st_lex_string
0816b140 T _ZN17sys_var_thd_ulong5checkEP3THDP7set_var
0816b1c0 T _ZN17sys_var_thd_ulong11set_defaultEP3THD13enum_var_type
0816b200 T _ZN17sys_var_thd_ulong9value_ptrEP3THD13enum_var_typeP13st_lex_string
0816b230 T _ZN19sys_var_thd_ha_rows9value_ptrEP3THD13enum_var_typeP13st_lex_string
0816b260 T _ZN21sys_var_thd_ulonglong9value_ptrEP3THD13enum_var_typeP13st_lex_string
0816b290 T _ZN16sys_var_thd_bool6updateEP3THDP7set_var
0816b2d0 T _ZN16sys_var_thd_bool11set_defaultEP3THD13enum_var_type
0816b310 T _ZN16sys_var_thd_bool9value_ptrEP3THD13enum_var_typeP13st_lex_string
0816b340 T _ZN16sys_var_thd_enum6updateEP3THDP7set_var
0816b380 T _ZN16sys_var_thd_enum11set_defaultEP3THD13enum_var_type
0816b3c0 T _ZN16sys_var_thd_enum9value_ptrEP3THD13enum_var_typeP13st_lex_string
0816b400 T _ZN15sys_var_thd_bit6updateEP3THDP7set_var
0816b430 T _ZN15sys_var_thd_bit9value_ptrEP3THD13enum_var_typeP13st_lex_string
0816b4b0 T _ZN21sys_var_character_set9value_ptrEP3THD13enum_var_typeP13st_lex_string
0816b4e0 T _ZN32sys_var_character_set_connection6ci_ptrEP3THD13enum_var_type
0816b500 T _ZN28sys_var_character_set_client6ci_ptrEP3THD13enum_var_type
0816b520 T _ZN29sys_var_character_set_results6ci_ptrEP3THD13enum_var_type
0816b540 T _ZN28sys_var_character_set_server6ci_ptrEP3THD13enum_var_type
0816b560 T _ZN30sys_var_character_set_database6ci_ptrEP3THD13enum_var_type
0816b580 T _ZN28sys_var_collation_connection9value_ptrEP3THD13enum_var_typeP13st_lex_string
0816b5b0 T _ZN26sys_var_collation_database9value_ptrEP3THD13enum_var_typeP13st_lex_string
0816b5e0 T _ZN24sys_var_collation_server9value_ptrEP3THD13enum_var_typeP13st_lex_string
0816b610 T _ZN24set_var_collation_client5checkEP3THD
0816b620 T _ZN17sys_var_timestamp6updateEP3THDP7set_var
0816b650 T _ZN17sys_var_timestamp11set_defaultEP3THD13enum_var_type
0816b660 T _ZN17sys_var_timestamp9value_ptrEP3THD13enum_var_typeP13st_lex_string
0816b680 T _ZN22sys_var_last_insert_id6updateEP3THDP7set_var
0816b6b0 T _ZN22sys_var_last_insert_id9value_ptrEP3THD13enum_var_typeP13st_lex_string
0816b710 T _ZN17sys_var_insert_id6updateEP3THDP7set_var
0816b730 T _ZN17sys_var_insert_id9value_ptrEP3THD13enum_var_typeP13st_lex_string
0816b740 T _ZN26sys_var_sync_binlog_period6updateEP3THDP7set_var
0816b760 T _ZN18sys_var_rand_seed16updateEP3THDP7set_var
0816b780 T _ZN18sys_var_rand_seed26updateEP3THDP7set_var
0816b7a0 T _ZN21sys_var_thd_time_zone9value_ptrEP3THD13enum_var_typeP13st_lex_string
0816b7e0 T _ZN21sys_var_max_user_conn9value_ptrEP3THD13enum_var_typeP13st_lex_string
0816b810 t _Z14set_option_bitP3THDP7set_var
0816b8a0 t _Z11set_log_binP3THDP7set_var
0816b8d0 t _Z17get_warning_countP3THD
0816b900 t _Z15get_error_countP3THD
0816b920 t _Z15get_have_innodbP3THD
0816b940 t _Z18get_sys_var_lengthPK7sys_varPjc
0816b960 T _Z24not_all_support_one_shotP4ListI12set_var_baseE
0816b9c0 T _ZN7set_var6updateEP3THD
0816ba40 T _ZN12set_var_user11light_checkEP3THD
0816ba70 T _ZN26sys_var_thd_storage_engine11set_defaultEP3THD13enum_var_type
0816bab0 T _ZN26sys_var_thd_storage_engine6updateEP3THDP7set_var
0816baf0 T _ZN20sys_var_thd_sql_mode11set_defaultEP3THD13enum_var_type
0816bb20 T _Z12fix_sql_modem
0816bb90 T _Z16fix_sql_mode_varP3THD13enum_var_type
0816bc00 T _Z15delete_elementsP6I_ListI10NAMED_LISTEPFvPKcPcE
0816bc70 T _Z18process_key_cachesPFiPKcP12st_key_cacheE
0816bcd0 t __tcf_34
0816bce0 t __tcf_98
0816bd00 t __tcf_100
0816bd20 t __tcf_101
0816bd30 t __tcf_57
0816bd40 t __tcf_156
0816bd50 t __tcf_153
0816bd60 t __tcf_152
0816bd70 t __tcf_102
0816bd80 t __tcf_151
0816bd90 t __tcf_148
0816bda0 t __tcf_147
0816bdb0 t __tcf_146
0816bdc0 t __tcf_145
0816bdd0 t __tcf_32
0816bde0 t __tcf_31
0816bdf0 t __tcf_30
0816be00 t __tcf_29
0816be10 t __tcf_14
0816be30 t __tcf_13
0816be50 t __tcf_12
0816be70 t __tcf_7
0816be90 t __tcf_5
0816beb0 t __tcf_10
0816bed0 t __tcf_8
0816bef0 t __tcf_9
0816bf10 t __tcf_128
0816bf20 t __tcf_127
0816bf30 t __tcf_126
0816bf40 t __tcf_143
0816bf50 t __tcf_142
0816bf60 t __tcf_141
0816bf70 t __tcf_140
0816bf80 t __tcf_139
0816bf90 t __tcf_138
0816bfa0 t __tcf_137
0816bfb0 t __tcf_136
0816bfc0 t __tcf_135
0816bfd0 t __tcf_134
0816bfe0 t __tcf_133
0816bff0 t __tcf_132
0816c000 t __tcf_131
0816c010 t __tcf_130
0816c020 t __tcf_129
0816c030 t __tcf_110
0816c040 t __tcf_99
0816c050 t __tcf_89
0816c060 t __tcf_65
0816c070 t __tcf_125
0816c080 t __tcf_118
0816c090 t __tcf_117
0816c0a0 t __tcf_90
0816c0b0 t __tcf_71
0816c0c0 t __tcf_70
0816c0d0 t __tcf_39
0816c0e0 t __tcf_38
0816c0f0 t __tcf_62
0816c100 t __tcf_144
0816c110 t __tcf_53
0816c120 t __tcf_50
0816c130 t __tcf_155
0816c140 t __tcf_154
0816c150 t __tcf_113
0816c160 t __tcf_111
0816c170 t __tcf_105
0816c180 t __tcf_104
0816c190 t __tcf_103
0816c1a0 t __tcf_97
0816c1b0 t __tcf_86
0816c1c0 t __tcf_85
0816c1d0 t __tcf_84
0816c1e0 t __tcf_83
0816c1f0 t __tcf_82
0816c200 t __tcf_78
0816c210 t __tcf_77
0816c220 t __tcf_75
0816c230 t __tcf_74
0816c240 t __tcf_73
0816c250 t __tcf_72
0816c260 t __tcf_69
0816c270 t __tcf_68
0816c280 t __tcf_67
0816c290 t __tcf_66
0816c2a0 t __tcf_64
0816c2b0 t __tcf_63
0816c2c0 t __tcf_60
0816c2d0 t __tcf_58
0816c2e0 t __tcf_56
0816c2f0 t __tcf_55
0816c300 t __tcf_52
0816c310 t __tcf_51
0816c320 t __tcf_49
0816c330 t __tcf_48
0816c340 t __tcf_47
0816c350 t __tcf_46
0816c360 t __tcf_45
0816c370 t __tcf_40
0816c380 t __tcf_37
0816c390 t __tcf_36
0816c3a0 t __tcf_28
0816c3b0 t __tcf_27
0816c3c0 t __tcf_11
0816c3d0 t __tcf_4
0816c3e0 t __tcf_1
0816c3f0 t __tcf_0
0816c400 t __tcf_17
0816c410 t __tcf_112
0816c420 t __tcf_106
0816c430 t __tcf_93
0816c440 t __tcf_91
0816c450 t __tcf_79
0816c460 t __tcf_76
0816c470 t __tcf_35
0816c480 t __tcf_33
0816c490 t __tcf_22
0816c4a0 t __tcf_2
0816c4b0 t __tcf_124
0816c4c0 t __tcf_123
0816c4d0 t __tcf_122
0816c4e0 t __tcf_121
0816c4f0 t __tcf_120
0816c500 t __tcf_119
0816c510 t __tcf_116
0816c520 t __tcf_115
0816c530 t __tcf_114
0816c540 t __tcf_109
0816c550 t __tcf_108
0816c560 t __tcf_107
0816c570 t __tcf_96
0816c580 t __tcf_95
0816c590 t __tcf_94
0816c5a0 t __tcf_92
0816c5b0 t __tcf_88
0816c5c0 t __tcf_87
0816c5d0 t __tcf_81
0816c5e0 t __tcf_80
0816c5f0 t __tcf_61
0816c600 t __tcf_59
0816c610 t __tcf_54
0816c620 t __tcf_44
0816c630 t __tcf_43
0816c640 t __tcf_42
0816c650 t __tcf_41
0816c660 t __tcf_23
0816c670 t __tcf_21
0816c680 t __tcf_20
0816c690 t __tcf_19
0816c6a0 t __tcf_18
0816c6b0 t __tcf_16
0816c6c0 t __tcf_15
0816c6d0 t __tcf_3
0816c6e0 t __tcf_26
0816c6f0 t __tcf_25
0816c700 t __tcf_24
0816c710 t __tcf_158
0816c720 t __tcf_150
0816c730 t __tcf_149
0816c740 t __tcf_159
0816c750 t __tcf_157
0816c760 t __tcf_6
0816c770 t _GLOBAL__I_bool_type_names
08171f70 t _Z14set_log_updateP3THDP7set_var
08171ff0 t _Z16check_log_updateP3THDP7set_var
08172040 t _Z22check_pseudo_thread_idP3THDP7set_var
081720b0 T _ZN21sys_var_max_user_conn5checkEP3THDP7set_var
08172100 T _ZN11sys_var_str5checkEP3THDP7set_var
08172180 t _Z21set_option_autocommitP3THDP7set_var
081722b0 t _Z28fix_query_cache_min_res_unitP3THD13enum_var_type
081722e0 t _Z18fix_trans_mem_rootP3THD13enum_var_type
08172320 t _Z16fix_thd_mem_rootP3THD13enum_var_type
08172350 T _ZN30sys_var_trust_routine_creators15warn_deprecatedEP3THD
081723a0 T _ZN30sys_var_trust_routine_creators6updateEP3THDP7set_var
081723e0 T _ZN30sys_var_trust_routine_creators11set_defaultEP3THD13enum_var_type
08172420 T _ZN22sys_var_thd_table_type15warn_deprecatedEP3THD
08172470 T _ZN22sys_var_thd_table_type6updateEP3THDP7set_var
081724b0 T _ZN22sys_var_thd_table_type11set_defaultEP3THD13enum_var_type
081724f0 t _Z20fix_query_cache_sizeP3THD13enum_var_type
08172560 t _Z22fix_max_relay_log_sizeP3THD13enum_var_type
08172590 t _Z19fix_max_binlog_sizeP3THD13enum_var_type
081725e0 t _Z25check_max_delayed_threadsP3THDP7set_var
08172680 t _Z21check_completion_typeP3THDP7set_var
081726f0 t _Z19fix_max_connectionsP3THD13enum_var_type
08172710 t _Z22sys_default_ftb_syntaxP3THD13enum_var_type
08172740 t _Z21sys_update_ftb_syntaxP3THDP7set_var
081727a0 t _Z20sys_check_ftb_syntaxP3THDP7set_var
08172830 T _Z14free_key_cachePKcP12st_key_cache
08172850 T _ZN21sys_var_max_user_conn11set_defaultEP3THD13enum_var_type
08172880 T _ZN21sys_var_max_user_conn6updateEP3THDP7set_var
081728b0 T _ZN21sys_var_thd_time_zone6updateEP3THDP7set_var
08172900 T _ZN26sys_var_slave_skip_counter6updateEP3THDP7set_var
081729b0 T _ZN28sys_var_thd_date_time_format7update2EP3THD13enum_var_typeP19st_date_time_format
08172a30 T _ZN21sys_var_thd_ulonglong11set_defaultEP3THD13enum_var_type
08172ab0 T _ZN19sys_var_thd_ha_rows11set_defaultEP3THD13enum_var_type
08172b30 T _ZN21sys_var_ulonglong_ptr11set_defaultEP3THD13enum_var_type
08172b70 t _Z16create_key_cachePKcj
08172c50 T _Z10find_namedP6I_ListI10NAMED_LISTEPKcjPPS0_
08172cd0 T _Z13get_key_cacheP13st_lex_string
08172d10 T _Z23get_or_create_key_cachePKcj
08172d70 T _ZN23sys_var_key_cache_param9value_ptrEP3THD13enum_var_typeP13st_lex_string
08172db0 T _ZN20sys_var_thd_sql_mode28symbolic_mode_representationEP3THDmPm
08172ef0 T _ZN20sys_var_thd_sql_mode9value_ptrEP3THD13enum_var_typeP13st_lex_string
08172f40 T _ZN28sys_var_thd_date_time_format9value_ptrEP3THD13enum_var_typeP13st_lex_string
08172f90 T _ZN26sys_var_thd_storage_engine9value_ptrEP3THD13enum_var_typeP13st_lex_string
08172fd0 T _ZN26sys_var_thd_storage_engine5checkEP3THDP7set_var
08173150 T _ZN16set_var_password6updateEP3THD
08173190 T _ZN16set_var_password5checkEP3THD
08173250 T _ZN12set_var_user6updateEP3THD
081732a0 T _ZN26sys_var_slave_skip_counter5checkEP3THDP7set_var
08173340 T _ZN12set_var_user5checkEP3THD
08173390 T _ZN7set_var11light_checkEP3THD
08173470 T _ZN7set_var5checkEP3THD
08173630 T _Z17sql_set_variablesP3THDP4ListI12set_var_baseE
08173710 T _Z12find_sys_varPKcj
08173780 T _Z12set_var_freev
081737a0 T _Z12set_var_initv
081738b0 T _ZN21sys_var_thd_time_zone11set_defaultEP3THD13enum_var_type
08173990 T _ZN21sys_var_thd_time_zone5checkEP3THDP7set_var
08173a90 T _ZN24sys_var_collation_server11set_defaultEP3THD13enum_var_type
08173ac0 T _ZN24sys_var_collation_server6updateEP3THDP7set_var
08173b00 T _ZN26sys_var_collation_database11set_defaultEP3THD13enum_var_type
08173b30 T _ZN26sys_var_collation_database6updateEP3THDP7set_var
08173b70 T _ZN28sys_var_collation_connection11set_defaultEP3THD13enum_var_type
08173ba0 T _ZN28sys_var_collation_connection6updateEP3THDP7set_var
08173be0 T _ZN30sys_var_character_set_database11set_defaultEP3THD13enum_var_type
08173c10 T _ZN28sys_var_character_set_server11set_defaultEP3THD13enum_var_type
08173c40 T _ZN29sys_var_character_set_results11set_defaultEP3THD13enum_var_type
08173c70 T _ZN28sys_var_character_set_client11set_defaultEP3THD13enum_var_type
08173ca0 T _ZN32sys_var_character_set_connection11set_defaultEP3THD13enum_var_type
08173cd0 T _ZN21sys_var_character_set6updateEP3THDP7set_var
08173d20 T _ZN24set_var_collation_client6updateEP3THD
08173d80 T _ZN21sys_var_thd_ulonglong6updateEP3THDP7set_var
08173e50 T _ZN19sys_var_thd_ha_rows6updateEP3THDP7set_var
08173f20 T _ZN17sys_var_thd_ulong6updateEP3THDP7set_var
08173fc0 T _ZN21sys_var_ulonglong_ptr6updateEP3THDP7set_var
08174050 T _ZN16sys_var_long_ptr6updateEP3THDP7set_var
081740d0 T _ZN22sys_var_key_cache_long6updateEP3THDP7set_var
081741b0 T _ZN23sys_var_key_buffer_size6updateEP3THDP7set_var
08174390 T _Z23get_old_charset_by_namePKc
08174400 T _ZN21sys_var_character_set5checkEP3THDP7set_var
08174630 T _ZN17sys_var_collation5checkEP3THDP7set_var
08174830 T _ZN28sys_var_thd_date_time_format11set_defaultEP3THD13enum_var_type
081748c0 T _ZN28sys_var_thd_date_time_format5checkEP3THDP7set_var
08174a10 T _ZN28sys_var_thd_date_time_format6updateEP3THDP7set_var
08174a60 T _ZN7sys_var4itemEP3THD13enum_var_typeP13st_lex_string
08174d50 T _ZN7sys_var9check_setEP3THDP7set_varP10st_typelib
08174f40 T _ZN7sys_var10check_enumEP3THDP7set_varP10st_typelib
081750f0 T _ZN15sys_var_thd_bit5checkEP3THDP7set_var
08175170 T _Z18update_sys_var_strP11sys_var_strP17_pthread_rwlock_tP7set_var
08175200 t _Z22sys_default_init_slaveP3THD13enum_var_type
08175230 t _Z21sys_update_init_slaveP3THDP7set_var
08175260 t _Z24sys_default_init_connectP3THD13enum_var_type
08175290 t _Z23sys_update_init_connectP3THDP7set_var
081752c0 W _ZN18List_iterator_fastI12set_var_baseE7replaceEPS0_
081752d0 W _ZN18List_iterator_fastI12set_var_baseE7replaceER4ListIS0_E
081752e0 W _ZN18List_iterator_fastI12set_var_baseE6removeEv
081752f0 W _ZN18List_iterator_fastI12set_var_baseE5afterEPS0_
08175300 W _ZN18List_iterator_fastI12set_var_baseE3refEv
08175310 W _ZN4ListI12set_var_baseE15delete_elementsEv
08175370 W _ZN4ListI12set_var_baseEC1Ev
08175390 W _ZN4ListI12set_var_baseEC2Ev
081753b0 W _ZN4ListI12set_var_baseEC1ERKS1_
081753d0 W _ZN4ListI12set_var_baseEC2ERKS1_
081753f0 W _ZN4ListI12set_var_baseE6concatEPS1_
08175420 W _ZN4ListI12set_var_baseE3popEv
08175450 W _ZN4ListI12set_var_baseE7disjoinEPS1_
08175490 W _ZN4ListI12set_var_baseE7prepandEPS1_
081754c0 W _ZN4ListI12set_var_baseE4headEv
081754d0 W _ZN4ListI12set_var_baseE8head_refEv
081754f0 W _ZN18List_iterator_fastI12set_var_baseE7sublistER4ListIS0_Ej
08175510 W _ZN18List_iterator_fastI12set_var_baseEC1Ev
08175540 W _ZN18List_iterator_fastI12set_var_baseEC2Ev
08175570 W _ZN18List_iterator_fastI12set_var_baseE4initER4ListIS0_E
08175590 W _ZN18List_iterator_fastI12set_var_baseEC1ER4ListIS0_E
081755b0 W _ZN18List_iterator_fastI12set_var_baseEC2ER4ListIS0_E
081755d0 W _ZN18List_iterator_fastI12set_var_baseEppEi
081755f0 W _ZN18List_iterator_fastI12set_var_baseE6rewindEv
08175600 W _ZN15I_List_iteratorI10NAMED_LISTEC1ER6I_ListIS0_E
08175620 W _ZN15I_List_iteratorI10NAMED_LISTEC2ER6I_ListIS0_E
08175640 W _ZN15I_List_iteratorI10NAMED_LISTEppEi
08175670 W _ZN7sys_var11set_defaultEP3THD13enum_var_type
08175680 W _ZN7sys_var4typeEv
08175690 W _ZN7sys_var9value_ptrEP3THD13enum_var_typeP13st_lex_string
081756a0 W _ZN7sys_var10check_typeE13enum_var_type
081756b0 W _ZN7sys_var17check_update_typeE11Item_result
081756c0 W _ZN7sys_var13check_defaultE13enum_var_type
081756e0 W _ZN7sys_var9is_structEv
081756f0 W _ZNK7sys_var11is_readonlyEv
08175700 W _ZN16sys_var_long_ptr4typeEv
08175710 W _ZN16sys_var_long_ptr9value_ptrEP3THD13enum_var_typeP13st_lex_string
08175720 W _ZN21sys_var_ulonglong_ptr4typeEv
08175730 W _ZN21sys_var_ulonglong_ptr9value_ptrEP3THD13enum_var_typeP13st_lex_string
08175740 W _ZN16sys_var_bool_ptr4typeEv
08175750 W _ZN16sys_var_bool_ptr9value_ptrEP3THD13enum_var_typeP13st_lex_string
08175760 W _ZN16sys_var_bool_ptr17check_update_typeE11Item_result
08175770 W _ZN11sys_var_str6updateEP3THDP7set_var
08175790 W _ZN11sys_var_str11set_defaultEP3THD13enum_var_type
081757b0 W _ZN11sys_var_str4typeEv
081757c0 W _ZN11sys_var_str9value_ptrEP3THD13enum_var_typeP13st_lex_string
081757d0 W _ZN11sys_var_str17check_update_typeE11Item_result
081757e0 W _ZN11sys_var_str13check_defaultE13enum_var_type
081757f0 W _ZN17sys_var_const_str5checkEP3THDP7set_var
08175800 W _ZN17sys_var_const_str6updateEP3THDP7set_var
08175810 W _ZN17sys_var_const_str4typeEv
08175820 W _ZN17sys_var_const_str9value_ptrEP3THD13enum_var_typeP13st_lex_string
08175830 W _ZN17sys_var_const_str17check_update_typeE11Item_result
08175840 W _ZN17sys_var_const_str13check_defaultE13enum_var_type
08175850 W _ZNK17sys_var_const_str11is_readonlyEv
08175860 W _ZN12sys_var_enum4typeEv
08175870 W _ZN12sys_var_enum17check_update_typeE11Item_result
08175880 W _ZN11sys_var_thd10check_typeE13enum_var_type
08175890 W _ZN11sys_var_thd13check_defaultE13enum_var_type
081758c0 W _ZN17sys_var_thd_ulong4typeEv
081758d0 W _ZN19sys_var_thd_ha_rows4typeEv
081758e0 W _ZN21sys_var_thd_ulonglong4typeEv
081758f0 W _ZN21sys_var_thd_ulonglong13check_defaultE13enum_var_type
08175920 W _ZN21sys_var_thd_ulonglong10check_typeE13enum_var_type
08175940 W _ZN16sys_var_thd_bool4typeEv
08175950 W _ZN16sys_var_thd_bool17check_update_typeE11Item_result
08175960 W _ZN16sys_var_thd_enum4typeEv
08175970 W _ZN16sys_var_thd_enum17check_update_typeE11Item_result
08175980 W _ZN26sys_var_thd_storage_engine4typeEv
08175990 W _ZN26sys_var_thd_storage_engine17check_update_typeE11Item_result
081759a0 W _ZN15sys_var_thd_bit17check_update_typeE11Item_result
081759b0 W _ZN15sys_var_thd_bit10check_typeE13enum_var_type
081759c0 W _ZN15sys_var_thd_bit4typeEv
081759d0 W _ZN17sys_var_timestamp10check_typeE13enum_var_type
081759e0 W _ZN17sys_var_timestamp13check_defaultE13enum_var_type
081759f0 W _ZN17sys_var_timestamp4typeEv
08175a00 W _ZN22sys_var_last_insert_id10check_typeE13enum_var_type
08175a10 W _ZN22sys_var_last_insert_id4typeEv
08175a20 W _ZN17sys_var_insert_id10check_typeE13enum_var_type
08175a30 W _ZN17sys_var_insert_id4typeEv
08175a40 W _ZN26sys_var_slave_skip_counter10check_typeE13enum_var_type
08175a50 W _ZN18sys_var_rand_seed110check_typeE13enum_var_type
08175a60 W _ZN18sys_var_rand_seed210check_typeE13enum_var_type
08175a70 W _ZN17sys_var_collation4typeEv
08175a80 W _ZN17sys_var_collation17check_update_typeE11Item_result
08175aa0 W _ZN17sys_var_collation13check_defaultE13enum_var_type
08175ab0 W _ZN21sys_var_character_set4typeEv
08175ac0 W _ZN21sys_var_character_set17check_update_typeE11Item_result
08175ae0 W _ZN21sys_var_character_set13check_defaultE13enum_var_type
08175af0 W _ZN23sys_var_key_cache_param13check_defaultE13enum_var_type
08175b00 W _ZN23sys_var_key_cache_param9is_structEv
08175b10 W _ZN23sys_var_key_buffer_size4typeEv
08175b20 W _ZN22sys_var_key_cache_long4typeEv
08175b30 W _ZN28sys_var_thd_date_time_format4typeEv
08175b40 W _ZN28sys_var_thd_date_time_format17check_update_typeE11Item_result
08175b50 W _ZN28sys_var_thd_date_time_format13check_defaultE13enum_var_type
08175b60 W _ZN16sys_var_readonly6updateEP3THDP7set_var
08175b70 W _ZN16sys_var_readonly13check_defaultE13enum_var_type
08175b80 W _ZN16sys_var_readonly10check_typeE13enum_var_type
08175ba0 W _ZN16sys_var_readonly17check_update_typeE11Item_result
08175bb0 W _ZN16sys_var_readonly9value_ptrEP3THD13enum_var_typeP13st_lex_string
08175bd0 W _ZN16sys_var_readonly4typeEv
08175be0 W _ZNK16sys_var_readonly11is_readonlyEv
08175bf0 W _ZN21sys_var_thd_time_zone4typeEv
08175c00 W _ZN21sys_var_thd_time_zone17check_update_typeE11Item_result
08175c10 W _ZN21sys_var_thd_time_zone13check_defaultE13enum_var_type
08175c20 W _ZN21sys_var_max_user_conn13check_defaultE13enum_var_type
08175c50 W _ZN21sys_var_max_user_conn4typeEv
08175c60 W _ZN7set_varD1Ev
08175c70 W _ZN7set_varD0Ev
08175c80 W _ZN7set_var19no_support_one_shotEv
08175c90 W _ZN12set_var_userD1Ev
08175ca0 W _ZN12set_var_userD0Ev
08175cb0 W _ZN16set_var_passwordD1Ev
08175cc0 W _ZN16set_var_passwordD0Ev
08175cd0 W _ZN24set_var_collation_clientD1Ev
08175ce0 W _ZN24set_var_collation_clientD0Ev
08175cf0 W _ZN30sys_var_trust_routine_creatorsD0Ev
08175d10 W _ZN30sys_var_trust_routine_creatorsD1Ev
08175d20 W _ZN11sys_var_thdD2Ev
08175d30 W _ZN20sys_var_thd_sql_modeD0Ev
08175d60 W _ZN11sys_var_thdD0Ev
08175d80 W _ZN11sys_var_thdD1Ev
08175d90 W _ZN20sys_var_thd_sql_modeD1Ev
08175db0 W _ZN22sys_var_thd_table_typeD0Ev
08175de0 W _ZN22sys_var_thd_table_typeD1Ev
08175e00 W _ZN26sys_var_thd_storage_engineD0Ev
08175e20 W _ZN26sys_var_thd_storage_engineD1Ev
08175e30 W _ZN21sys_var_max_user_connD0Ev
08175e50 W _ZN21sys_var_max_user_connD1Ev
08175e60 W _ZN21sys_var_thd_time_zoneD0Ev
08175e80 W _ZN21sys_var_thd_time_zoneD1Ev
08175e90 W _ZN18sys_var_rand_seed2D0Ev
08175eb0 W _ZN18sys_var_rand_seed2D1Ev
08175ec0 W _ZN18sys_var_rand_seed1D0Ev
08175ee0 W _ZN18sys_var_rand_seed1D1Ev
08175ef0 W _ZN26sys_var_sync_binlog_periodD0Ev
08175f10 W _ZN26sys_var_sync_binlog_periodD1Ev
08175f20 W _ZN26sys_var_slave_skip_counterD0Ev
08175f40 W _ZN26sys_var_slave_skip_counterD1Ev
08175f50 W _ZN17sys_var_insert_idD0Ev
08175f70 W _ZN17sys_var_insert_idD1Ev
08175f80 W _ZN22sys_var_last_insert_idD0Ev
08175fa0 W _ZN22sys_var_last_insert_idD1Ev
08175fb0 W _ZN17sys_var_timestampD0Ev
08175fd0 W _ZN17sys_var_timestampD1Ev
08175fe0 W _ZN22sys_var_key_cache_longD0Ev
08176000 W _ZN22sys_var_key_cache_longD1Ev
08176010 W _ZN23sys_var_key_buffer_sizeD0Ev
08176030 W _ZN23sys_var_key_buffer_sizeD1Ev
08176040 W _ZN23sys_var_key_cache_paramD0Ev
08176060 W _ZN23sys_var_key_cache_paramD1Ev
08176070 W _ZN24sys_var_collation_serverD0Ev
081760a0 W _ZN24sys_var_collation_serverD1Ev
081760c0 W _ZN26sys_var_collation_databaseD0Ev
081760f0 W _ZN26sys_var_collation_databaseD1Ev
08176110 W _ZN28sys_var_collation_connectionD0Ev
08176140 W _ZN28sys_var_collation_connectionD1Ev
08176160 W _ZN30sys_var_character_set_databaseD0Ev
08176190 W _ZN30sys_var_character_set_databaseD1Ev
081761b0 W _ZN28sys_var_character_set_serverD0Ev
081761e0 W _ZN28sys_var_character_set_serverD1Ev
08176200 W _ZN29sys_var_character_set_resultsD0Ev
08176230 W _ZN29sys_var_character_set_resultsD1Ev
08176250 W _ZN28sys_var_character_set_clientD0Ev
08176280 W _ZN28sys_var_character_set_clientD1Ev
081762a0 W _ZN32sys_var_character_set_connectionD0Ev
081762d0 W _ZN32sys_var_character_set_connectionD1Ev
081762f0 W _ZN21sys_var_character_setD0Ev
08176310 W _ZN21sys_var_character_setD1Ev
08176320 W _ZN17sys_var_collationD0Ev
08176340 W _ZN17sys_var_collationD1Ev
08176350 W _ZN28sys_var_thd_date_time_formatD0Ev
08176370 W _ZN28sys_var_thd_date_time_formatD1Ev
08176380 W _ZN15sys_var_thd_bitD0Ev
081763a0 W _ZN15sys_var_thd_bitD1Ev
081763b0 W _ZN16sys_var_thd_enumD0Ev
081763d0 W _ZN16sys_var_thd_enumD1Ev
081763e0 W _ZN16sys_var_thd_boolD0Ev
08176400 W _ZN16sys_var_thd_boolD1Ev
08176410 W _ZN21sys_var_thd_ulonglongD0Ev
08176430 W _ZN21sys_var_thd_ulonglongD1Ev
08176440 W _ZN19sys_var_thd_ha_rowsD0Ev
08176460 W _ZN19sys_var_thd_ha_rowsD1Ev
08176470 W _ZN17sys_var_thd_ulongD0Ev
08176490 W _ZN17sys_var_thd_ulongD1Ev
081764a0 W _ZN12sys_var_enumD0Ev
081764c0 W _ZN12sys_var_enumD1Ev
081764d0 W _ZN16sys_var_bool_ptrD0Ev
081764f0 W _ZN16sys_var_bool_ptrD1Ev
08176500 W _ZN21sys_var_ulonglong_ptrD0Ev
08176520 W _ZN21sys_var_ulonglong_ptrD1Ev
08176530 W _ZN16sys_var_long_ptrD0Ev
08176550 W _ZN16sys_var_long_ptrD1Ev
08176560 W _ZN11sys_var_strD0Ev
08176580 W _ZN11sys_var_strD1Ev
08176590 W _ZN7sys_varD0Ev
081765b0 W _ZN7sys_varD1Ev
081765c0 W _ZN16sys_var_readonlyD0Ev
081765e0 W _ZN16sys_var_readonlyD1Ev
081765f0 W _ZN17sys_var_const_strD0Ev
08176610 W _ZN17sys_var_const_strD1Ev
08176620 W _ZN10NAMED_LISTD0Ev
08176670 W _ZN10NAMED_LISTD1Ev
081766c0 W _ZN4ListI12set_var_baseE10push_frontEPS0_
08176710 W _ZN4ListI12set_var_baseE9push_backEPS0_
08176760 W _ZN20sys_var_thd_sql_mode5checkEP3THDP7set_var
08176790 W _ZN16sys_var_thd_enum5checkEP3THDP7set_var
081767c0 W _ZN16sys_var_thd_bool5checkEP3THDP7set_var
081767f0 W _ZN12sys_var_enum5checkEP3THDP7set_var
08176820 W _ZN16sys_var_bool_ptr5checkEP3THDP7set_var
08176850 W _ZN4ListI12set_var_baseE9push_backEPS0_P11st_mem_root
081768a0 T get_key_conn
081768c0 T _Z15is_update_query16enum_sql_command
081768e0 T _Z10free_itemsP4Item
08176910 T _Z13cleanup_itemsP4Item
08176940 T _Z32mysql_reset_thd_for_next_commandP3THD
08176a00 T _Z17mysql_init_selectP6st_lex
08176a60 T _Z23mysql_init_multi_deleteP6st_lex
08176b10 T _ZN13st_select_lex19set_lock_for_tablesE13thr_lock_type
08176b50 T _Z16add_join_naturalP13st_table_listS0_P4ListI6StringE
08176b70 T _Z15comp_eq_creatorb
08176b90 T _Z15comp_ge_creatorb
08176bb0 T _Z15comp_gt_creatorb
08176bd0 T _Z15comp_le_creatorb
08176bf0 T _Z15comp_lt_creatorb
08176c10 T _Z15comp_ne_creatorb
08176c30 T _Z14create_definerP3THDP13st_lex_stringS2_
08176ca0 T _Z11add_to_listP3THDR11st_sql_listP4Itemb
08176d20 T _Z16add_proc_to_listP3THDP4Item
08176d90 T _Z19get_default_definerP3THDP11st_lex_user
08176e00 t _Z13remove_escapePc
08176ec0 T free_user
08176ed0 T _Z17negate_expressionP3THDP4Item
081770d0 T _Z11add_join_onP13st_table_listP4Item
08177200 T _ZN13st_select_lex18convert_right_joinEv
081772d0 T _ZN13st_select_lex16add_joined_tableEP13st_table_list
08177340 T _ZN13st_select_lex15end_nested_joinEP3THD
08177430 t _Z13check_db_usedP3THDP13st_table_list
08177490 T _Z42multi_delete_set_locks_and_link_aux_tablesP6st_lex
08177590 T _ZN13st_select_lex14nest_last_joinEP3THD
08177720 T _ZN13st_select_lex16init_nested_joinEP3THD
08177800 T _Z19init_update_queriesv
081778c0 T _Z16mysql_drop_indexP3THDP13st_table_listP13st_alter_info
081779a0 T _Z18mysql_create_indexP3THDP13st_table_listR4ListI3KeyE
08177a90 T _Z24all_any_subquery_creatorP4ItemPFP12Comp_creatorbEbP13st_select_lex
08177ca0 T _Z19check_simple_selectv
08177d20 T _Z25store_position_for_columnPKc
08177d50 T _Z15kill_one_threadP3THDmb
08177ea0 t _Z9reset_mqhP11st_lex_userb
08177fd0 T _Z20reload_acl_and_cacheP3THDmP13st_table_listPb
08178470 T _Z32push_new_name_resolution_contextP3THDP13st_table_listS2_
08178550 T _ZN13st_select_lex17add_table_to_listEP3THDP11Table_identP13st_lex_stringm13thr_lock_typeP4ListI6StringESA_S5_
081789a0 T _Z17add_field_to_listP3THDPc16enum_field_typesS1_S1_jP4ItemS4_P13st_lex_stringS1_P4ListI6StringEP15charset_info_stj
08178e20 t _Z29time_out_user_resource_limitsP3THDP9user_conn
08178e70 T _Z26create_select_for_variablePKc
08178f60 T _Z16mysql_new_selectP6st_lexb
08179460 T _Z16mysql_init_queryP3THDPhj
08179490 T _Z26mysql_test_parse_for_slaveP3THDPcj
08179520 T _Z13my_yyoverflowPPsPP7YYSTYPEPm
08179650 T _Z19check_stack_overrunP3THDlPc
08179700 T _Z19check_global_accessP3THDm
08179770 T _Z12check_accessP3THDmPKcPmbbb
08179aa0 T _Z21multi_update_precheckP3THDP13st_table_list
08179dd0 T _Z17check_some_accessP3THDmP13st_table_list
08179ea0 T _Z25check_some_routine_accessP3THDPKcS2_b
08179f50 T _Z20check_routine_accessP3THDmPcS1_bb
0817a060 T _Z18check_table_accessP3THDmP13st_table_listb
0817a320 T _Z21multi_delete_precheckP3THDP13st_table_list
0817a410 T _Z24check_merge_table_accessP3THDPcP13st_table_list
0817a480 T _Z21create_table_precheckP3THDP13st_table_listS2_
0817a5e0 T _Z22check_one_table_accessP3THDmP13st_table_list
0817a6b0 T _Z15insert_precheckP3THDP13st_table_list
0817a750 T _Z15delete_precheckP3THDP13st_table_list
0817a7a0 T _Z15update_precheckP3THDP13st_table_list
0817a840 t _Z20unlock_locked_tablesP3THD
0817a880 t _Z16end_active_transP3THD
0817a990 t _Z18append_file_to_dirP3THDPPKcS2_
0817aac0 t _Z33some_non_temp_table_to_be_updatedP3THDP13st_table_list
0817ab20 t _Z11begin_transP3THD
0817abf0 T _Z9end_transP3THD25enum_mysql_completiontype
0817adb0 t _Z24reset_one_shot_variablesP3THD
0817ae10 T _Z21mysql_execute_commandP3THD
081825e0 T _Z11mysql_parseP3THDPcj
08182820 T _Z11alloc_queryP3THDPKcj
081829d0 T _Z20prepare_schema_tableP3THDP6st_lexP11Table_ident18enum_schema_tables
08182e00 T _Z18log_slow_statementP3THD
08182ec0 t _Z25decrease_user_connectionsP9user_conn
08182f30 T _Z16mysql_table_dumpP3THDPcS1_i
08183110 T handle_bootstrap
08183530 T _Z18free_max_user_connv
08183550 T _Z18init_max_user_connv
081835a0 T _Z10check_userP3THD19enum_server_commandPKcjS3_b
08183ca0 T _Z16dispatch_command19enum_server_commandP3THDPcj
08185180 T _Z10do_commandP3THD
08185270 T _Z20execute_init_commandP3THDP11sys_var_strP17_pthread_rwlock_t
08185320 T handle_one_connection
08185eb0 t _Z10yydestructiP7YYSTYPE
08185ec0 T _Z7yyparsePv
0819fbd0 W _ZNK21Item_sum_sum_distinct8sum_funcEv
0819fbe0 W _ZNK21Item_sum_sum_distinct9func_nameEv
0819fbf0 W _ZNK13Item_func_min9func_nameEv
0819fc00 W _ZNK13Item_func_max9func_nameEv
0819fc10 W _ZN22Item_func_unique_users8val_realEv
0819fc20 W _ZN22Item_func_unique_users18fix_length_and_decEv
0819fc40 W _ZNK22Item_func_unique_users9func_nameEv
0819fc50 W _ZN11sp_pcontext10last_labelEv
0819fc80 W _ZN13sp_lex_keeperD0Ev
0819fcc0 W _ZN13sp_lex_keeperD1Ev
0819fcf0 W _ZN8sp_instrD2Ev
0819fd20 W _ZN22Item_func_unique_usersD0Ev
0819fd40 W _ZN22Item_func_unique_usersD1Ev
0819fd60 W _ZN13Item_str_funcC2EP4ItemS1_
0819fde0 W _ZN13Item_func_maxD0Ev
0819fe50 W _ZN13Item_func_maxD1Ev
0819fec0 W _ZN13Item_func_minD0Ev
0819ff30 W _ZN13Item_func_minD1Ev
0819ffa0 W _ZN22Item_date_add_intervalC1EP4ItemS1_13interval_typeb
081a0050 W _ZN9base_list9push_backEPv
081a00a0 W _Z14is_truth_valueP4Itembb
081a0260 W _ZN22Item_func_unique_users5printEP6String
081a0290 W _ZN21Item_sum_sum_distinctD0Ev
081a02b0 W _ZN21Item_sum_sum_distinctD1Ev
081a02d0 W _ZN21Item_sum_sum_distinct12copy_or_sameEP3THD
081a0310 W _ZN11Item_stringC1EPKcjP15charset_info_st10Derivation
081a03a0 T table_cache_key
081a03c0 T _Z13cached_tablesv
081a03d0 t _Z34mark_used_tables_as_free_for_reuseP3THDP8st_table
081a0430 t _Z13relink_unusedP8st_table
081a0470 t _Z34mark_real_tables_as_free_for_reuseP13st_table_list
081a04c0 t _Z25update_field_dependenciesP3THDP5FieldP8st_table
081a0550 T _Z16make_leaves_listPP13st_table_listS0_
081a05a0 T _Z11fill_recordP3THDPP5FieldR4ListI4ItemEb
081a0630 T _Z8is_equalPK13st_lex_stringS1_
081a0670 T _Z12init_ftfuncsP3THDP13st_select_lexb
081a06f0 T _Z13setup_ftfuncsP13st_select_lex
081a07e0 T _Z19find_field_in_tableP3THDP8st_tablePKcjbPj
081a0920 T _Z13table_is_usedP8st_tableb
081a09d0 T _Z12flush_tablesv
081a0a30 T _Z18close_thread_tableP3THDPP8st_table
081a0b00 T _Z16wait_for_refreshP3THD
081a0ba0 T _Z23remove_table_from_cacheP3THDPKcS2_j
081a0e70 T _Z20remove_db_from_cachePKc
081a0f30 T _Z18find_table_in_listP13st_table_listjPKcS2_
081a0fa0 T _Z36fill_record_n_invoke_before_triggersP3THDPP5FieldR4ListI4ItemEbP19Table_triggers_list14trg_event_type
081a1030 T _Z36fill_record_n_invoke_before_triggersP3THDR4ListI4ItemES4_bP19Table_triggers_list14trg_event_type
081a1140 T _Z11setup_condsP3THDP13st_table_listS2_PP4Item
081a13e0 t _Z25check_lock_and_start_stmtP3THDP8st_table13thr_lock_type
081a1470 T _Z29update_non_unique_table_errorP13st_table_listPKcS0_
081a1610 T _Z13insert_fieldsP3THDP23Name_resolution_contextPKcS4_P13List_iteratorI4ItemEb
081a1c80 T _Z25get_key_map_from_key_listP6BitmapILj64EEP8st_tableP4ListI6StringE
081a1da0 t _Z26set_new_item_local_contextP3THDP10Item_identP13st_table_list
081a1e10 T _Z22rename_temporary_tableP3THDP8st_tablePKcS4_
081a1ed0 T _Z10setup_wildP3THDP13st_table_listR4ListI4ItemEPS5_j
081a2120 t _Z28store_top_level_join_columnsP3THDP13st_table_listS2_S2_
081a30c0 T _Z12setup_tablesP3THDP23Name_resolution_contextP4ListI13st_table_listEPS4_PP4ItemPS7_b
081a34b0 T _Z17find_item_in_listP4ItemR4ListIS_EPj27find_item_error_report_typePb
081a38a0 T _Z12setup_fieldsP3THDPP4ItemR4ListIS1_EbPS5_b
081a3ab0 T _Z23find_field_in_table_refP3THDP13st_table_listPKcjS4_S4_S4_PP4ItembbPjbPS2_
081a4030 T _Z20find_field_in_tablesP3THDP10Item_identP13st_table_listS4_PP4Item27find_item_error_report_typebb
081a44c0 T _Z18rm_temporary_table7db_typePc
081a45a0 T _Z20open_temporary_tableP3THDPKcS2_S2_b
081a4710 T _Z11lock_tablesP3THDP13st_table_listjPb
081a49c0 T _Z19abort_locked_tablesP3THDPKcS2_
081a4a40 T _Z18drop_locked_tablesP3THDPKcS2_
081a4b40 T _Z20close_old_data_filesP3THDP8st_tablebb
081a4c00 T _Z17close_data_tablesP3THDPKcS2_
081a4ca0 t _Z17open_unireg_entryP3THDP8st_tablePKcS4_S4_P13st_table_listP11st_mem_root
081a53b0 T _Z17find_locked_tableP3THDPKcS2_
081a5450 T _Z20find_temporary_tableP3THDPKcS2_
081a5520 T _Z17unlink_open_tableP3THDP8st_tableS2_
081a5630 T _Z12unique_tableP13st_table_listS0_
081a56c0 T _Z19close_thread_tablesP3THDbb
081a5910 T _Z23close_tables_for_reopenP3THDP13st_table_list
081a59a0 T _Z13free_io_cacheP8st_table
081a59e0 T _Z12reopen_tableP8st_tableb
081a5d80 T _Z13reopen_tablesP3THDbb
081a5f30 T _Z15wait_for_tablesP3THD
081a6090 T _Z19close_cached_tablesP3THDbP13st_table_list
081a6310 T _Z16table_cache_freev
081a6350 T _Z15close_temporaryP8st_tableb
081a63e0 T _Z21close_temporary_tableP3THDPKcS2_
081a6440 T _Z22close_temporary_tablesP3THD
081a6630 T _Z18intern_close_tableP8st_table
081a6670 t _Z16free_cache_entryP8st_table
081a66c0 T _Z10open_tableP3THDP13st_table_listP11st_mem_rootPbj
081a70d0 T _Z11open_ltableP3THDP13st_table_list13thr_lock_type
081a7210 T _Z11open_tablesP3THDPP13st_table_listPjj
081a76b0 T _Z30open_normal_and_derived_tablesP3THDP13st_table_listj
081a7710 T _Z20open_and_lock_tablesP3THDP13st_table_list
081a77f0 T _Z25simple_open_n_lock_tablesP3THDP13st_table_list
081a7870 T _Z24reopen_name_locked_tableP3THDP13st_table_list
081a7aa0 T _Z16list_open_tablesP3THDPKcS2_
081a7d00 T _Z16table_cache_initv
081a7ec0 W _ZN14Field_iteratorD1Ev
081a7ed0 W _ZN14Field_iteratorD0Ev
081a7ee0 T _Z10free_blobsP8st_table
081a7f30 T _Z8set_zoneiii
081a7f60 T _Z12next_io_sizem
081a7f80 T _Z29update_create_info_from_tableP24st_ha_create_informationP8st_table
081a8000 T _Z13check_db_namePc
081a80f0 T _Z16check_table_namePKcj
081a81b0 T _Z17check_column_namePKc
081a8260 T _ZN13st_table_list20set_underlying_mergeEv
081a82b0 T _ZN13st_table_list21find_underlying_tableEP8st_table
081a8300 T _ZN13st_table_list13cleanup_itemsEv
081a8360 T _ZN13st_table_list18check_single_tableEPPS_yS0_
081a8400 T _ZN13st_table_list27is_leaf_for_name_resolutionEv
081a8440 T _ZN13st_table_list30first_leaf_for_name_resolutionEv
081a84e0 T _ZN13st_table_list29last_leaf_for_name_resolutionEv
081a8570 T _ZN13st_table_list20register_want_accessEm
081a85e0 T _ZN13st_table_list26find_view_security_contextEP3THD
081a8640 T _ZN19Natural_join_columnC2EP16Field_translatorP13st_table_list
081a8660 T _ZN19Natural_join_columnC1EP16Field_translatorP13st_table_list
081a8680 T _ZN19Natural_join_columnC2EP5FieldP13st_table_list
081a86a0 T _ZN19Natural_join_columnC1EP5FieldP13st_table_list
081a86c0 T _ZN19Natural_join_column4nameEv
081a86e0 T _ZN19Natural_join_column5fieldEv
081a8700 T _ZN19Natural_join_column10table_nameEv
081a8710 T _ZN19Natural_join_column7db_nameEv
081a8730 T _ZN19Natural_join_column5grantEv
081a8760 T _ZN19Field_iterator_view3setEP13st_table_list
081a8780 T _ZN20Field_iterator_table4nameEv
081a8790 T _ZN19Field_iterator_view4nameEv
081a87a0 T _ZN27Field_iterator_natural_join3setEP13st_table_list
081a87d0 T _ZN27Field_iterator_natural_join4nextEv
081a87f0 T _ZN24Field_iterator_table_ref18set_field_iteratorEv
081a8850 T _ZN24Field_iterator_table_ref3setEP13st_table_list
081a8890 T _ZN24Field_iterator_table_ref4nextEv
081a88e0 T _ZN24Field_iterator_table_ref10table_nameEv
081a8920 T _ZN24Field_iterator_table_ref7db_nameEv
081a8960 T _ZN24Field_iterator_table_ref5grantEv
081a89a0 T _ZN24Field_iterator_table_ref22get_natural_column_refEv
081a89b0 T _ZN24Field_iterator_table_ref24get_or_create_column_refEPb
081a8a50 T _Z17create_view_fieldP3THDP13st_table_listPP4ItemPKc
081a8b70 T _ZN19Field_iterator_view11create_itemEP3THD
081a8ba0 T _ZN20Field_iterator_table11create_itemEP3THD
081a8c00 T _ZN19Natural_join_column11create_itemEP3THD
081a8c90 T _ZN13st_table_list29prepare_view_securety_contextEP3THD
081a8d20 T _ZN13st_table_list16prepare_securityEP3THD
081a8e50 T _ZN13st_table_list15hide_view_errorEP3THD
081a8f50 T _ZN13st_table_list17set_insert_valuesEP11st_mem_root
081a8fc0 T _Z7typelibP11st_mem_rootR4ListI6StringE
081a90b0 T _ZN13st_table_list17view_check_optionEP3THDb
081a9170 T _ZN13st_table_list17prep_check_optionEP3THDh
081a9310 T _ZN13st_table_list10prep_whereEP3THDPP4Itemb
081a94b0 T _ZN13st_table_list16setup_underlyingEP3THD
081a9670 T _ZN13st_table_list8calc_md5EPc
081a9760 T _ZNK8st_table15reset_item_listEP4ListI4ItemE
081a97c0 T _ZNK8st_table14fill_item_listEP4ListI4ItemE
081a9840 T _Z9get_fieldP11st_mem_rootP5Field
081a9950 T _Z9get_fieldP11st_mem_rootP5FieldP6String
081a9ab0 T _Z15rename_file_extPKcS0_S0_
081a9b20 T _Z10create_frmP3THDPcPKcS3_jPhP24st_ha_create_informationj
081a9da0 T _Z16append_unescapedP6StringPKcj
081aa140 t _Z14get_field_namePP5FieldPjc
081aa170 T _Z14make_new_entryiPhP10st_typelibPKc
081aa520 T _Z11read_stringiPPcj
081aa5a0 t _Z17fix_type_pointersPPPKcP10st_typelibjPPc
081aa670 T _Z12get_form_posiPhP10st_typelib
081aa7d0 T _Z8closefrmP8st_table
081aa8a0 T _Z7openfrmP3THDPKcS2_jjjP8st_table
081acc80 W _ZN4ListI6StringEC1Ev
081acca0 W _ZN4ListI6StringEC2Ev
081accc0 W _ZN4ListI6StringEC1ERKS1_
081acce0 W _ZN4ListI6StringEC2ERKS1_
081acd00 W _ZN4ListI6StringE6concatEPS1_
081acd30 W _ZN4ListI6StringE3popEv
081acd60 W _ZN4ListI6StringE7disjoinEPS1_
081acda0 W _ZN4ListI6StringE7prepandEPS1_
081acdd0 W _ZN4ListI6StringE4headEv
081acde0 W _ZN4ListI6StringE8head_refEv
081ace00 W _ZN13List_iteratorI6StringEC1Ev
081ace30 W _ZN13List_iteratorI6StringEC2Ev
081ace60 W _ZN13List_iteratorI6StringE4initER4ListIS0_E
081ace80 W _ZN13List_iteratorI6StringEC1ER4ListIS0_E
081acea0 W _ZN13List_iteratorI6StringEC2ER4ListIS0_E
081acec0 W _ZN13List_iteratorI6StringEppEi
081acee0 W _ZN13List_iteratorI6StringE6rewindEv
081acef0 W _ZN13List_iteratorI6StringE7replaceEPS0_
081acf10 W _ZN13List_iteratorI6StringE7replaceER4ListIS0_E
081acf90 W _ZN13List_iteratorI6StringE6removeEv
081acff0 W _ZN13List_iteratorI6StringE3refEv
081ad000 W _ZN20Field_iterator_tableD0Ev
081ad010 W _ZN20Field_iterator_tableD1Ev
081ad020 W _ZN20Field_iterator_table3setEP13st_table_list
081ad040 W _ZN20Field_iterator_table4nextEv
081ad050 W _ZN20Field_iterator_table13end_of_fieldsEv
081ad070 W _ZN20Field_iterator_table5fieldEv
081ad080 W _ZN19Field_iterator_viewD0Ev
081ad090 W _ZN19Field_iterator_viewD1Ev
081ad0a0 W _ZN19Field_iterator_view4nextEv
081ad0b0 W _ZN19Field_iterator_view13end_of_fieldsEv
081ad0d0 W _ZN19Field_iterator_view5fieldEv
081ad0e0 W _ZN27Field_iterator_natural_joinD1Ev
081ad0f0 W _ZN27Field_iterator_natural_joinD0Ev
081ad100 W _ZN27Field_iterator_natural_join13end_of_fieldsEv
081ad120 W _ZN24Field_iterator_table_refD1Ev
081ad150 W _ZN24Field_iterator_table_refD0Ev
081ad180 W _ZN24Field_iterator_table_ref13end_of_fieldsEv
081ad1c0 W _ZN24Field_iterator_table_ref4nameEv
081ad1e0 W _ZN24Field_iterator_table_ref11create_itemEP3THD
081ad200 W _ZN24Field_iterator_table_ref5fieldEv
081ad220 W _ZN27Field_iterator_natural_join4nameEv
081ad240 W _ZN27Field_iterator_natural_join5fieldEv
081ad260 W _ZN4ListI6StringE9push_backEPS0_
081ad2b0 W _ZN4ListI6StringE10push_frontEPS0_
081ad300 W _ZN13List_iteratorI6StringE5afterEPS0_
081ad370 W _ZN4ListI6StringE15delete_elementsEv
081ad3f0 W _ZN27Field_iterator_natural_join11create_itemEP3THD
081ad410 W _ZN4ListI6StringE9push_backEPS0_P11st_mem_root
081ad460 W _Z9and_condsP4ItemS0_
081ad570 t _Z13add_key_fieldPP11key_field_tjP9Item_funcP5FieldbPP4Itemjy
081ad960 t _Z20add_key_equal_fieldsPP11key_field_tjP9Item_funcP10Item_fieldbPP4Itemjy
081ada80 t _Z12max_part_bitm
081adaa0 t _Z11sort_keyuseP8keyuse_tS0_
081adb30 t _Z12set_positionP4JOINjP13st_join_tableP8keyuse_t
081adb90 t _Z12join_tab_cmpPKvS0_
081adc80 t _Z21join_tab_cmp_straightPKvS0_
081add20 t _Z22calc_used_field_lengthP3THDP13st_join_table
081ade50 t _Z19cache_record_lengthP4JOINj
081adec0 t _Z17prev_record_readsP4JOINy
081adf50 t _Z16best_access_pathP4JOINP13st_join_tableP3THDyjdd
081aedd0 T _Z18store_val_in_fieldP5FieldP4Item
081aee60 t _Z18only_eq_ref_tablesP4JOINP8st_ordery
081af080 t _Z29compare_fields_by_table_orderP10Item_fieldS0_Pv
081af130 t _Z22remove_additional_condP4Item
081af200 T _ZN4JOIN17test_in_subselectEPP4Item
081af2d0 t _Z29build_bitmap_for_nested_joinsP4ListI13st_table_listEj
081af340 t _Z17reset_nj_countersP4ListI13st_table_listE
081af390 t _Z26check_interleaving_with_njP13st_join_tableS0_
081af470 t _Z21restore_prev_nj_stateP13st_join_table
081af4f0 t _Z25const_expression_in_whereP4ItemS0_PS0_
081af6a0 t _Z12remove_constP4JOINP8st_orderP4ItembPb
081af930 t _Z20join_no_more_recordsP14st_read_record
081af940 t _Z8end_sendP4JOINP13st_join_tableb
081afb90 t _Z11test_if_refP10Item_fieldP4Item
081afd20 t _Z20test_if_order_by_keyP8st_orderP8st_tablejPj
081afe60 T _Z17find_shortest_keyP8st_tablePK6BitmapILj64EE
081afef0 t _Z16reset_cache_readP13st_join_cache
081aff10 t _Z17reset_cache_writeP13st_join_cache
081aff30 T _Z18cp_buffer_from_refP3THDP12st_table_ref
081affa0 T _Z17count_field_typesP15TMP_TABLE_PARAMR4ListI4ItemEb
081b00c0 t _Z15test_if_subpartP8st_orderS0_
081b0130 t _Z21test_if_group_changedR4ListI11Cached_itemE
081b0190 t _Z15setup_sum_funcsP3THDPP8Item_sum
081b01e0 t _Z27init_tmptable_sum_functionsPP8Item_sum
081b0220 t _Z24update_tmptable_sum_funcPP8Item_sumP8st_table
081b0260 t _Z14copy_sum_funcsPP8Item_sumS1_
081b02a0 t _Z18init_sum_functionsPP8Item_sumS1_
081b0330 t _Z15update_sum_funcPP8Item_sum
081b0370 T _Z10copy_funcsPP4Item
081b03b0 T _ZN4JOIN13change_resultEP13select_result
081b0430 T _ZN13st_table_list5printEP3THDP6String
081b0780 t _Z10print_joinP3THDP6StringP4ListI13st_table_listE
081b0940 T _ZN13st_select_lex5printEP3THDP6String
081b0e00 T _Z20free_underlaid_joinsP3THDP13st_select_lex
081b0e40 T _ZN4JOIN16rollup_send_dataEj
081b1030 T _Z21setup_end_select_funcP4JOIN
081b1170 T _ZN4JOIN11restore_tmpEv
081b11c0 t _Z9find_bestP4JOINyjdd
081b23f0 t _Z32best_extension_by_limited_searchP4JOINyjddjj
081b2770 T _Z21make_unireg_sortorderP8st_orderPj
081b2880 T _ZN4JOIN18rollup_make_fieldsER4ListI4ItemES3_PPP8Item_sum
081b2b10 T _ZN4JOIN18make_sum_func_listER4ListI4ItemES3_bb
081b2c60 t _Z14simplify_joinsP4JOINP4ListI13st_table_listEP4Itemb
081b3220 t _Z19make_cond_for_tableP4Itemyy
081b3610 t _Z18add_not_null_condsP4JOIN
081b3890 t _Z25add_found_match_trig_condP13st_join_tableP4ItemS0_
081b3960 t _Z16change_group_refP3THDP9Item_funcP8st_orderPb
081b3af0 T _ZN4JOIN11rollup_initEv
081b3d90 T _ZN4JOIN15alloc_func_listEv
081b3e50 t _Z16make_simple_joinP4JOINP8st_table
081b3ff0 T _Z11copy_fieldsP15TMP_TABLE_PARAM
081b4060 T _ZN4JOIN5clearEv
081b4100 t _Z14end_send_groupP4JOINP13st_join_tableb
081b4460 T _Z17setup_copy_fieldsP3THDP15TMP_TABLE_PARAMPP4ItemR4ListIS3_ES8_jS8_
081b4980 t _Z18find_order_in_listP3THDPP4ItemP13st_table_listP8st_orderR4ListIS1_ESA_b
081b4d30 T _Z11setup_groupP3THDPP4ItemP13st_table_listR4ListIS1_ES8_P8st_orderPb
081b4ec0 T _Z11setup_orderP3THDPP4ItemP13st_table_listR4ListIS1_ES8_P8st_order
081b4f30 T _Z12report_errorP8st_tablei
081b4fc0 T _Z15safe_index_readP13st_join_table
081b5030 t _Z14join_read_lastP13st_join_table
081b5170 t _Z14join_read_prevP14st_read_record
081b51c0 t _Z15join_read_firstP13st_join_table
081b52f0 t _Z14join_read_nextP14st_read_record
081b5340 t _Z18join_read_last_keyP13st_join_table
081b5400 t _Z16join_read_systemP13st_join_table
081b5530 t _Z15join_read_constP13st_join_table
081b56d0 t _Z21join_read_const_tableP13st_join_tableP11st_position
081b58a0 t _Z17join_ft_read_nextP14st_read_record
081b58f0 t _Z18join_ft_read_firstP13st_join_table
081b5980 t _Z19join_read_next_sameP14st_read_record
081b59f0 t _Z27join_read_next_same_or_nullP14st_read_record
081b5a40 t _Z20join_read_always_keyP13st_join_table
081b5b60 t _Z28join_read_always_key_or_nullP13st_join_table
081b5ba0 t _Z20evaluate_join_recordP4JOINP13st_join_tableiPc
081b5da0 T _Z10sub_selectP4JOINP13st_join_tableb
081b5ff0 T _Z18error_if_full_joinP4JOIN
081b6060 t _Z20test_if_quick_selectP13st_join_table
081b60e0 t _Z21store_record_in_cacheP13st_join_cache
081b6310 t _Z18read_cached_recordP13st_join_table
081b6490 t _Z21join_init_read_recordP13st_join_table
081b6510 t _Z20flush_cached_recordsP4JOINP13st_join_tableb
081b67c0 T _Z16sub_select_cacheP4JOINP13st_join_tableb
081b68c0 t _Z27join_init_quick_read_recordP13st_join_table
081b68f0 t _Z17end_unique_updateP4JOINP13st_join_tableb
081b6a70 t _Z23create_myisam_tmp_tableP8st_tableP15TMP_TABLE_PARAMm
081b6eb0 t _Z14open_tmp_tableP8st_table
081b6f40 T _Z23create_myisam_from_heapP3THDP8st_tableP15TMP_TABLE_PARAMib
081b7350 T _ZN4JOIN17rollup_write_dataEjP8st_table
081b75a0 t _Z9end_writeP4JOINP13st_join_tableb
081b7750 t _Z15end_write_groupP4JOINP13st_join_tableb
081b79c0 t _Z10end_updateP4JOINP13st_join_tableb
081b7c30 T _Z14free_tmp_tableP3THDP8st_table
081b7d80 T _Z24create_virtual_tmp_tableP3THDR4ListI12create_fieldE
081b80b0 t _Z24change_to_use_tmp_fieldsP3THDPP4ItemR4ListIS1_ES6_jS6_
081b82d0 T _Z27create_tmp_field_from_fieldP3THDP5FieldPKcP8st_tableP10Item_fieldj
081b8460 t _Z18create_ref_for_keyP4JOINP13st_join_tableP8keyuse_ty
081b90c0 T _Z27create_tmp_field_for_schemaP3THDP4ItemP8st_table
081b9250 t _Z26create_tmp_field_from_itemP3THDP4ItemP8st_tablePPS2_bj
081b9510 T _Z16create_tmp_fieldP3THDP8st_tableP4ItemNS3_4TypeEPPS4_PP5Fieldbbbj
081b97a0 T _Z16create_tmp_tableP3THDP15TMP_TABLE_PARAMR4ListI4ItemEP8st_orderbbyyPc
081baf70 T _Z15remove_eq_condsP3THDP4ItemPNS1_11cond_resultE
081bb620 T _Z15find_item_equalP10COND_EQUALP5FieldPb
081bb6b0 T _ZN4JOIN6reinitEv
081bb880 T _ZN13st_join_table7cleanupEv
081bb960 T _ZN4JOIN7cleanupEb
081bbb60 T _ZN4JOIN9join_freeEv
081bbcb0 t _Z9do_selectP4JOINP4ListI4ItemEP8st_tableP9Procedure
081bc000 T _ZN4JOIN7destroyEv
081bc170 t _Z23test_if_skip_sort_orderP13st_join_tableP8st_orderyb
081bc890 t _Z19join_read_prev_sameP14st_read_record
081bc930 t _Z17calc_group_bufferP4JOINP8st_order
081bcab0 t _Z18alloc_group_fieldsP4JOINP8st_order
081bcb60 t _Z17make_group_fieldsP4JOINS0_
081bcbf0 t _Z17create_sort_indexP3THDP4JOINP8st_orderyy
081bcf00 T _ZN4JOIN13save_join_tabEv
081bcf70 t _Z16make_join_selectP4JOINP10SQL_SELECTP4Item
081bdf20 t _Z14check_equalityP4ItemP10COND_EQUAL
081be460 t _Z26build_equal_items_for_condP4ItemP10COND_EQUAL
081be720 t _Z17build_equal_itemsP3THDP4ItemP10COND_EQUALP4ListI13st_table_listEPS4_
081be8b0 t _Z24change_cond_ref_to_constP3THDP6I_ListI8COND_CMPEP4ItemS6_S6_S6_
081becb0 t _Z24propagate_cond_constantsP3THDP6I_ListI8COND_CMPEP4ItemS6_
081bef20 t _Z12add_key_partP16st_dynamic_arrayP11key_field_t
081bf090 t _Z11add_ft_keysP16st_dynamic_arrayP13st_join_tableP4Itemy
081bf330 t _Z14add_key_fieldsPP11key_field_tPjP4Itemy
081bfb20 t _Z20make_join_statisticsP4JOINP13st_table_listP4ItemP16st_dynamic_array
081c1ed0 t _Z20eliminate_item_equalP4ItemP10COND_EQUALP10Item_equal
081c2320 t _Z31substitute_for_best_equal_fieldP4ItemP10COND_EQUALPv
081c2540 t _Z18make_join_readinfoP4JOINj
081c2d60 t _Z13join_read_keyP13st_join_table
081c2f00 T _ZN4JOIN8optimizeEv
081c4d50 T _ZN4JOIN7prepareEPPP4ItemP13st_table_listjS1_jP8st_orderS7_S1_S7_P13st_select_lexP18st_select_lex_unit
081c5660 T _Z12mysql_selectP3THDPPP4ItemP13st_table_listjR4ListIS1_ES2_jP8st_orderSB_S2_SB_mP13select_resultP18st_select_lex_unitP13st_select_lex
081c5ca0 T _Z19mysql_explain_unionP3THDP18st_select_lex_unitP13select_result
081c5f00 t _Z15select_describeP4JOINbbbPKc
081c77b0 T _ZN4JOIN4execEv
081c9c20 T _Z13handle_selectP3THDP6st_lexP13select_resultm
081c9d70 W _ZN4ListI15Item_func_matchE15delete_elementsEv
081c9dd0 W _ZN4ListI15Item_func_matchEC1Ev
081c9df0 W _ZN4ListI15Item_func_matchEC2Ev
081c9e10 W _ZN4ListI15Item_func_matchEC1ERKS1_
081c9e30 W _ZN4ListI15Item_func_matchEC2ERKS1_
081c9e50 W _ZN4ListI15Item_func_matchE6concatEPS1_
081c9e80 W _ZN4ListI15Item_func_matchE3popEv
081c9eb0 W _ZN4ListI15Item_func_matchE7disjoinEPS1_
081c9ef0 W _ZN4ListI15Item_func_matchE7prepandEPS1_
081c9f20 W _ZN4ListI15Item_func_matchE4headEv
081c9f30 W _ZN4ListI15Item_func_matchE8head_refEv
081c9f50 W _ZN13List_iteratorI15Item_func_matchEC1Ev
081c9f80 W _ZN13List_iteratorI15Item_func_matchEC2Ev
081c9fb0 W _ZN13List_iteratorI15Item_func_matchE4initER4ListIS0_E
081c9fd0 W _ZN13List_iteratorI15Item_func_matchEC1ER4ListIS0_E
081c9ff0 W _ZN13List_iteratorI15Item_func_matchEC2ER4ListIS0_E
081ca010 W _ZN13List_iteratorI15Item_func_matchEppEi
081ca030 W _ZN13List_iteratorI15Item_func_matchE6rewindEv
081ca040 W _ZN13List_iteratorI15Item_func_matchE7replaceEPS0_
081ca060 W _ZN13List_iteratorI15Item_func_matchE7replaceER4ListIS0_E
081ca0e0 W _ZN13List_iteratorI15Item_func_matchE6removeEv
081ca140 W _ZN13List_iteratorI15Item_func_matchE3refEv
081ca150 W _ZN6I_ListI8COND_CMPE5emptyEv
081ca160 W _ZN6I_ListI8COND_CMPE8is_emptyEv
081ca180 W _ZN6I_ListI8COND_CMPE6appendEPS0_
081ca1a0 W _ZN6I_ListI8COND_CMPE9push_backEPS0_
081ca1d0 W _ZN6I_ListI8COND_CMPE3getEv
081ca210 W _ZN6I_ListI8COND_CMPE4headEv
081ca230 W _ZN15I_List_iteratorI8COND_CMPEC1ER6I_ListIS0_E
081ca250 W _ZN15I_List_iteratorI8COND_CMPEC2ER6I_ListIS0_E
081ca270 W _ZN15I_List_iteratorI8COND_CMPEppEi
081ca2a0 W _ZN16Item_null_result15is_result_fieldEv
081ca2c0 W _ZN16Item_null_result20save_in_result_fieldEb
081ca2f0 W _ZN19Item_func_trig_cond7val_intEv
081ca330 W _ZNK19Item_func_trig_cond8functypeEv
081ca340 W _ZNK19Item_func_trig_cond9func_nameEv
081ca350 W _ZNK19Item_func_trig_cond10const_itemEv
081ca360 W _ZN18QUICK_RANGE_SELECT14reverse_sortedEv
081ca370 W _ZN18QUICK_RANGE_SELECT13save_last_posEv
081ca3a0 W _ZN9FT_SELECT4initEv
081ca3c0 W _ZN9FT_SELECT5resetEv
081ca3d0 W _ZN9FT_SELECT8get_nextEv
081ca400 W _ZN9FT_SELECT8get_typeEv
081ca410 W _ZN9store_keyD1Ev
081ca420 W _ZN9store_keyD0Ev
081ca430 W _ZN15store_key_field4copyEv
081ca450 W _ZNK15store_key_field4nameEv
081ca460 W _ZN14store_key_itemD0Ev
081ca470 W _ZN14store_key_itemD1Ev
081ca480 W _ZN14store_key_item4copyEv
081ca4d0 W _ZNK14store_key_item4nameEv
081ca4e0 W _ZN20store_key_const_itemD1Ev
081ca4f0 W _ZN20store_key_const_itemD0Ev
081ca500 W _ZN20store_key_const_item4copyEv
081ca560 W _ZNK20store_key_const_item4nameEv
081ca570 W _ZN4ListI15Item_func_matchE9push_backEPS0_P11st_mem_root
081ca5c0 W _ZN4ListI15Item_func_matchE9push_backEPS0_
081ca610 W _ZN4ListI15Item_func_matchE10push_frontEPS0_
081ca660 W _ZN13List_iteratorI15Item_func_matchE5afterEPS0_
081ca6d0 W _ZN16Item_null_resultD0Ev
081ca730 W _ZN16Item_null_resultD1Ev
081ca790 W _ZN19Item_func_trig_condD0Ev
081ca7f0 W _ZN19Item_func_trig_condD1Ev
081ca850 W _ZN15store_key_fieldD0Ev
081ca8c0 W _ZN15store_key_fieldD1Ev
081ca930 W _ZN6I_ListI8COND_CMPEC1Ev
081ca950 W _ZN6I_ListI8COND_CMPEC2Ev
081ca970 W _ZN8COND_CMPD0Ev
081ca9b0 W _ZN8COND_CMPD1Ev
081ca9f0 W _ZN9FT_SELECTD0Ev
081caa20 W _ZN9FT_SELECTD1Ev
081caa50 T _ZN13select_insert8prepare2Ev
081caab0 T _ZN13select_insert7cleanupEv
081caac0 T _ZN13select_insertD2Ev
081cab30 T _ZN13select_insertD1Ev
081caba0 T _ZN13select_insertD0Ev
081cac10 t __tcf_0
081cac50 t _GLOBAL__I_delayed_threads
081caca0 T _ZN13select_create5abortEv
081cade0 T _Z20kill_delayed_threadsv
081caef0 T _ZN13select_create12store_valuesER4ListI4ItemE
081caf30 T _ZN13select_insert8send_eofEv
081cb220 T _ZN13select_create8send_eofEv
081cb300 T _ZN13select_insert10send_errorEjPKc
081cb510 T _ZN13select_create10send_errorEjPKc
081cb580 T _ZN13select_insert12store_valuesER4ListI4ItemE
081cb610 t _Z19check_update_fieldsP3THDP13st_table_listR4ListI4ItemE
081cb6e0 t _Z19check_insert_fieldsP3THDP13st_table_listR4ListI4ItemES6_b
081cbc00 T _ZN13select_insertC1EP13st_table_listP8st_tableP4ListI4ItemES7_S7_15enum_duplicatesb
081cbca0 T _ZN13select_insertC2EP13st_table_listP8st_tableP4ListI4ItemES7_S7_15enum_duplicatesb
081cbd40 t _Z18end_delayed_insertP3THD
081cbdb0 T _ZN14delayed_insert15get_local_tableEP3THD
081cc0f0 T _Z12find_handlerP3THDP13st_table_list
081cc1b0 T _Z38check_that_all_fields_are_given_valuesP3THDP8st_tableP13st_table_list
081cc300 T _ZN13select_create7prepareER4ListI4ItemEP18st_select_lex_unit
081cc4a0 T _ZN13select_insert7prepareER4ListI4ItemEP18st_select_lex_unit
081cc890 T _Z12write_recordP3THDP8st_tableP12st_copy_info
081ccf60 T _ZN13select_insert9send_dataER4ListI4ItemE
081cd0e0 T _ZN14delayed_insert14handle_insertsEv
081cd830 T handle_delayed_insert
081cded0 T _Z20mysql_prepare_insertP3THDP13st_table_listP8st_tableR4ListI4ItemEPS7_S8_S8_15enum_duplicatesPPS6_b
081ce260 T _Z27mysql_insert_select_prepareP3THD
081ce350 T _Z12mysql_insertP3THDP13st_table_listR4ListI4ItemERS3_IS5_ES6_S6_15enum_duplicatesb
081cfb50 W _ZN18List_iterator_fastI4ListI4ItemEE7replaceEPS2_
081cfb60 W _ZN18List_iterator_fastI4ListI4ItemEE7replaceERS0_IS2_E
081cfb70 W _ZN18List_iterator_fastI4ListI4ItemEE6removeEv
081cfb80 W _ZN18List_iterator_fastI4ListI4ItemEE5afterEPS2_
081cfb90 W _ZN18List_iterator_fastI4ListI4ItemEE3refEv
081cfba0 W _ZN18List_iterator_fastI4ListI4ItemEE7sublistERS0_IS2_Ej
081cfbc0 W _ZN18List_iterator_fastI4ListI4ItemEEC1Ev
081cfbf0 W _ZN18List_iterator_fastI4ListI4ItemEEC2Ev
081cfc20 W _ZN18List_iterator_fastI4ListI4ItemEE4initERS0_IS2_E
081cfc40 W _ZN18List_iterator_fastI4ListI4ItemEEC1ERS0_IS2_E
081cfc60 W _ZN18List_iterator_fastI4ListI4ItemEEC2ERS0_IS2_E
081cfc80 W _ZN18List_iterator_fastI4ListI4ItemEEppEi
081cfca0 W _ZN18List_iterator_fastI4ListI4ItemEE6rewindEv
081cfcb0 W _ZN6I_ListI11delayed_rowE5emptyEv
081cfcc0 W _ZN6I_ListI14delayed_insertE5emptyEv
081cfcd0 W _ZN6I_ListI11delayed_rowE8is_emptyEv
081cfcf0 W _ZN6I_ListI14delayed_insertE8is_emptyEv
081cfd10 W _ZN6I_ListI11delayed_rowE6appendEPS0_
081cfd30 W _ZN6I_ListI14delayed_insertE6appendEPS0_
081cfd50 W _ZN6I_ListI14delayed_insertE9push_backEPS0_
081cfd80 W _ZN6I_ListI11delayed_rowE9push_backEPS0_
081cfdb0 W _ZN6I_ListI14delayed_insertE3getEv
081cfdf0 W _ZN6I_ListI11delayed_rowE3getEv
081cfe30 W _ZN6I_ListI14delayed_insertE4headEv
081cfe50 W _ZN6I_ListI11delayed_rowE4headEv
081cfe70 W _ZN15I_List_iteratorI14delayed_insertEC1ER6I_ListIS0_E
081cfe90 W _ZN15I_List_iteratorI14delayed_insertEC2ER6I_ListIS0_E
081cfeb0 W _ZN15I_List_iteratorI14delayed_insertEppEi
081cfee0 W _ZN13select_createD0Ev
081cff00 W _ZN13select_createD1Ev
081cff20 W _ZN6I_ListI14delayed_insertEC1Ev
081cff40 W _ZN6I_ListI14delayed_insertEC2Ev
081cff60 W _ZN6I_ListI11delayed_rowEC1Ev
081cff80 W _ZN6I_ListI11delayed_rowEC2Ev
081cffa0 W _ZN11delayed_rowD0Ev
081cfff0 W _ZN11delayed_rowD1Ev
081d0040 W _ZN14delayed_insertD0Ev
081d01e0 W _ZN14delayed_insertD1Ev
081d0380 t _Z16get_param_lengthPPhm
081d0410 T _ZNK18Prepared_statement4typeEv
081d0420 T _ZN18Prepared_statement10deallocateEv
081d04c0 t _Z17reset_stmt_paramsP18Prepared_statement
081d0500 t _Z21select_like_stmt_testP18Prepared_statementPFbP3THDEm
081d0580 t _Z38select_like_stmt_test_with_open_n_lockP18Prepared_statementP13st_table_listPFbP3THDEm
081d05e0 t _Z34mysql_insert_select_prepare_testerP3THD
081d0630 t _Z14send_prep_stmtP18Prepared_statementj
081d0710 T _ZN18Prepared_statement8set_nameEP13st_lex_string
081d0760 T _ZN18Prepared_statement12cleanup_stmtEv
081d07d0 T _ZN18Prepared_statementD0Ev
081d0870 T _ZN18Prepared_statementD1Ev
081d0930 T _ZN18Prepared_statementD2Ev
081d09f0 T _ZN18Prepared_statement16setup_set_paramsEv
081d0a80 T _ZN18Prepared_statement7prepareEPKcj
081d1a70 t _Z13insert_paramsP18Prepared_statementPhS1_S1_P6String
081d1b20 t _Z23insert_params_from_varsP18Prepared_statementR4ListI13st_lex_stringEP6String
081d1bf0 t _Z21insert_params_withlogP18Prepared_statementPhS1_S1_P6String
081d1da0 t _Z32insert_params_from_vars_with_logP18Prepared_statementR4ListI13st_lex_stringEP6String
081d2000 T _ZN26Select_fetch_protocol_prep9send_dataER4ListI4ItemE
081d2050 T _ZN26Select_fetch_protocol_prep8send_eofEv
081d2090 T _ZN26Select_fetch_protocol_prep11send_fieldsER4ListI4ItemEj
081d20e0 T _ZN26Select_fetch_protocol_prepC1EP3THD
081d2130 T _ZN18Prepared_statementC1EP3THDP8Protocol
081d21d0 T _ZN18Prepared_statementC2EP3THDP8Protocol
081d2270 T _ZN26Select_fetch_protocol_prepC2EP3THD
081d22c0 t _Z23find_prepared_statementP3THDmPKc
081d2380 T _Z23mysql_stmt_get_longdataP3THDPcm
081d24a0 T _Z16mysql_stmt_closeP3THDPc
081d24d0 T _Z20mysql_sql_stmt_closeP3THD
081d25a0 T _Z16mysql_stmt_resetP3THDPc
081d2630 T _Z16mysql_stmt_fetchP3THDPcj
081d2820 t _Z13set_param_strP10Item_paramPPhm
081d2860 t _Z18set_param_datetimeP10Item_paramPPhm
081d2930 t _Z14set_param_dateP10Item_paramPPhm
081d29e0 t _Z14set_param_timeP10Item_paramPPhm
081d2ac0 t _Z17set_param_decimalP10Item_paramPPhm
081d2b00 t _Z16set_param_doubleP10Item_paramPPhm
081d2b40 t _Z15set_param_floatP10Item_paramPPhm
081d2b80 t _Z15set_param_int64P10Item_paramPPhm
081d2bd0 t _Z15set_param_int32P10Item_paramPPhm
081d2c20 t _Z15set_param_shortP10Item_paramPPhm
081d2c80 t _Z14set_param_tinyP10Item_paramPPhm
081d2ce0 T _Z22reinit_stmt_before_useP3THDP6st_lex
081d2ec0 T _ZN18Prepared_statement7executeEP6Stringb
081d31f0 T _Z22mysql_sql_stmt_executeP3THD
081d3350 T _Z18mysql_stmt_executeP3THDPcj
081d37f0 T _Z22mysql_sql_stmt_prepareP3THD
081d3b50 T _Z18mysql_stmt_prepareP3THDPKcj
081d3d00 W _ZThn12_NK18Prepared_statement4typeEv
081d3d10 W _ZN26Select_fetch_protocol_prepD0Ev
081d3d30 W _ZN26Select_fetch_protocol_prepD1Ev
081d3d50 W _ZThn12_N18Prepared_statement12cleanup_stmtEv
081d3d60 W _ZThn12_N18Prepared_statementD0Ev
081d3d70 W _ZThn12_N18Prepared_statementD1Ev
081d3d80 T _Z20mysqld_show_warningsP3THDm
081d4150 T _Z18mysql_reset_errorsP3THDb
081d4210 T _ZN11MYSQL_ERROR7set_msgEP3THDPKc
081d4240 T _Z12push_warningP3THDN11MYSQL_ERROR18enum_warning_levelEjPKc
081d4480 T _Z19push_warning_printfP3THDN11MYSQL_ERROR18enum_warning_levelEjPKcz
081d44e0 t _Z13get_table_mapP4ListI4ItemE
081d4550 t _Z14compare_recordP8st_tabley
081d4650 T _ZN12multi_update10do_updatesEb
081d4ab0 T _ZN12multi_update8send_eofEv
081d4dc0 T _ZN12multi_update10send_errorEjPKc
081d4e60 T _ZN12multi_update9send_dataER4ListI4ItemE
081d51c0 T _ZN12multi_updateD0Ev
081d5390 T _ZN12multi_updateD1Ev
081d5560 T _ZN12multi_updateD2Ev
081d5730 T _ZN12multi_update17initialize_tablesEP4JOIN
081d5ad0 T _ZN12multi_update7prepareER4ListI4ItemEP18st_select_lex_unit
081d5fb0 T _ZN12multi_updateC1EP13st_table_listS1_P4ListI4ItemES5_15enum_duplicatesb
081d6040 T _ZN12multi_updateC2EP13st_table_listS1_P4ListI4ItemES5_15enum_duplicatesb
081d60d0 T _Z18mysql_multi_updateP3THDP13st_table_listP4ListI4ItemES6_PS4_y15enum_duplicatesbP18st_select_lex_unitP13st_select_lex
081d6200 t _Z12check_fieldsP3THDR4ListI4ItemE
081d6300 T _Z26mysql_multi_update_prepareP3THD
081d68b0 T _Z20mysql_prepare_updateP3THDP13st_table_listPP4ItemjP8st_order
081d6ac0 T _Z12mysql_updateP3THDP13st_table_listR4ListI4ItemES6_PS4_jP8st_ordery15enum_duplicatesb
081d7e70 T refpos_order_cmp
081d7ea0 T _ZN12multi_delete7prepareER4ListI4ItemEP18st_select_lex_unit
081d7ed0 T _ZN12multi_delete10do_deletesEv
081d80b0 T _ZN12multi_delete8send_eofEv
081d82f0 T _ZN12multi_delete10send_errorEjPKc
081d83a0 T _ZN12multi_delete9send_dataER4ListI4ItemE
081d8580 T _ZN12multi_deleteD0Ev
081d8600 T _ZN12multi_deleteD1Ev
081d8680 T _ZN12multi_deleteD2Ev
081d8700 T _ZN12multi_delete17initialize_tablesEP4JOIN
081d8930 T _ZN12multi_deleteC1EP13st_table_listj
081d89a0 T _ZN12multi_deleteC2EP13st_table_listj
081d8a10 T _Z26mysql_multi_delete_prepareP3THD
081d8b50 T _Z20mysql_prepare_deleteP3THDP13st_table_listPP4Item
081d8c80 T _Z12mysql_deleteP3THDP13st_table_listP4ItemP11st_sql_listyyb
081d99f0 T _Z14mysql_truncateP3THDP13st_table_listb
081d9eb0 t buffpek_compare
081d9ee0 T _Z20unique_write_to_ptrsPcjP6Unique
081d9f20 T _Z20unique_write_to_filePcjP6Unique
081d9fa0 T _ZN6Unique5resetEv
081da020 T _ZN6Unique5flushEv
081da0b0 T _ZN6Unique3getEP8st_table
081da3c0 T _ZN6Unique4walkEPFiPvjS0_ES0_
081da740 T _ZN6UniqueD1Ev
081da770 T _ZN6UniqueD2Ev
081da7a0 t _Z22get_merge_buffers_costPjjS_S_
081da830 T _ZN6Unique12get_use_costEPjjjm
081dab20 T _ZN6UniqueC1EPFiPvPKvS2_ES0_jm
081dac10 T _ZN6UniqueC2EPFiPvPKvS2_ES0_jm
081dad00 T _Z8mysql_doP3THDR4ListI4ItemE
081dae00 T _Z15setup_procedureP3THDP8st_orderP13select_resultR4ListI4ItemEPi
081daeb0 T _ZN14Item_proc_real11val_decimalEP10my_decimal
081daf30 T _ZN13Item_proc_int11val_decimalEP10my_decimal
081dafa0 T _ZN16Item_proc_string11val_decimalEP10my_decimal
081daff0 W _ZNK9Item_proc4typeEv
081db000 W _ZNK14Item_proc_real11result_typeEv
081db010 W _ZNK14Item_proc_real10field_typeEv
081db020 W _ZN14Item_proc_real3setEd
081db030 W _ZN14Item_proc_real3setEx
081db040 W _ZN14Item_proc_real3setEPKcjP15charset_info_st
081db080 W _ZN14Item_proc_real8val_realEv
081db090 W _ZN14Item_proc_real7val_intEv
081db0c0 W _ZNK13Item_proc_int11result_typeEv
081db0d0 W _ZNK13Item_proc_int10field_typeEv
081db0e0 W _ZN13Item_proc_int3setEd
081db110 W _ZN13Item_proc_int3setEx
081db130 W _ZN13Item_proc_int3setEPKcjP15charset_info_st
081db180 W _ZN13Item_proc_int8val_realEv
081db190 W _ZN13Item_proc_int7val_intEv
081db1a0 W _ZNK16Item_proc_string11result_typeEv
081db1b0 W _ZNK16Item_proc_string10field_typeEv
081db1c0 W _ZN16Item_proc_string8val_realEv
081db210 W _ZN16Item_proc_string7val_intEv
081db260 W _ZN16Item_proc_string7val_strEP6String
081db280 W _ZN14Item_proc_real7val_strEP6String
081db2c0 W _ZN16Item_proc_string3setEd
081db300 W _ZN14Item_proc_realD0Ev
081db360 W _ZN14Item_proc_realD1Ev
081db3c0 W _ZN13Item_proc_intD0Ev
081db420 W _ZN13Item_proc_intD1Ev
081db480 W _ZN16Item_proc_stringD0Ev
081db4e0 W _ZN16Item_proc_stringD1Ev
081db540 W _ZN9Item_procD0Ev
081db5a0 W _ZN9Item_procD1Ev
081db600 W _ZN13Item_proc_int7val_strEP6String
081db640 W _ZN16Item_proc_string3setEx
081db680 W _ZN16Item_proc_string3setEPKcjP15charset_info_st
081db6a0 W _ZN9Item_proc10make_fieldEP10Send_field
081db6d0 T _ZN21Item_sum_unique_users16create_tmp_fieldEbP8st_tablej
081db760 W _ZN21Item_sum_unique_users8val_realEv
081db770 W _ZNK21Item_sum_unique_users8sum_funcEv
081db780 W _ZN21Item_sum_unique_users5clearEv
081db790 W _ZN21Item_sum_unique_users3addEv
081db7a0 W _ZN21Item_sum_unique_users11reset_fieldEv
081db7b0 W _ZN21Item_sum_unique_users12update_fieldEv
081db7c0 W _ZN21Item_sum_unique_users10fix_fieldsEP3THDPP4Item
081db7d0 W _ZNK21Item_sum_unique_users9func_nameEv
081db7e0 W _ZN21Item_sum_unique_users12copy_or_sameEP3THD
081db820 W _ZN21Item_sum_unique_usersD0Ev
081db880 W _ZN21Item_sum_unique_usersD1Ev
081db8e0 W _ZN21Item_sum_unique_users5printEP6String
081db910 t _Z10dl_compareP13st_debug_lockS0_
081db960 t _Z21push_locks_into_arrayP16st_dynamic_arrayP16st_thr_lock_databPKc
081dba50 T _Z18mysql_print_statusv
081dbe10 t _Z22print_key_cache_statusPKcP12st_key_cache
081dbf50 t _Z11binlog_initv
081dbf70 t _Z14binlog_prepareP3THDb
081dbf80 T _ZN9MYSQL_LOG4initE13enum_log_type10cache_typebm
081dbfb0 T _ZN9MYSQL_LOG18start_union_eventsEP3THD
081dbff0 T _ZN9MYSQL_LOG17stop_union_eventsEP3THD
081dc000 T _ZN9MYSQL_LOG17is_query_in_unionEP3THDy
081dc050 t _Z23binlog_close_connectionP3THD
081dc080 t __tcf_2
081dc090 t __tcf_1
081dc0a0 t __tcf_0
081dc0b0 t __tcf_4
081dc0c0 t __tcf_3
081dc0d0 T _ZN11TC_LOG_MMAP5unlogEmy
081dc180 T _ZN9MYSQL_LOG12set_max_sizeEm
081dc1c0 T _ZN9MYSQL_LOG12next_file_idEv
081dc210 T _ZN9MYSQL_LOG5closeEv
081dc240 T _ZN9MYSQL_LOG20init_pthread_objectsEv
081dc290 T _ZN9MYSQL_LOG15get_current_logEP11st_log_info
081dc310 T _ZN9MYSQL_LOGC1Ev
081dc3e0 t _GLOBAL__I_binlog_hton
081dc4b0 T _ZN9MYSQL_LOGC2Ev
081dc580 T _ZN11TC_LOG_MMAP5closeEv
081dc6c0 T _ZN11TC_LOG_MMAP4syncEv
081dc7a0 T _ZN9MYSQL_LOG13signal_updateEv
081dc7c0 T _ZN11TC_LOG_MMAP8overflowEv
081dc7f0 T _ZN11TC_LOG_MMAP20get_active_from_poolEv
081dc910 T _ZN11TC_LOG_MMAP3logEP3THDy
081dcb30 T _ZN9MYSQL_LOG15wait_for_updateEP3THDb
081dcbe0 T _Z15flush_error_logv
081dccd0 T _Z20print_buffer_to_file8loglevelPKc
081dcdb0 T _Z17vprint_msg_to_log8loglevelPKcPc
081dce00 T _Z21sql_print_informationPKcz
081dce30 T _Z17sql_print_warningPKcz
081dce60 T _Z15sql_print_errorPKcz
081dce90 T _ZN9MYSQL_LOG7recoverEP11st_io_cacheP28Format_description_log_event
081dcff0 T _ZN6TC_LOG23using_heuristic_recoverEv
081dd050 T _ZN11TC_LOG_MMAP7recoverEv
081dd1d0 T _ZN11TC_LOG_MMAP4openEPKc
081dd640 T _Z10sql_perrorPKc
081dd670 T _Z18check_binlog_magicP11st_io_cachePPKc
081dd720 T _ZN9MYSQL_LOG5closeEj
081dd9f0 T _ZN9MYSQL_LOG7cleanupEv
081dda80 T _ZN9MYSQL_LOG9is_activeEPKc
081ddab0 T _ZN9MYSQL_LOG5writeEP3THDPKcjl
081de1e0 T _ZN9MYSQL_LOG14flush_and_syncEv
081de260 T _ZN9MYSQL_LOG5writeEP3THD19enum_server_commandPKcz
081de670 T _ZN9MYSQL_LOG13make_log_nameEPcPKc
081de6e0 T _ZN9MYSQL_LOG16update_log_indexEP11st_log_infob
081de8c0 T _ZN9MYSQL_LOG13find_next_logEP11st_log_infob
081de9f0 T _ZN9MYSQL_LOG12find_log_posEP11st_log_infoPKcb
081deba0 T _ZN9MYSQL_LOG22purge_logs_before_dateEl
081decc0 T _ZN9MYSQL_LOG10purge_logsEPKcbbbPy
081deee0 T _ZN9MYSQL_LOG15purge_first_logEP17st_relay_log_infob
081df0f0 T _ZN9MYSQL_LOG15open_index_fileEPKcS1_
081df200 T _Z11open_binlogP11st_io_cachePKcPS2_
081df300 T _ZN9MYSQL_LOG13generate_nameEPKcS1_bPc
081df390 T _ZN9MYSQL_LOG17generate_new_nameEPcPKc
081df620 T _ZN9MYSQL_LOG4openEPKc13enum_log_typeS1_10cache_typebmb
081dfe40 T _ZN9MYSQL_LOG4openEPKc
081e0140 T _ZN9MYSQL_LOG8new_fileEb
081e03b0 T _ZN9MYSQL_LOG16rotate_and_purgeEj
081e0490 T _ZN9MYSQL_LOG5unlogEmy
081e0510 T _ZN9MYSQL_LOG5writeEP3THDP11st_io_cacheP9Log_event
081e0830 t _Z16binlog_end_transP3THDP11st_io_cacheP9Log_event
081e08c0 t _Z15binlog_rollbackP3THDb
081e0990 t _Z13binlog_commitP3THDb
081e0a70 T _ZN9MYSQL_LOG3logEP3THDy
081e0b10 T _ZN9MYSQL_LOG5writeEP9Log_event
081e1210 t _Z25binlog_savepoint_rollbackP3THDPv
081e12f0 t _Z20binlog_savepoint_setP3THDPv
081e13c0 T _ZN9MYSQL_LOG7appendvEPKcjz
081e1480 T _ZN9MYSQL_LOG6appendEP9Log_event
081e1540 T _ZN9MYSQL_LOG10reset_logsEP3THD
081e1710 W _ZN12TC_LOG_DUMMY4openEPKc
081e1720 W _ZN12TC_LOG_DUMMY5closeEv
081e1730 W _ZN12TC_LOG_DUMMY3logEP3THDy
081e1740 W _ZN12TC_LOG_DUMMY5unlogEmy
081e1750 W _ZN9MYSQL_LOGD0Ev
081e1770 W _ZN6TC_LOGD0Ev
081e1790 W _ZN6TC_LOGD1Ev
081e17a0 W _ZN9MYSQL_LOGD1Ev
081e17b0 W _ZN11TC_LOG_MMAPD0Ev
081e17d0 W _ZN11TC_LOG_MMAPD1Ev
081e17e0 W _ZN12TC_LOG_DUMMYD0Ev
081e1800 W _ZN12TC_LOG_DUMMYD1Ev
081e1810 t _Z16clear_all_errorsP3THDP17st_relay_log_info
081e1850 t _Z16pretty_print_strPcS_i
081e1930 T _ZN9Log_event12get_type_strEv
081e19e0 T _ZN9Log_eventC2EP3THDtb
081e1a30 T _ZN9Log_eventC1EP3THDtb
081e1a80 T _ZN9Log_eventC2EPKcPK28Format_description_log_event
081e1b30 T _ZN9Log_eventC1EPKcPK28Format_description_log_event
081e1be0 t _Z23get_str_len_and_pointerPPKcS1_Pj
081e1c20 T _ZN14Load_log_event23get_query_buffer_lengthEv
081e1c70 T _ZN16Intvar_log_event17get_var_type_nameEv
081e1ca0 T _ZN16Intvar_log_event10exec_eventEP17st_relay_log_info
081e1d50 T _ZN14Rand_log_event10exec_eventEP17st_relay_log_info
081e1d90 T _ZN15Slave_log_event13get_data_sizeEv
081e1db0 T _ZN21Create_file_log_event10write_baseEP11st_io_cache
081e1de0 T _ZNK22Append_block_log_event20get_create_or_appendEv
081e1df0 T _ZNK26Begin_load_query_log_event20get_create_or_appendEv
081e1e00 T _ZN28Execute_load_query_log_event32get_post_header_size_for_derivedEv
081e1e10 T _ZN11sql_ex_info4initEPcS0_b
081e1f70 T _ZN22Execute_load_log_eventC1EPKcjPK28Format_description_log_event
081e1fd0 T _ZN22Execute_load_log_eventC2EPKcjPK28Format_description_log_event
081e2030 T _ZN22Execute_load_log_eventC1EP3THDPKcb
081e2080 T _ZN22Execute_load_log_eventC2EP3THDPKcb
081e20d0 T _ZN21Delete_file_log_eventC1EPKcjPK28Format_description_log_event
081e2130 T _ZN21Delete_file_log_eventC2EPKcjPK28Format_description_log_event
081e2190 T _ZN21Delete_file_log_eventC1EP3THDPKcb
081e21e0 T _ZN21Delete_file_log_eventC2EP3THDPKcb
081e2230 T _ZN22Append_block_log_eventC1EPKcjPK28Format_description_log_event
081e22a0 T _ZN22Append_block_log_eventC2EPKcjPK28Format_description_log_event
081e2310 T _ZN22Append_block_log_eventC1EP3THDPKcPcjb
081e2370 T _ZN22Append_block_log_eventC2EP3THDPKcPcjb
081e23d0 T _ZN18User_var_log_eventC1EPKcPK28Format_description_log_event
081e2480 T _ZN18User_var_log_eventC2EPKcPK28Format_description_log_event
081e2530 T _ZN14Rand_log_eventC1EPKcPK28Format_description_log_event
081e2590 T _ZN14Rand_log_eventC2EPKcPK28Format_description_log_event
081e25f0 T _ZN16Intvar_log_eventC1EPKcPK28Format_description_log_event
081e2650 T _ZN16Intvar_log_eventC2EPKcPK28Format_description_log_event
081e26b0 T _ZN26Begin_load_query_log_eventC1EPKcjPK28Format_description_log_event
081e26f0 T _ZN26Begin_load_query_log_eventC2EPKcjPK28Format_description_log_event
081e2730 T _ZN15Slave_log_eventD0Ev
081e2780 T _ZN15Slave_log_eventD1Ev
081e27d0 T _ZN15Slave_log_eventD2Ev
081e2820 t _Z9write_strP11st_io_cachePcj
081e28a0 T _ZN11sql_ex_info10write_dataEP11st_io_cache
081e2a20 T _ZN28Execute_load_query_log_event29write_post_header_for_derivedEP11st_io_cache
081e2a70 T _ZN14Load_log_event15write_data_bodyEP11st_io_cache
081e2b70 T _ZN21Create_file_log_event15write_data_bodyEP11st_io_cache
081e2c10 T _ZN14Load_log_event17write_data_headerEP11st_io_cache
081e2c70 T _ZN21Create_file_log_event17write_data_headerEP11st_io_cache
081e2ce0 T _ZN13Xid_log_eventC1EPKcPK28Format_description_log_event
081e2d30 T _ZN13Xid_log_eventC2EPKcPK28Format_description_log_event
081e2d80 T _ZN18Start_log_event_v3C1EPKcPK28Format_description_log_event
081e2e00 T _ZN18Start_log_event_v3C2EPKcPK28Format_description_log_event
081e2e80 t _Z17copy_str_and_movePPcPPKcj
081e2ed0 T _ZN28Execute_load_query_log_event9pack_infoEP8Protocol
081e3000 T _ZN21Create_file_log_event9pack_infoEP8Protocol
081e3100 T _ZN14Rand_log_event9pack_infoEP8Protocol
081e31a0 T _ZN18Start_log_event_v39pack_infoEP8Protocol
081e3240 T _ZN15Query_log_event9pack_infoEP8Protocol
081e3360 T _ZN26Begin_load_query_log_eventC1EP3THDPKcPcjb
081e33c0 T _ZN26Begin_load_query_log_eventC2EP3THDPKcPcjb
081e3420 T _ZN22Execute_load_log_event9pack_infoEP8Protocol
081e3470 T _ZN21Delete_file_log_event9pack_infoEP8Protocol
081e34c0 T _ZN22Append_block_log_event9pack_infoEP8Protocol
081e3520 T _ZN28Format_description_log_eventC1EPKcjPKS_
081e35a0 T _ZN28Format_description_log_eventC2EPKcjPKS_
081e3620 T _ZN14Stop_log_event10exec_eventEP17st_relay_log_info
081e3690 T _ZN9Log_event10exec_eventEP17st_relay_log_info
081e3730 T _ZN21Delete_file_log_event10exec_eventEP17st_relay_log_info
081e3840 T _ZN22Append_block_log_event10exec_eventEP17st_relay_log_info
081e3ad0 T _ZN21Create_file_log_event10exec_eventEP17st_relay_log_info
081e3e30 T _ZN15Slave_log_event10exec_eventEP17st_relay_log_info
081e3e90 T _ZN15Slave_log_event18init_from_mem_poolEi
081e3f00 T _ZN15Slave_log_eventC1EPKcj
081e3fa0 T _ZN15Slave_log_eventC2EPKcj
081e4040 T _ZN14Load_log_event14copy_log_eventEPKcmiPK28Format_description_log_event
081e4150 T _ZN14Load_log_eventC1EPKcjPK28Format_description_log_event
081e4250 T _ZN14Load_log_eventC2EPKcjPK28Format_description_log_event
081e4350 T _ZN21Create_file_log_eventC1EPKcjPK28Format_description_log_event
081e4530 T _ZN21Create_file_log_eventC2EPKcjPK28Format_description_log_event
081e4710 T _ZN15Slave_log_eventC1EP3THDP17st_relay_log_info
081e48c0 T _ZN15Slave_log_eventC2EP3THDP17st_relay_log_info
081e4a70 T _ZN15Slave_log_event9pack_infoEP8Protocol
081e4b70 T _ZN13Xid_log_event9pack_infoEP8Protocol
081e4c00 T _ZN16Intvar_log_event9pack_infoEP8Protocol
081e4c90 T _ZN14Load_log_event11print_queryEbPcPS0_S1_S1_
081e4ff0 T _ZN14Load_log_event9pack_infoEP8Protocol
081e5080 T _ZN18User_var_log_event10exec_eventEP17st_relay_log_info
081e5570 T _ZN9Log_event20init_show_field_listEP4ListI4ItemE
081e5910 T _ZN13Xid_log_event10exec_eventEP17st_relay_log_info
081e5990 T _ZN16Rotate_log_event10exec_eventEP17st_relay_log_info
081e5ad0 T _ZN16Rotate_log_eventC1EPKcjPK28Format_description_log_event
081e5b90 T _ZN16Rotate_log_eventC2EPKcjPK28Format_description_log_event
081e5c50 T _ZN16Rotate_log_event9pack_infoEP8Protocol
081e5d60 T _ZN14Load_log_event10set_fieldsEPKcR4ListI4ItemEP23Name_resolution_context
081e5e10 T _ZN14Load_log_event10exec_eventEP6st_netP17st_relay_log_infob
081e66b0 T _ZN14Load_log_eventC1EP3THDP12sql_exchangePKcS5_R4ListI4ItemE15enum_duplicatesbb
081e6980 T _ZN14Load_log_eventC2EP3THDP12sql_exchangePKcS5_R4ListI4ItemE15enum_duplicatesbb
081e6c50 T _ZN21Create_file_log_eventC1EP3THDP12sql_exchangePKcS5_R4ListI4ItemE15enum_duplicatesbPcjb
081e6cf0 T _ZN21Create_file_log_eventC2EP3THDP12sql_exchangePKcS5_R4ListI4ItemE15enum_duplicatesbPcjb
081e6d90 T _ZN15Query_log_eventC1EP3THDPKcmbb
081e6f60 T _ZN15Query_log_eventC2EP3THDPKcmbb
081e7130 T _ZN28Execute_load_query_log_eventC1EP3THDPKcmjj22enum_load_dup_handlingbb
081e71a0 T _ZN28Execute_load_query_log_eventC2EP3THDPKcmjj22enum_load_dup_handlingbb
081e7210 T _ZN9Log_eventC1Ev
081e7270 T _ZN9Log_eventC2Ev
081e72d0 T _ZN16Rotate_log_eventC1EP3THDPKcjyj
081e7370 T _ZN16Rotate_log_eventC2EP3THDPKcjyj
081e7410 T _ZN18Start_log_event_v3C1Ev
081e7470 T _ZN18Start_log_event_v3C2Ev
081e74d0 T _ZN28Format_description_log_eventC1EhPKc
081e76d0 T _ZN28Format_description_log_eventC2EhPKc
081e78d0 T _ZN18Start_log_event_v310exec_eventEP17st_relay_log_info
081e7a80 T _ZN28Format_description_log_event10exec_eventEP17st_relay_log_info
081e7b80 T _ZN15Query_log_event10exec_eventEP17st_relay_log_infoPKcj
081e8270 T _ZN28Execute_load_query_log_event10exec_eventEP17st_relay_log_info
081e84c0 T _ZN15Query_log_event10exec_eventEP17st_relay_log_info
081e84f0 T _ZN15Query_log_eventC1EPKcjPK28Format_description_log_event14Log_event_type
081e8770 T _ZN15Query_log_eventC2EPKcjPK28Format_description_log_event14Log_event_type
081e89f0 T _ZN28Execute_load_query_log_eventC1EPKcjPK28Format_description_log_event
081e8a90 T _ZN9Log_event14read_log_eventEPKcjPS1_PK28Format_description_log_event
081e8e60 T _ZN28Execute_load_query_log_eventC2EPKcjPK28Format_description_log_event
081e8f00 T _ZN9Log_event14read_log_eventEP11st_io_cacheP15pthread_mutex_tPK28Format_description_log_event
081e9120 T _ZN22Execute_load_log_event10exec_eventEP17st_relay_log_info
081e9440 T _ZN9Log_event14read_log_eventEP11st_io_cacheP6StringP15pthread_mutex_t
081e9590 T _ZN9Log_event12write_headerEP11st_io_cachem
081e9650 T _ZN22Execute_load_log_event5writeEP11st_io_cache
081e96c0 T _ZN21Delete_file_log_event5writeEP11st_io_cache
081e9730 T _ZN22Append_block_log_event5writeEP11st_io_cache
081e97c0 T _ZN15Slave_log_event5writeEP11st_io_cache
081e9850 T _ZN18User_var_log_event5writeEP11st_io_cache
081e9a60 T _ZN13Xid_log_event5writeEP11st_io_cache
081e9ad0 T _ZN14Rand_log_event5writeEP11st_io_cache
081e9b50 T _ZN16Intvar_log_event5writeEP11st_io_cache
081e9bd0 T _ZN16Rotate_log_event5writeEP11st_io_cache
081e9c60 T _ZN28Format_description_log_event5writeEP11st_io_cache
081e9d20 T _ZN18Start_log_event_v35writeEP11st_io_cache
081e9dc0 T _ZN15Query_log_event5writeEP11st_io_cache
081e9ff0 T _ZN9Log_event8net_sendEP8ProtocolPKcy
081ea0e0 T _ZN9Log_event9pack_infoEP8Protocol
081ea110 T _Z10str_to_hexPcPKcj
081ea160 T _ZN18User_var_log_event9pack_infoEP8Protocol
081ea490 W _ZN9Log_event6get_dbEv
081ea4b0 W _ZN9Log_event13get_data_sizeEv
081ea4c0 W _ZN9Log_event17write_data_headerEP11st_io_cache
081ea4d0 W _ZN9Log_event15write_data_bodyEP11st_io_cache
081ea4e0 W _ZN9Log_event19is_artificial_eventEv
081ea4f0 W _ZN15Query_log_event6get_dbEv
081ea500 W _ZN15Query_log_event13get_type_codeEv
081ea510 W _ZN15Query_log_event29write_post_header_for_derivedEP11st_io_cache
081ea520 W _ZNK15Query_log_event8is_validEv
081ea540 W _ZN15Query_log_event32get_post_header_size_for_derivedEv
081ea550 W _ZNK15Slave_log_event8is_validEv
081ea570 W _ZN15Slave_log_event13get_type_codeEv
081ea580 W _ZN14Load_log_event6get_dbEv
081ea590 W _ZN14Load_log_event13get_type_codeEv
081ea600 W _ZNK14Load_log_event8is_validEv
081ea620 W _ZN14Load_log_event13get_data_sizeEv
081ea6c0 W _ZN18Start_log_event_v313get_type_codeEv
081ea6d0 W _ZNK18Start_log_event_v38is_validEv
081ea6e0 W _ZN18Start_log_event_v313get_data_sizeEv
081ea6f0 W _ZN18Start_log_event_v319is_artificial_eventEv
081ea700 W _ZN28Format_description_log_event13get_type_codeEv
081ea710 W _ZNK28Format_description_log_event8is_validEv
081ea750 W _ZN28Format_description_log_event13get_data_sizeEv
081ea760 W _ZN16Intvar_log_event13get_type_codeEv
081ea770 W _ZN16Intvar_log_event13get_data_sizeEv
081ea780 W _ZNK16Intvar_log_event8is_validEv
081ea790 W _ZN14Rand_log_event13get_type_codeEv
081ea7a0 W _ZN14Rand_log_event13get_data_sizeEv
081ea7b0 W _ZNK14Rand_log_event8is_validEv
081ea7c0 W _ZN13Xid_log_event13get_type_codeEv
081ea7d0 W _ZN13Xid_log_event13get_data_sizeEv
081ea7e0 W _ZNK13Xid_log_event8is_validEv
081ea7f0 W _ZN18User_var_log_event13get_type_codeEv
081ea800 W _ZNK18User_var_log_event8is_validEv
081ea810 W _ZN14Stop_log_event13get_type_codeEv
081ea820 W _ZNK14Stop_log_event8is_validEv
081ea830 W _ZN16Rotate_log_event13get_type_codeEv
081ea840 W _ZN16Rotate_log_event13get_data_sizeEv
081ea850 W _ZNK16Rotate_log_event8is_validEv
081ea870 W _ZN21Create_file_log_event13get_type_codeEv
081ea8e0 W _ZN21Create_file_log_event13get_data_sizeEv
081eaa30 W _ZNK21Create_file_log_event8is_validEv
081eaa60 W _ZN22Append_block_log_event13get_type_codeEv
081eaa70 W _ZN22Append_block_log_event13get_data_sizeEv
081eaa80 W _ZNK22Append_block_log_event8is_validEv
081eaaa0 W _ZN22Append_block_log_event6get_dbEv
081eaab0 W _ZN21Delete_file_log_event13get_type_codeEv
081eaac0 W _ZN21Delete_file_log_event13get_data_sizeEv
081eaad0 W _ZNK21Delete_file_log_event8is_validEv
081eaaf0 W _ZN21Delete_file_log_event6get_dbEv
081eab00 W _ZN22Execute_load_log_event13get_type_codeEv
081eab10 W _ZN22Execute_load_log_event13get_data_sizeEv
081eab20 W _ZNK22Execute_load_log_event8is_validEv
081eab40 W _ZN22Execute_load_log_event6get_dbEv
081eab50 W _ZN26Begin_load_query_log_event13get_type_codeEv
081eab60 W _ZN28Execute_load_query_log_event13get_type_codeEv
081eab70 W _ZNK28Execute_load_query_log_event8is_validEv
081eaba0 W _ZN28Execute_load_query_log_eventD0Ev
081eac10 W _ZN28Execute_load_query_log_eventD1Ev
081eac70 W _ZN26Begin_load_query_log_eventD0Ev
081eacb0 W _ZN26Begin_load_query_log_eventD1Ev
081eacf0 W _ZN22Execute_load_log_eventD0Ev
081ead30 W _ZN22Execute_load_log_eventD1Ev
081ead70 W _ZN21Delete_file_log_eventD0Ev
081eadb0 W _ZN21Delete_file_log_eventD1Ev
081eadf0 W _ZN22Append_block_log_eventD0Ev
081eae30 W _ZN22Append_block_log_eventD1Ev
081eae70 W _ZN14Stop_log_eventD0Ev
081eaeb0 W _ZN14Stop_log_eventD1Ev
081eaef0 W _ZN18User_var_log_eventD0Ev
081eaf30 W _ZN18User_var_log_eventD1Ev
081eaf70 W _ZN13Xid_log_eventD0Ev
081eafb0 W _ZN13Xid_log_eventD1Ev
081eaff0 W _ZN14Rand_log_eventD0Ev
081eb030 W _ZN14Rand_log_eventD1Ev
081eb070 W _ZN16Intvar_log_eventD0Ev
081eb0b0 W _ZN16Intvar_log_eventD1Ev
081eb0f0 W _ZN18Start_log_event_v3D0Ev
081eb130 W _ZN18Start_log_event_v3D1Ev
081eb170 W _ZN9Log_eventD0Ev
081eb1b0 W _ZN9Log_eventD1Ev
081eb1f0 W _ZN21Create_file_log_eventD0Ev
081eb2f0 W _ZN14Load_log_eventD0Ev
081eb3e0 W _ZN14Load_log_eventD1Ev
081eb4c0 W _ZN21Create_file_log_eventD1Ev
081eb5b0 W _ZN16Rotate_log_eventD0Ev
081eb620 W _ZN16Rotate_log_eventD1Ev
081eb680 W _ZN28Format_description_log_eventD0Ev
081eb6d0 W _ZN28Format_description_log_eventD1Ev
081eb720 W _ZN15Query_log_eventD0Ev
081eb790 W _ZN15Query_log_eventD1Ev
081eb7f0 W _ZN14Load_log_event10exec_eventEP17st_relay_log_info
081eb820 W _ZN9Log_event5writeEP11st_io_cache
081eb890 T _Z11unireg_initm
081eb940 T _Z15init_errmessagev
081ebd40 t _Z17acl_entry_get_keyP9acl_entryPjc
081ebd60 t _Z11acl_compareP10ACL_ACCESSS0_
081ebd80 t _Z13check_get_keyP8ACL_USERPjc
081ebda0 t _Z14get_key_columnP12GRANT_COLUMNPjc
081ebdc0 t _Z15get_grant_tableP10GRANT_NAMEPjc
081ebde0 T _Z17wild_case_compareP15charset_info_stPKcS2_
081ebf90 T _Z18get_privilege_descPcjm
081ec000 t _Z7calc_ipPKcPlc
081ec130 t _Z16compare_hostnamePK15acl_host_and_ipPKcS3_
081ec1f0 t _Z16name_hash_searchP7st_hashPKcS2_S2_S2_S2_b
081ec340 T _Z15get_table_grantP3THDP13st_table_list
081ec410 T _Z23check_routine_level_aclP3THDPKcS2_b
081ec4c0 t _Z15update_hostnameP15acl_host_and_ipPKc
081ec510 t _Z13find_acl_userPKcS0_c
081ec5d0 T _Z14check_acl_userP11st_lex_userPj
081ec690 t _Z18modify_grant_tableP8st_tableP5FieldS2_P11st_lex_user
081ec770 T _Z23update_schema_privilegeP8st_tablePcPKcS3_S3_jS3_jS3_
081ec8d0 T _Z29fill_schema_column_privilegesP3THDP13st_table_listP4Item
081ecb90 T _Z28fill_schema_table_privilegesP3THDP13st_table_listP4Item
081ece10 T _Z29fill_schema_schema_privilegesP3THDP13st_table_listP4Item
081ed0d0 T _Z27fill_schema_user_privilegesP3THDP13st_table_listP4Item
081ed360 T _Z16get_column_grantP3THDP13st_grant_infoPKcS4_S4_
081ed460 T _Z27hostname_requires_resolvingPKc
081ed530 T _Z7get_mqhPKcS0_P9user_conn
081ed590 T _Z11is_acl_userPKcS0_
081ed5f0 T _Z14acl_check_hostPKcS0_
081ed710 t _Z36restrict_update_of_old_passwords_varP3THD13enum_var_type
081ed750 T _Z19check_grant_routineP3THDmP13st_table_listbb
081ed910 T _Z23check_grant_all_columnsP3THDmP13st_grant_infoPKcS4_P14Field_iterator
081edaa0 T _Z18check_grant_columnP3THDP13st_grant_infoPKcS4_S4_jP16Security_context
081edbd0 T _Z31check_column_grant_in_table_refP3THDP13st_table_listPKcj
081edc90 T _Z11check_grantP3THDmP13st_table_listjjb
081edf10 T _Z21check_change_passwordP3THDPKcS2_Pcj
081ee070 t _Z21replace_routine_tableP3THDP10GRANT_NAMEP8st_tableRK11st_lex_userPKcS9_bmb
081ee500 t _Z19replace_table_tableP3THDP11GRANT_TABLEP8st_tableRK11st_lex_userPKcS9_mmb
081ee9b0 T _Z14check_grant_dbP3THDPKc
081eeab0 t _Z10get_accessP8st_tablejPj
081eeb80 T _Z16free_grant_tableP11GRANT_TABLE
081eeb90 T _ZN11GRANT_TABLED0Ev
081eebc0 T _ZN11GRANT_TABLED1Ev
081eebf0 T _ZN11GRANT_TABLED2Ev
081eec20 t _Z13set_user_saltP8ACL_USERPKcj
081eec80 t _Z8get_sortjz
081eed70 T _ZN10GRANT_NAMEC1EPKcS1_S1_S1_m
081eeec0 T _ZN10GRANT_NAMEC2EPKcS1_S1_S1_m
081ef010 T _ZN11GRANT_TABLEC1EPKcS1_S1_S1_mm
081ef0a0 T _ZN11GRANT_TABLEC2EPKcS1_S1_S1_mm
081ef130 t _Z15init_check_hostv
081ef340 t _Z18replace_user_tableP3THDP8st_tableRK11st_lex_usermbbb
081f0280 t _Z16replace_db_tableP8st_tablePKcRK11st_lex_usermb
081f09b0 t _Z19handle_grant_structjbP11st_lex_userS0_
081f0d10 t _Z20replace_column_tableP11GRANT_TABLEP8st_tableRK11st_lex_userR4ListI10LEX_COLUMNEPKcSB_mb
081f1550 t _Z18handle_grant_tableP13st_table_listjbP11st_lex_userS2_
081f1880 t _Z17handle_grant_dataP13st_table_listbP11st_lex_userS2_
081f1b30 T _ZN10GRANT_NAMEC1EP8st_table
081f1cf0 T _ZN10GRANT_NAMEC2EP8st_table
081f1ea0 T _ZN11GRANT_TABLEC1EP8st_tableS1_
081f22e0 T _ZN11GRANT_TABLEC2EP8st_tableS1_
081f2720 t _Z11append_userP6StringP11st_lex_user
081f2810 T _Z17open_grant_tablesP3THDP13st_table_list
081f2a30 T _Z20sp_revoke_privilegesP3THDPKcS2_b
081f2c60 T _Z16mysql_revoke_allP3THDR4ListI11st_lex_userE
081f3280 T _Z17mysql_rename_userP3THDR4ListI11st_lex_userE
081f3470 T _Z15mysql_drop_userP3THDR4ListI11st_lex_userE
081f3640 T _Z17mysql_create_userP3THDR4ListI11st_lex_userE
081f3840 t _Z19show_routine_grantsP3THDP11st_lex_userP7st_hashPKciPci
081f3c60 t _Z15add_user_optionP6StringmPKc
081f3d40 T _Z17mysql_show_grantsP3THDP11st_lex_user
081f52b0 T _Z10grant_freev
081f5300 T _Z12grant_reloadP3THD
081f5a10 T _Z10grant_initv
081f5a90 T _Z15change_passwordP3THDPKcS2_Pc
081f5f80 T _Z7acl_getPKcS0_S0_S0_c
081f6320 T _Z31fill_effective_table_privilegesP3THDP13st_grant_infoPKcS4_
081f6410 t _Z24test_if_create_new_usersP3THD
081f6500 T _Z11mysql_grantP3THDPKcR4ListI11st_lex_userEmb
081f6880 T _Z19mysql_routine_grantP3THDP13st_table_listbR4ListI11st_lex_userEmbb
081f6de0 T _Z19sp_grant_privilegesP3THDPKcS2_b
081f7010 T _Z17mysql_table_grantP3THDP13st_table_listR4ListI11st_lex_userERS3_I10LEX_COLUMNEmb
081f7930 T _Z23acl_getroot_no_passwordP16Security_contextPcS1_S1_S1_
081f7b70 T _Z11acl_getrootP3THDP14user_resourcesPKcj
081f7db0 T _Z8acl_freeb
081f7ee0 T _Z10acl_reloadP3THD
081f9130 T _Z8acl_initb
081f9230 W _ZN4ListI11st_lex_userEC1Ev
081f9250 W _ZN4ListI11st_lex_userEC2Ev
081f9270 W _ZN4ListI10LEX_COLUMNEC1Ev
081f9290 W _ZN4ListI10LEX_COLUMNEC2Ev
081f92b0 W _ZN4ListI11st_lex_userEC1ERKS1_
081f92d0 W _ZN4ListI11st_lex_userEC2ERKS1_
081f92f0 W _ZN4ListI10LEX_COLUMNEC1ERKS1_
081f9310 W _ZN4ListI10LEX_COLUMNEC2ERKS1_
081f9330 W _ZN4ListI11st_lex_userE6concatEPS1_
081f9360 W _ZN4ListI10LEX_COLUMNE6concatEPS1_
081f9390 W _ZN4ListI11st_lex_userE3popEv
081f93c0 W _ZN4ListI10LEX_COLUMNE3popEv
081f93f0 W _ZN4ListI11st_lex_userE7disjoinEPS1_
081f9430 W _ZN4ListI10LEX_COLUMNE7disjoinEPS1_
081f9470 W _ZN4ListI11st_lex_userE7prepandEPS1_
081f94a0 W _ZN4ListI10LEX_COLUMNE7prepandEPS1_
081f94d0 W _ZN4ListI11st_lex_userE4headEv
081f94e0 W _ZN4ListI10LEX_COLUMNE4headEv
081f94f0 W _ZN4ListI11st_lex_userE8head_refEv
081f9510 W _ZN4ListI10LEX_COLUMNE8head_refEv
081f9530 W _ZN13List_iteratorI11st_lex_userEC1Ev
081f9560 W _ZN13List_iteratorI11st_lex_userEC2Ev
081f9590 W _ZN13List_iteratorI10LEX_COLUMNEC1Ev
081f95c0 W _ZN13List_iteratorI10LEX_COLUMNEC2Ev
081f95f0 W _ZN13List_iteratorI11st_lex_userE4initER4ListIS0_E
081f9610 W _ZN13List_iteratorI10LEX_COLUMNE4initER4ListIS0_E
081f9630 W _ZN13List_iteratorI11st_lex_userEC1ER4ListIS0_E
081f9650 W _ZN13List_iteratorI11st_lex_userEC2ER4ListIS0_E
081f9670 W _ZN13List_iteratorI10LEX_COLUMNEC1ER4ListIS0_E
081f9690 W _ZN13List_iteratorI10LEX_COLUMNEC2ER4ListIS0_E
081f96b0 W _ZN13List_iteratorI11st_lex_userEppEi
081f96d0 W _ZN13List_iteratorI10LEX_COLUMNEppEi
081f96f0 W _ZN13List_iteratorI11st_lex_userE6rewindEv
081f9700 W _ZN13List_iteratorI10LEX_COLUMNE6rewindEv
081f9710 W _ZN13List_iteratorI11st_lex_userE7replaceEPS0_
081f9730 W _ZN13List_iteratorI10LEX_COLUMNE7replaceEPS0_
081f9750 W _ZN13List_iteratorI11st_lex_userE7replaceER4ListIS0_E
081f97d0 W _ZN13List_iteratorI10LEX_COLUMNE7replaceER4ListIS0_E
081f9850 W _ZN13List_iteratorI11st_lex_userE6removeEv
081f98b0 W _ZN13List_iteratorI10LEX_COLUMNE6removeEv
081f9910 W _ZN13List_iteratorI11st_lex_userE3refEv
081f9920 W _ZN13List_iteratorI10LEX_COLUMNE3refEv
081f9930 W _ZN10GRANT_NAMED1Ev
081f9940 W _ZN10GRANT_NAMED0Ev
081f9950 W _ZN10GRANT_NAME2okEv
081f9970 W _ZN11GRANT_TABLE2okEv
081f9990 W _ZN4ListI11st_lex_userE9push_backEPS0_P11st_mem_root
081f99e0 W _ZN4ListI10LEX_COLUMNE9push_backEPS0_P11st_mem_root
081f9a30 W _ZN4ListI10LEX_COLUMNE15delete_elementsEv
081f9ab0 W _ZN4ListI10LEX_COLUMNE9push_backEPS0_
081f9b00 W _ZN4ListI11st_lex_userE9push_backEPS0_
081f9b50 W _ZN4ListI11st_lex_userE10push_frontEPS0_
081f9ba0 W _ZN4ListI10LEX_COLUMNE10push_frontEPS0_
081f9bf0 W _ZN13List_iteratorI11st_lex_userE5afterEPS0_
081f9c60 W _ZN13List_iteratorI10LEX_COLUMNE5afterEPS0_
081f9cd0 W _ZN4ListI11st_lex_userE15delete_elementsEv
081f9d20 t _Z12pack_screensR4ListI12create_fieldEPjS3_b
081f9f20 t _Z11pack_headerPh7db_typeR4ListI12create_fieldEjjjmP7handler
081fa440 T _Z16mysql_create_frmP3THDPcPKcS3_P24st_ha_create_informationR4ListI12create_fieldEjP6st_keyP7handler
081fb500 T _Z16rea_create_tableP3THDPcPKcS3_P24st_ha_create_informationR4ListI12create_fieldEjP6st_key
081fb590 T _Z8writefrmPKcPKvj
081fb640 T _Z7readfrmPKcPPKvPj
081fb740 T _Z12calc_weekdaylb
081fb780 T _Z23convert_period_to_monthm
081fb7e0 T _Z23convert_month_to_periodm
081fb840 T _Z17TIME_to_timestampP3THDPK13st_mysql_timePc
081fb8e0 T _Z17localtime_to_TIMEP13st_mysql_timeP2tm
081fb960 T _Z18calc_time_from_secP13st_mysql_timell
081fb9c0 T _Z22parse_date_time_format25enum_mysql_timestamp_typePKcjP19st_date_time_format
081fbe30 T _Z24get_date_time_format_strP25st_known_date_time_format25enum_mysql_timestamp_type
081fbe70 T _Z28make_truncated_value_warningP3THDPKcj25enum_mysql_timestamp_typeS2_
081fc060 T _Z13make_datetimePK19st_date_time_formatPK13st_mysql_timeP6String
081fc090 T _Z9make_datePK19st_date_time_formatPK13st_mysql_timeP6String
081fc0c0 T _Z9make_timePK19st_date_time_formatPK13st_mysql_timeP6String
081fc0f0 T _Z21date_time_format_copyP3THDP19st_date_time_format
081fc180 T _Z21date_time_format_make25enum_mysql_timestamp_typePKcj
081fc200 T _Z21str_to_time_with_warnPKcjP13st_mysql_time
081fc290 T _Z25str_to_datetime_with_warnPKcjP13st_mysql_timej
081fc340 T _Z19get_date_from_daynrlPjS_S_
081fc450 T _Z9calc_weekP13st_mysql_timejPj
081fc610 t __tcf_0
081fc620 T _ZN10SQL_SELECTC2Ev
081fc670 T _ZN10SQL_SELECTC1Ev
081fc6c0 T _ZN14QUICK_SELECT_IC2Ev
081fc6e0 T _ZN14QUICK_SELECT_IC1Ev
081fc700 T _ZN18QUICK_RANGE_SELECT4initEv
081fc790 T _ZN18QUICK_RANGE_SELECT9range_endEv
081fc7e0 T _ZN24QUICK_INDEX_MERGE_SELECT4initEv
081fc7f0 T _ZN26QUICK_ROR_INTERSECT_SELECT4initEv
081fc810 T _ZN26QUICK_ROR_INTERSECT_SELECT20init_ror_merged_scanEb
081fc940 T _ZN26QUICK_ROR_INTERSECT_SELECT5resetEv
081fc9d0 T _ZN22QUICK_ROR_UNION_SELECT9queue_cmpEPvPcS1_
081fca10 T _ZN11QUICK_RANGEC2Ev
081fca40 T _ZN11QUICK_RANGEC1Ev
081fca70 T _ZN7SEL_ARGC2ERS_
081fcad0 T _ZN7SEL_ARGC1ERS_
081fcb30 T _ZN7SEL_ARGC2EP5FieldPKcS3_
081fcba0 T _ZN7SEL_ARGC1EP5FieldPKcS3_
081fcc10 T _ZN7SEL_ARGC2EP5FieldhPcS2_hhh
081fcc90 T _ZN7SEL_ARGC1EP5FieldhPcS2_hhh
081fcd10 T _ZN7SEL_ARG5firstEv
081fcd50 T _ZN7SEL_ARG4lastEv
081fcd90 t _Z7sel_cmpP5FieldPcS1_hh
081fcea0 T _Z19get_index_for_orderP8st_tableP8st_ordery
081fd080 t _Z24get_index_only_read_timePK13st_qsel_paramyi
081fd130 t _Z17cmp_ror_scan_infoPP16st_ror_scan_infoS1_
081fd1e0 t _Z26cmp_ror_scan_info_coveringPP16st_ror_scan_infoS1_
081fd250 T _Z21sel_trees_can_be_oredP8SEL_TREES0_P13st_qsel_param
081fd310 t _Z7eq_treeP7SEL_ARGS0_
081fd460 T _ZN7SEL_ARG10find_rangeEPS_
081fd4e0 t _Z9get_rangePP7SEL_ARGS1_S0_
081fd590 t _Z11left_rotatePP7SEL_ARGS0_
081fd5e0 t _Z12right_rotatePP7SEL_ARGS0_
081fd630 T _ZN7SEL_ARG9rb_insertEPS_
081fd710 T _ZN7SEL_ARG6insertEPS_
081fd7f0 T _Z15rb_delete_fixupP7SEL_ARGS0_S0_
081fd970 T _ZN7SEL_ARG11tree_deleteEPS_
081fdb10 T _ZN18QUICK_RANGE_SELECT16unique_key_rangeEv
081fdb70 T _ZN22QUICK_ROR_UNION_SELECT18check_if_keys_usedEP4ListI4ItemE
081fdbe0 T _ZN18QUICK_RANGE_SELECT8get_nextEv
081fdd50 T _ZN23QUICK_RANGE_SELECT_GEOM8get_nextEv
081fde20 T _ZN18QUICK_RANGE_SELECT8cmp_nextEP11QUICK_RANGE
081fdf40 T _ZN17QUICK_SELECT_DESC21range_reads_after_keyEP11QUICK_RANGE
081fdf90 T _ZN26QUICK_GROUP_MIN_MAX_SELECT17update_min_resultEv
081fe000 T _ZN26QUICK_GROUP_MIN_MAX_SELECT17update_max_resultEv
081fe070 t _GLOBAL__I__ZN10SEL_IMERGE11or_sel_treeEP13st_qsel_paramP8SEL_TREE
081fe0d0 T _ZN18QUICK_RANGE_SELECT15add_info_stringEP6String
081fe100 T _ZN26QUICK_GROUP_MIN_MAX_SELECT20add_keys_and_lengthsEP6StringS1_
081fe170 T _ZN18QUICK_RANGE_SELECT20add_keys_and_lengthsEP6StringS1_
081fe1e0 T _ZN26QUICK_GROUP_MIN_MAX_SELECT15update_key_statEv
081fe2b0 T _ZN18QUICK_RANGE_SELECT8cmp_prevEP11QUICK_RANGE
081fe310 T _ZN17QUICK_SELECT_DESC8get_nextEv
081fe4e0 T _ZN18QUICK_RANGE_SELECT13row_in_rangesEv
081fe590 T _ZN26QUICK_ROR_INTERSECT_SELECT8get_nextEv
081fe7a0 T _Z17ror_intersect_cpyP18ROR_INTERSECT_INFOPKS_
081fe800 T _ZN26QUICK_GROUP_MIN_MAX_SELECT17next_max_in_rangeEv
081fea30 T _ZN26QUICK_GROUP_MIN_MAX_SELECT8next_maxEv
081fea80 T _ZN26QUICK_GROUP_MIN_MAX_SELECT17next_min_in_rangeEv
081fed30 T _ZN26QUICK_GROUP_MIN_MAX_SELECT5resetEv
081fedf0 T _ZN26QUICK_GROUP_MIN_MAX_SELECT8next_minEv
081fef50 T _ZN22QUICK_ROR_UNION_SELECT15push_quick_backEP14QUICK_SELECT_I
081fefa0 T _ZN26QUICK_ROR_INTERSECT_SELECT15push_quick_backEP18QUICK_RANGE_SELECT
081feff0 T _ZN24QUICK_INDEX_MERGE_SELECT15push_quick_backEP18QUICK_RANGE_SELECT
081ff080 T _ZN7SEL_ARG5cloneEPS_PS0_
081ff220 T _ZN7SEL_ARG10clone_treeEv
081ff270 t _Z6key_orP7SEL_ARGS0_
082004f0 t _Z7key_andP7SEL_ARGS0_j
08200b40 t _Z8tree_andP13st_qsel_paramP8SEL_TREES2_
08200d70 t _Z12and_all_keysP7SEL_ARGS0_j
08200f80 T _ZN26QUICK_GROUP_MIN_MAX_SELECT9add_rangeEP7SEL_ARG
082010b0 T _ZN26QUICK_GROUP_MIN_MAX_SELECTD0Ev
08201170 T _ZN26QUICK_GROUP_MIN_MAX_SELECTD1Ev
08201230 T _ZN26QUICK_GROUP_MIN_MAX_SELECTD2Ev
082012f0 T _ZN26QUICK_ROR_INTERSECT_SELECTD0Ev
082013d0 T _ZN26QUICK_ROR_INTERSECT_SELECTD1Ev
082014a0 T _ZN26QUICK_ROR_INTERSECT_SELECTD2Ev
08201570 T _ZN24QUICK_INDEX_MERGE_SELECTD0Ev
08201670 T _ZN24QUICK_INDEX_MERGE_SELECTD1Ev
08201760 T _ZN24QUICK_INDEX_MERGE_SELECTD2Ev
08201850 T _ZN10SEL_IMERGE11or_sel_treeEP13st_qsel_paramP8SEL_TREE
08201920 T _ZN26QUICK_GROUP_MIN_MAX_SELECT4initEv
08201ba0 T _ZN22QUICK_ROR_UNION_SELECTC1EP3THDP8st_table
08201c40 T _ZN13TRP_ROR_UNION10make_quickEP13st_qsel_parambP11st_mem_root
08201d00 T _ZN22QUICK_ROR_UNION_SELECTC2EP3THDP8st_table
08201da0 T _ZN26QUICK_GROUP_MIN_MAX_SELECTC1EP8st_tableP4JOINbbP16st_key_part_infojjP6st_keyjdyjPcP11st_mem_root
08201ed0 T _ZN26QUICK_GROUP_MIN_MAX_SELECTC2EP8st_tableP4JOINbbP16st_key_part_infojjP6st_keyjdyjPcP11st_mem_root
08202000 T _Z14get_quick_keysP13st_qsel_paramP18QUICK_RANGE_SELECTP11st_key_partP7SEL_ARGPcjS7_j
082026d0 t _Z16check_quick_keysP13st_qsel_paramjP7SEL_ARGPcjS3_j
08202fd0 t _Z18check_quick_selectP13st_qsel_paramjP7SEL_ARG
08203180 t _Z20get_key_scans_paramsP13st_qsel_paramP8SEL_TREEbd
08203530 t _Z7tree_orP13st_qsel_paramP8SEL_TREES2_
08203880 T _ZN10SEL_IMERGE23or_sel_tree_with_checksEP13st_qsel_paramP8SEL_TREE
08203910 T _Z19imerge_list_or_treeP13st_qsel_paramP4ListI10SEL_IMERGEEP8SEL_TREE
082039c0 T _ZN10SEL_IMERGE25or_sel_imerge_with_checksEP13st_qsel_paramPS_
08203a20 T _Z19imerge_list_or_listP13st_qsel_paramP4ListI10SEL_IMERGEES4_
08203aa0 T _ZN26QUICK_ROR_INTERSECT_SELECTC1EP3THDP8st_tablebP11st_mem_root
08203b80 T _ZN26QUICK_ROR_INTERSECT_SELECTC2EP3THDP8st_tablebP11st_mem_root
08203c60 T _ZN24QUICK_INDEX_MERGE_SELECTC1EP3THDP8st_table
08203ce0 T _ZN15TRP_INDEX_MERGE10make_quickEP13st_qsel_parambP11st_mem_root
08203db0 T _ZN24QUICK_INDEX_MERGE_SELECTC2EP3THDP8st_table
08203e30 T _ZN18QUICK_RANGE_SELECTC1EP3THDP8st_tablejbP11st_mem_root
08203f40 T _ZN18QUICK_RANGE_SELECTC2EP3THDP8st_tablejbP11st_mem_root
08204050 T _ZN22QUICK_ROR_UNION_SELECT20add_keys_and_lengthsEP6StringS1_
08204150 T _ZN26QUICK_ROR_INTERSECT_SELECT20add_keys_and_lengthsEP6StringS1_
08204360 T _ZN24QUICK_INDEX_MERGE_SELECT20add_keys_and_lengthsEP6StringS1_
08204560 T _ZN22QUICK_ROR_UNION_SELECT15add_info_stringEP6String
08204660 T _ZN26QUICK_ROR_INTERSECT_SELECT15add_info_stringEP6String
082047e0 T _ZN24QUICK_INDEX_MERGE_SELECT15add_info_stringEP6String
08204940 T _ZN18QUICK_RANGE_SELECT15get_next_prefixEjPc
08204ab0 T _ZN26QUICK_GROUP_MIN_MAX_SELECT11next_prefixEv
08204b90 T _ZN26QUICK_GROUP_MIN_MAX_SELECT8get_nextEv
08204d10 T _ZN18QUICK_RANGE_SELECT5resetEv
08204ec0 T _Z11make_selectP8st_tableyyP4ItembPi
08204fd0 T _ZN22QUICK_ROR_UNION_SELECT8get_nextEv
082050f0 T _ZN24QUICK_INDEX_MERGE_SELECT8get_nextEv
08205180 T _ZN24QUICK_INDEX_MERGE_SELECT19read_keys_and_mergeEv
08205460 T _ZN24QUICK_INDEX_MERGE_SELECT5resetEv
08205470 T _Z24get_quick_select_for_refP3THDP8st_tableP12st_table_refy
08205700 T _ZN26QUICK_ROR_INTERSECT_SELECT18check_if_keys_usedEP4ListI4ItemE
08205770 T _ZN24QUICK_INDEX_MERGE_SELECT18check_if_keys_usedEP4ListI4ItemE
082057e0 T _ZN14QUICK_SELECT_I18check_if_keys_usedEP4ListI4ItemE
08205810 T _Z19get_sweep_read_costPK13st_qsel_paramy
08205960 t _Z18ror_intersect_initPK13st_qsel_param
08205a30 t _Z12get_mm_partsP13st_qsel_paramP4ItemP5FieldN9Item_func8FunctypeES2_11Item_result
082065f0 t _Z14get_ne_mm_treeP13st_qsel_paramP9Item_funcP5FieldP4ItemS6_11Item_result
08206670 t _Z16get_func_mm_treeP13st_qsel_paramP9Item_funcP5FieldP4Item11Item_resultb
082068e0 t _Z11get_mm_treeP13st_qsel_paramP4Item
08206f90 t _Z30check_group_min_max_predicatesP4ItemP10Item_fieldN5Field9imagetypeE
082071f0 t _Z17ror_intersect_addP18ROR_INTERSECT_INFOP16st_ror_scan_infob
08207760 t _Z22get_best_ror_intersectPK13st_qsel_paramP8SEL_TREEdPb
08207cf0 T _ZN10SQL_SELECT17test_quick_selectEP3THD6BitmapILj64EEyyb
0820a0b0 T _ZN22QUICK_ROR_UNION_SELECTD0Ev
0820a190 T _ZN22QUICK_ROR_UNION_SELECTD1Ev
0820a260 T _ZN22QUICK_ROR_UNION_SELECTD2Ev
0820a330 T _ZN22QUICK_ROR_UNION_SELECT5resetEv
0820a490 T _ZN22QUICK_ROR_UNION_SELECT4initEv
0820a530 T _ZN18QUICK_RANGE_SELECT20init_ror_merged_scanEb
0820a720 T _ZN18QUICK_RANGE_SELECTD0Ev
0820a820 T _ZN18QUICK_RANGE_SELECTD1Ev
0820a920 T _ZN18QUICK_RANGE_SELECTD2Ev
0820aa20 T _ZN17QUICK_SELECT_DESCC1EP18QUICK_RANGE_SELECTj
0820aba0 T _ZN17QUICK_SELECT_DESCC2EP18QUICK_RANGE_SELECTj
0820ad20 T _Z16get_quick_selectP13st_qsel_paramjP7SEL_ARGP11st_mem_root
0820aea0 T _ZN17TRP_GROUP_MIN_MAX10make_quickEP13st_qsel_parambP11st_mem_root
0820b050 T _ZN17TRP_ROR_INTERSECT10make_quickEP13st_qsel_parambP11st_mem_root
0820b180 T _ZN10SQL_SELECT7cleanupEv
0820b1e0 T _ZN10SQL_SELECTD1Ev
0820b200 T _ZN10SQL_SELECTD2Ev
0820b220 W _ZN4ListI11QUICK_RANGEE15delete_elementsEv
0820b250 W _ZN4ListI11QUICK_RANGEEC1Ev
0820b270 W _ZN4ListI11QUICK_RANGEEC2Ev
0820b290 W _ZN4ListI11QUICK_RANGEEC1ERKS1_
0820b2b0 W _ZN4ListI11QUICK_RANGEEC2ERKS1_
0820b2d0 W _ZN4ListI11QUICK_RANGEE6concatEPS1_
0820b300 W _ZN4ListI11QUICK_RANGEE3popEv
0820b330 W _ZN4ListI11QUICK_RANGEE7disjoinEPS1_
0820b370 W _ZN4ListI11QUICK_RANGEE7prepandEPS1_
0820b3a0 W _ZN4ListI11QUICK_RANGEE4headEv
0820b3b0 W _ZN4ListI11QUICK_RANGEE8head_refEv
0820b3d0 W _ZN13List_iteratorI11QUICK_RANGEEC1Ev
0820b400 W _ZN13List_iteratorI11QUICK_RANGEEC2Ev
0820b430 W _ZN13List_iteratorI11QUICK_RANGEE4initER4ListIS0_E
0820b450 W _ZN13List_iteratorI11QUICK_RANGEEC1ER4ListIS0_E
0820b470 W _ZN13List_iteratorI11QUICK_RANGEEC2ER4ListIS0_E
0820b490 W _ZN13List_iteratorI11QUICK_RANGEEppEi
0820b4b0 W _ZN13List_iteratorI11QUICK_RANGEE6rewindEv
0820b4c0 W _ZN13List_iteratorI11QUICK_RANGEE7replaceEPS0_
0820b4e0 W _ZN13List_iteratorI11QUICK_RANGEE7replaceER4ListIS0_E
0820b560 W _ZN13List_iteratorI11QUICK_RANGEE6removeEv
0820b5c0 W _ZN13List_iteratorI11QUICK_RANGEE3refEv
0820b5d0 W _ZN14QUICK_SELECT_I9range_endEv
0820b5e0 W _ZN14QUICK_SELECT_I16unique_key_rangeEv
0820b5f0 W _ZN14QUICK_SELECT_I20init_ror_merged_scanEb
0820b600 W _ZN14QUICK_SELECT_I13save_last_posEv
0820b610 W _ZN14QUICK_SELECT_I15add_info_stringEP6String
0820b620 W _ZN18QUICK_RANGE_SELECT8get_typeEv
0820b630 W _ZN24QUICK_INDEX_MERGE_SELECT14reverse_sortedEv
0820b640 W _ZN24QUICK_INDEX_MERGE_SELECT16unique_key_rangeEv
0820b650 W _ZN24QUICK_INDEX_MERGE_SELECT8get_typeEv
0820b660 W _ZN26QUICK_ROR_INTERSECT_SELECT14reverse_sortedEv
0820b670 W _ZN26QUICK_ROR_INTERSECT_SELECT16unique_key_rangeEv
0820b680 W _ZN26QUICK_ROR_INTERSECT_SELECT8get_typeEv
0820b690 W _ZN22QUICK_ROR_UNION_SELECT14reverse_sortedEv
0820b6a0 W _ZN22QUICK_ROR_UNION_SELECT16unique_key_rangeEv
0820b6b0 W _ZN22QUICK_ROR_UNION_SELECT8get_typeEv
0820b6c0 W _ZN26QUICK_GROUP_MIN_MAX_SELECT14reverse_sortedEv
0820b6d0 W _ZN26QUICK_GROUP_MIN_MAX_SELECT16unique_key_rangeEv
0820b6e0 W _ZN26QUICK_GROUP_MIN_MAX_SELECT8get_typeEv
0820b6f0 W _ZN17QUICK_SELECT_DESC14reverse_sortedEv
0820b700 W _ZN17QUICK_SELECT_DESC8get_typeEv
0820b710 W _ZN17QUICK_SELECT_DESC5resetEv
0820b730 W _ZN7SEL_ARG19increment_use_countEl
0820b790 W _ZN7SEL_ARG9free_treeEv
0820b7e0 W _ZN14QUICK_SELECT_ID0Ev
0820b800 W _ZN14QUICK_SELECT_ID1Ev
0820b810 W _ZN4ListI11QUICK_RANGEE9push_backEPS0_
0820b860 W _ZN13List_iteratorI11QUICK_RANGEE5afterEPS0_
0820b8d0 W _ZN4ListI11QUICK_RANGEE10push_frontEPS0_
0820b920 W _ZN4ListI11QUICK_RANGEE9push_backEPS0_P11st_mem_root
0820b970 W _ZN7SEL_ARG13store_min_keyEP11st_key_partPPcPj
0820ba60 W _ZN7SEL_ARG13store_max_keyEP11st_key_partPPcPj
0820bbd0 W _ZN17QUICK_SELECT_DESCD0Ev
0820bc00 W _ZN17QUICK_SELECT_DESCD1Ev
0820bc20 W _ZN23QUICK_RANGE_SELECT_GEOMD0Ev
0820bc50 W _ZN23QUICK_RANGE_SELECT_GEOMD1Ev
0820bc70 W _ZN9TRP_RANGE10make_quickEP13st_qsel_parambP11st_mem_root
0820bcc0 T _Z11simple_predP9Item_funcPP4ItemPb
0820be30 t _Z15maxmin_in_rangebP5FieldP4Item
0820bf20 t _Z13matching_condbP12st_table_refP6st_keyP16st_key_part_infoP4ItemPmPjS8_
0820c390 t _Z19find_key_for_maxminbP12st_table_refP5FieldP4ItemPjS5_
0820c590 t _Z15reckey_in_rangebP12st_table_refP5FieldP4Itemjj
0820c630 T _Z13opt_sum_queryP13st_table_listR4ListI4ItemEPS2_
0820cff0 t _Z15rr_handle_errorP14st_read_recordi
0820d050 t _Z14rr_index_firstP14st_read_record
0820d090 t _Z8rr_indexP14st_read_record
0820d0d0 t _Z16rr_from_pointersP14st_read_record
0820d140 t _Z21rr_unpack_from_bufferP14st_read_record
0820d180 t _Z6rr_cmpPhS_
0820d250 T _Z15end_read_recordP14st_read_record
0820d300 t _Z8rr_quickP14st_read_record
0820d370 T _Z20init_read_record_idxP14st_read_recordP3THDP8st_tablebj
0820d420 T _Z16init_read_recordP14st_read_recordP3THDP8st_tableP10SQL_SELECTib
0820d980 t _Z13rr_sequentialP14st_read_record
0820da20 t _Z16rr_from_tempfileP14st_read_record
0820dad0 t _Z23rr_unpack_from_tempfileP14st_read_record
0820db50 t _Z13rr_from_cacheP14st_read_record
0820ddb0 T _Z16reuse_freed_buffP8st_queueP10st_buffpekj
0820de40 t _Z19unpack_addon_fieldsP19st_sort_addon_fieldPc
0820ded0 T _Z22change_double_for_sortdPc
0820df90 T _Z14read_to_bufferP11st_io_cacheP10st_buffpekj
0820e050 T _Z13merge_buffersP13st_sort_paramP11st_io_cacheS2_PhP10st_buffpekS5_S5_i
0820e5e0 T _Z15merge_many_buffP13st_sort_paramPhP10st_buffpekPjP11st_io_cache
0820e880 T _Z21filesort_free_buffersP8st_table
0820e8f0 t _Z10write_keysP13st_sort_paramPPhjP11st_io_cacheS4_
0820ea90 T _Z8filesortP3THDP8st_tableP13st_sort_fieldjP10SQL_SELECTyPy
08210360 T _Z21ha_get_storage_engine7db_type
082103a0 T _Z28ha_check_storage_engine_flag7db_typej
082103f0 T _Z28ha_storage_engine_is_enabled7db_type
08210440 T _Z19ha_close_connectionP3THD
082104a0 T _Z28ha_commit_or_rollback_by_xidP5xid_tb
08210510 T _ZN7handler21update_auto_incrementEv
08210870 T _ZN7handler22restore_auto_incrementEv
082108b0 T _ZN7handler17get_error_messageEiP6String
082108c0 T _ZN7handler11get_dup_keyEi
08210940 T _Z13ha_find_filesP3THDPKcS2_S2_bP4ListIcE
08210950 T _Z25ha_table_exists_in_engineP3THDPKcS2_
08210960 T _ZN7handler22read_multi_range_firstEPP18st_key_multi_rangeS1_jbP17st_handler_buffer
08210a20 T _ZN7handler21read_multi_range_nextEPP18st_key_multi_range
08210b00 T _ZN7handler14index_read_idxEPcjPKcj16ha_rkey_function
08210b70 T _Z31ha_repl_report_replication_stopP3THD
08210b80 T _Z26ha_repl_report_sent_binlogP3THDPcy
08210b90 T _ZN15st_ha_check_opt4initEv
08210bd0 T _ZN7handler14read_first_rowEPcj
08210cc0 T _ZN7handler11compare_keyEP12st_key_range
08210d10 T _ZN7handler15read_range_nextEv
08210d90 T _ZN7handler16read_range_firstEPK12st_key_rangeS2_bb
08210ed0 T _Z11ha_discoverP3THDPKcS2_PPKvPj
08210f00 T _Z19ha_change_key_cacheP12st_key_cacheS0_
08210f20 T _Z16ha_end_key_cacheP12st_key_cache
08210f40 T _Z25ha_change_key_cache_paramP12st_key_cache
08210fb0 T _Z19ha_resize_key_cacheP12st_key_cache
08211040 T _Z17ha_init_key_cachePKcP12st_key_cache
082110d0 T _Z27ha_create_table_from_engineP3THDPKcS2_
08211290 T _Z15ha_create_tablePKcP24st_ha_create_informationb
082113c0 T _Z20ha_release_savepointP3THDP12st_savepoint
08211470 T _Z12ha_savepointP3THDP12st_savepoint
08211570 T _Z24ha_rollback_to_savepointP3THDP12st_savepoint
082116a0 T _Z12ha_checktypeP3THD7db_typebb
08211740 T _ZN7handler15index_next_sameEPcPKcj
082117c0 T _Z21ha_enable_transactionP3THDb
08211800 T _ZN7handler12rename_tableEPKcS1_
08211870 T _ZN7handler12delete_tableEPKc
08211920 T _Z18ha_resolve_by_namePKcj
08211a50 T _ZN7handler11print_errorEii
08211f10 T _ZN7handler18get_auto_incrementEv
08212070 T _ZN7handler7ha_openEPKcii
082121a0 T _Z13ha_flush_logsv
082121e0 T _Z28ha_start_consistent_snapshotP3THD
08212230 T _Z20ha_update_statisticsv
08212250 T _Z28ha_release_temporary_latchesP3THD
08212280 T _Z16mysql_xa_recoverP3THD
082125d0 T _Z10ha_recoverP7st_hash
08212860 T _Z17trans_register_haP3THDbP10handlerton
08212960 T _Z17ha_rollback_transP3THDb
08212b40 T _Z19ha_commit_one_phaseP3THDb
08212c80 T _Z15ha_commit_transP3THDb
08212fb0 T _Z25ha_autocommit_or_rollbackP3THDi
08213020 T _Z10ha_prepareP3THD
08213110 T _Z16ha_drop_databasePc
08213130 T _Z8ha_panic17ha_panic_function
082131c0 T _Z7ha_initv
082133f0 T _Z15get_new_handlerP8st_tableP11st_mem_root7db_type
08213520 T _Z13ha_known_extsv
08213750 T _Z15ha_delete_tableP3THD7db_typePKcS3_b
082139b0 W _ZN7handler10index_initEj
082139d0 W _ZN7handler9index_endEv
082139f0 W _ZN7handler7rnd_endEv
08213a00 W _ZN7handlerD1Ev
08213a10 W _ZN7handlerD0Ev
08213a20 W _ZN7handler9scan_timeEv
08213a70 W _ZN7handler9read_timeEjjy
08213ab0 W _ZN7handler24keys_to_use_for_scanningEv
08213ac0 W _ZN7handler16has_transactionsEv
08213ad0 W _ZN7handler20extra_rec_buf_lengthEv
08213ae0 W _ZN7handler25estimate_rows_upper_boundEv
08213b00 W _ZNK7handler12get_row_typeEv
08213b10 W _ZN7handler10index_typeEj
08213b20 W _ZN7handler9write_rowEPc
08213b30 W _ZN7handler10update_rowEPKcPc
08213b40 W _ZN7handler10delete_rowEPKc
08213b50 W _ZN7handler10index_readEPcPKcj16ha_rkey_function
08213b60 W _ZN7handler10index_nextEPc
08213b70 W _ZN7handler10index_prevEPc
08213b80 W _ZN7handler11index_firstEPc
08213b90 W _ZN7handler10index_lastEPc
08213ba0 W _ZN7handler7ft_initEv
08213bb0 W _ZN7handler11ft_init_extEjjP6String
08213bc0 W _ZN7handler7ft_readEPc
08213bd0 W _ZN7handler16restart_rnd_nextEPcS0_
08213be0 W _ZN7handler8rnd_sameEPcj
08213bf0 W _ZN7handler16records_in_rangeEjP12st_key_rangeS1_
08213c00 W _ZN7handler5extraE17ha_extra_function
08213c10 W _ZN7handler9extra_optE17ha_extra_functionm
08213c30 W _ZN7handler5resetEv
08213c50 W _ZN7handler13external_lockEP3THDi
08213c60 W _ZN7handler10unlock_rowEv
08213c70 W _ZN7handler10start_stmtEP3THD13thr_lock_type
08213c80 W _ZN7handler20reset_auto_incrementEy
08213c90 W _ZN7handler18update_create_infoEP24st_ha_create_information
08213ca0 W _ZN7handler5checkEP3THDP15st_ha_check_opt
08213cb0 W _ZN7handler6backupEP3THDP15st_ha_check_opt
08213cc0 W _ZN7handler7restoreEP3THDP15st_ha_check_opt
08213cd0 W _ZN7handler6repairEP3THDP15st_ha_check_opt
08213ce0 W _ZN7handler8optimizeEP3THDP15st_ha_check_opt
08213cf0 W _ZN7handler7analyzeEP3THDP15st_ha_check_opt
08213d00 W _ZN7handler18assign_to_keycacheEP3THDP15st_ha_check_opt
08213d10 W _ZN7handler12preload_keysEP3THDP15st_ha_check_opt
08213d20 W _ZN7handler16check_and_repairEP3THD
08213d30 W _ZN7handler4dumpEP3THDi
08213d40 W _ZN7handler15disable_indexesEj
08213d50 W _ZN7handler14enable_indexesEj
08213d60 W _ZN7handler20indexes_are_disabledEv
08213d70 W _ZN7handler17start_bulk_insertEy
08213d80 W _ZN7handler15end_bulk_insertEv
08213d90 W _ZN7handler28discard_or_import_tablespaceEc
08213da0 W _ZN7handler13net_read_dumpEP6st_net
08213db0 W _ZN7handler20update_table_commentEPKc
08213dc0 W _ZN7handler18append_create_infoEP6String
08213dd0 W _ZN7handler27get_foreign_key_create_infoEv
08213de0 W _ZN7handler18can_switch_enginesEv
08213df0 W _ZN7handler20get_foreign_key_listEP3THDP4ListI19st_foreign_key_infoE
08213e00 W _ZN7handler25referenced_by_foreign_keyEv
08213e10 W _ZN7handler29init_table_handle_for_HANDLEREv
08213e20 W _ZN7handler28free_foreign_key_create_infoEPc
08213e30 W _ZNK7handler15index_ddl_flagsEP6st_key
08213e40 W _ZN7handler9add_indexEP8st_tableP6st_keyj
08213e50 W _ZN7handler10drop_indexEP8st_tablePjj
08213e60 W _ZNK7handler27max_supported_record_lengthEv
08213e70 W _ZNK7handler18max_supported_keysEv
08213e80 W _ZNK7handler23max_supported_key_partsEv
08213e90 W _ZNK7handler24max_supported_key_lengthEv
08213ea0 W _ZNK7handler29max_supported_key_part_lengthEv
08213eb0 W _ZNK7handler17min_record_lengthEj
08213ec0 W _ZNK7handler14low_byte_firstEv
08213ed0 W _ZNK7handler8checksumEv
08213ee0 W _ZNK7handler10is_crashedEv
08213ef0 W _ZNK7handler11auto_repairEv
08213f00 W _ZNK7handler10lock_countEv
08213f10 W _ZN7handler16table_cache_typeEv
08213f20 W _ZN7handler26register_query_cache_tableEP3THDPcjPPFcS1_S2_jPyES3_
08213f40 W _ZN7handler24primary_key_is_clusteredEv
08213f50 W _ZN7handler9cond_pushEPK4Item
08213f60 W _ZN7handler8cond_popEv
08213f70 W _ZN7handler7cmp_refEPKcS1_
08213fb0 W _ZN7handler15delete_all_rowsEv
08213fd0 W _ZN7handler15index_read_lastEPcPKcj
08213ff0 T _ZN7ha_heapC2EP8st_table
08214100 T _ZN7ha_heapC1EP8st_table
08214210 T _ZNK7ha_heap7bas_extEv
08214220 T _ZN7ha_heap21set_keys_for_scanningEv
082142c0 T _ZN7ha_heap16update_key_statsEv
082143c0 T _ZN7ha_heap13external_lockEP3THDi
082143d0 T _ZN7ha_heap10store_lockEP3THDPP16st_thr_lock_data13thr_lock_type
08214420 T _ZN7ha_heap18update_create_infoEP24st_ha_create_information
08214480 T _ZN7ha_heap6createEPKcP8st_tableP24st_ha_create_information
08214950 T _ZN7ha_heap16records_in_rangeEjP12st_key_rangeS1_
082149f0 T _ZN7ha_heap12rename_tableEPKcS1_
08214a10 T _ZN7ha_heap12delete_tableEPKc
08214a70 T _ZN7ha_heap20indexes_are_disabledEv
08214a90 T _ZN7ha_heap14enable_indexesEj
08214ae0 T _ZN7ha_heap15disable_indexesEj
08214b30 T _ZN7ha_heap15delete_all_rowsEv
08214b70 T _ZN7ha_heap5extraE17ha_extra_function
08214b90 T _ZN7ha_heap4infoEj
08214c50 T _ZN7ha_heap18get_auto_incrementEv
08214c80 T _ZN7ha_heap8positionEPKc
08214cb0 T _ZN7ha_heap7rnd_posEPcS0_
08214d00 T _ZN7ha_heap8rnd_nextEPc
08214d50 T _ZN7ha_heap8rnd_initEb
08214d70 T _ZN7ha_heap10index_lastEPc
08214dc0 T _ZN7ha_heap11index_firstEPc
08214e10 T _ZN7ha_heap10index_prevEPc
08214e60 T _ZN7ha_heap10index_nextEPc
08214eb0 T _ZN7ha_heap14index_read_idxEPcjPKcj16ha_rkey_function
08214f10 T _ZN7ha_heap15index_read_lastEPcPKcj
08214f80 T _ZN7ha_heap10index_readEPcPKcj16ha_rkey_function
08214ff0 T _ZN7ha_heap10delete_rowEPKc
08215070 T _ZN7ha_heap10update_rowEPKcPc
08215100 T _ZN7ha_heap9write_rowEPc
082151a0 T _ZN7ha_heap5closeEv
082151c0 T _ZN7ha_heap4openEPKcij
082152b0 W _ZN7ha_heapD1Ev
082152c0 W _ZN7ha_heapD0Ev
082152d0 W _ZNK7ha_heap10table_typeEv
08215300 W _ZN7ha_heap10index_typeEj
08215330 W _ZNK7ha_heap12get_row_typeEv
08215340 W _ZNK7ha_heap11table_flagsEv
08215350 W _ZNK7ha_heap11index_flagsEjjb
08215380 W _ZN7ha_heap24keys_to_use_for_scanningEv
08215390 W _ZNK7ha_heap18max_supported_keysEv
082153a0 W _ZNK7ha_heap29max_supported_key_part_lengthEv
082153b0 W _ZN7ha_heap9scan_timeEv
08215400 W _ZN7ha_heap9read_timeEjjy
08215450 W _ZN7ha_heap7cmp_refEPKcS1_
08215470 T killed_ptr
08215490 T _ZN9ha_myisamC2EP8st_table
082155a0 T _ZN9ha_myisamC1EP8st_table
082156b0 T _ZNK9ha_myisam7bas_extEv
082156c0 T _ZN9ha_myisam10index_typeEj
08215720 T _ZNK9ha_myisam10is_crashedEv
08215760 T _ZN9ha_myisam16restart_rnd_nextEPcS0_
08215790 T _ZN9ha_myisam10store_lockEP3THDPP16st_thr_lock_data13thr_lock_type
082157e0 T _ZN9ha_myisam7ft_readEPc
08215830 T _ZNK9ha_myisam8checksumEv
08215850 T _ZN9ha_myisam16records_in_rangeEjP12st_key_rangeS1_
08215870 T _ZN9ha_myisam15index_read_lastEPcPKcj
082158e0 T _ZN9ha_myisam14index_read_idxEPcjPKcj16ha_rkey_function
08215940 T _ZN9ha_myisam10index_readEPcPKcj16ha_rkey_function
082159b0 T _ZN9ha_myisam12rename_tableEPKcS1_
082159d0 T _ZN9ha_myisam6createEPKcP8st_tableP24st_ha_create_information
082163d0 T _ZN9ha_myisam13external_lockEP3THDi
08216410 T _ZN9ha_myisam12delete_tableEPKc
08216420 T _ZN9ha_myisam15delete_all_rowsEv
08216440 T _ZN9ha_myisam9extra_optE17ha_extra_functionm
082164a0 T _ZN9ha_myisam5extraE17ha_extra_function
08216500 T _ZN9ha_myisam4infoEj
08216800 T _ZN9ha_myisam18get_auto_incrementEv
08216980 T _ZN9ha_myisam18update_create_infoEP24st_ha_create_information
08216a00 T _ZN9ha_myisam8positionEPKc
08216a40 T _ZN9ha_myisam7rnd_posEPcS0_
08216ab0 T _ZN9ha_myisam8rnd_nextEPc
08216b00 T _ZN9ha_myisam8rnd_initEb
08216b40 T _ZN9ha_myisam15index_next_sameEPcPKcj
08216b90 T _ZN9ha_myisam10index_lastEPc
08216be0 T _ZN9ha_myisam11index_firstEPc
08216c30 T _ZN9ha_myisam10index_prevEPc
08216c80 T _ZN9ha_myisam10index_nextEPc
08216cd0 T _ZN9ha_myisam10delete_rowEPKc
08216d00 T _ZN9ha_myisam10update_rowEPKcPc
08216d80 T _ZN9ha_myisam16check_and_repairEP3THD
08216f30 T _ZN9ha_myisam15end_bulk_insertEv
08216fa0 T _ZN9ha_myisam17start_bulk_insertEy
08217170 T _ZN9ha_myisam20indexes_are_disabledEv
08217190 T _ZN9ha_myisam15disable_indexesEj
08217200 T _ZN9ha_myisam7analyzeEP3THDP15st_ha_check_opt
08217340 T _ZN9ha_myisam5checkEP3THDP15st_ha_check_opt
082176f0 T _ZN9ha_myisam9write_rowEPc
08217760 T _ZN9ha_myisam5closeEv
08217780 T _ZN9ha_myisam4openEPKcij
08217880 T _ZN9ha_myisam4dumpEP3THDi
08217a10 T _ZN9ha_myisam13net_read_dumpEP6st_net
08217ab0 t _Z18mi_check_print_msgP17st_mi_check_paramPKcS2_Pc
08217c60 T mi_check_print_warning
08217c90 T mi_check_print_info
08217cb0 T mi_check_print_error
08217ce0 T _ZN9ha_myisam12preload_keysEP3THDP15st_ha_check_opt
08217e90 T _ZN9ha_myisam18assign_to_keycacheEP3THDP15st_ha_check_opt
08217fc0 T _ZN9ha_myisam6repairEP3THDR17st_mi_check_paramb
082186e0 T _ZN9ha_myisam14enable_indexesEj
082188b0 T _ZN9ha_myisam8optimizeEP3THDP15st_ha_check_opt
08218990 T _ZN9ha_myisam6repairEP3THDP15st_ha_check_opt
08218ba0 T _ZN9ha_myisam6backupEP3THDP15st_ha_check_opt
08218d70 T _ZN9ha_myisam7restoreEP3THDP15st_ha_check_opt
08218ec0 W _ZN9ha_myisamD1Ev
08218ed0 W _ZN9ha_myisamD0Ev
08218ee0 W _ZNK9ha_myisam10table_typeEv
08218ef0 W _ZNK9ha_myisam11table_flagsEv
08218f00 W _ZNK9ha_myisam11index_flagsEjjb
08218f30 W _ZNK9ha_myisam18max_supported_keysEv
08218f40 W _ZNK9ha_myisam24max_supported_key_lengthEv
08218f50 W _ZNK9ha_myisam29max_supported_key_part_lengthEv
08218f60 W _ZN9ha_myisam7ft_initEv
08218f90 W _ZNK9ha_myisam11auto_repairEv
08218fb0 W _ZN9ha_myisam11ft_init_extEjjP6String
08219000 T _ZN12ha_myisammrgC2EP8st_table
08219100 T _ZN12ha_myisammrgC1EP8st_table
08219200 T _ZNK12ha_myisammrg7bas_extEv
08219210 T _ZN12ha_myisammrg10index_typeEj
08219270 T _ZNK12ha_myisammrg10lock_countEv
08219290 T _ZN12ha_myisammrg10store_lockEP3THDPP16st_thr_lock_data13thr_lock_type
082192e0 t _Z15split_file_namePKcP13st_lex_stringS2_
08219390 T _ZN12ha_myisammrg18append_create_infoEP6String
082195d0 T _ZN12ha_myisammrg6createEPKcP8st_tableP24st_ha_create_information
082197e0 T _ZN12ha_myisammrg18update_create_infoEP24st_ha_create_information
08219930 T _ZN12ha_myisammrg13external_lockEP3THDi
08219950 T _ZN12ha_myisammrg9extra_optE17ha_extra_functionm
082199b0 T _ZN12ha_myisammrg5extraE17ha_extra_function
08219a00 T _ZN12ha_myisammrg8rnd_initEb
08219a30 T _ZN12ha_myisammrg4infoEj
08219b90 T _ZN12ha_myisammrg16records_in_rangeEjP12st_key_rangeS1_
08219bb0 T _ZN12ha_myisammrg8positionEPKc
08219bf0 T _ZN12ha_myisammrg8rnd_nextEPc
08219c50 T _ZN12ha_myisammrg7rnd_posEPcS0_
08219cc0 T _ZN12ha_myisammrg15index_next_sameEPcPKcj
08219d10 T _ZN12ha_myisammrg10index_lastEPc
08219d60 T _ZN12ha_myisammrg11index_firstEPc
08219db0 T _ZN12ha_myisammrg10index_prevEPc
08219e00 T _ZN12ha_myisammrg10index_nextEPc
08219e50 T _ZN12ha_myisammrg15index_read_lastEPcPKcj
08219ec0 T _ZN12ha_myisammrg14index_read_idxEPcjPKcj16ha_rkey_function
08219f20 T _ZN12ha_myisammrg10index_readEPcPKcj16ha_rkey_function
08219f90 T _ZN12ha_myisammrg10delete_rowEPKc
08219fc0 T _ZN12ha_myisammrg10update_rowEPKcPc
0821a040 T _ZN12ha_myisammrg9write_rowEPc
0821a0b0 T _ZN12ha_myisammrg5closeEv
0821a0d0 T _ZN12ha_myisammrg4openEPKcij
0821a220 W _ZN12ha_myisammrgD1Ev
0821a230 W _ZN12ha_myisammrgD0Ev
0821a240 W _ZNK12ha_myisammrg10table_typeEv
0821a250 W _ZNK12ha_myisammrg11table_flagsEv
0821a260 W _ZNK12ha_myisammrg11index_flagsEjjb
0821a290 W _ZNK12ha_myisammrg18max_supported_keysEv
0821a2a0 W _ZNK12ha_myisammrg24max_supported_key_lengthEv
0821a2b0 W _ZNK12ha_myisammrg29max_supported_key_part_lengthEv
0821a2c0 W _ZN12ha_myisammrg9scan_timeEv
0821a330 T innobase_strcasecmp
0821a360 T innobase_casedn_str
0821a380 T _ZN11ha_innobaseC2EP8st_table
0821a4a0 T _ZN11ha_innobaseC1EP8st_table
0821a5c0 T trx_is_interrupted
0821a600 T _ZNK11ha_innobase12get_row_typeEv
0821a630 T _ZNK11ha_innobase7bas_extEv
0821a640 T _ZNK11ha_innobase29max_supported_key_part_lengthEv
0821a650 T _ZN11ha_innobase9index_endEv
0821a670 T _ZN11ha_innobase15index_read_lastEPcPKcj
0821a6b0 T _ZN11ha_innobase7rnd_endEv
0821a6d0 T _ZN11ha_innobase9scan_timeEv
0821a700 T _ZN11ha_innobase9read_timeEjjy
0821a800 T _ZN11ha_innobase7analyzeEP3THDP15st_ha_check_opt
0821a830 T _ZN11ha_innobase8optimizeEP3THDP15st_ha_check_opt
0821a840 t _Z16innobase_get_keyP17st_innobase_sharePjc
0821a860 T _ZN11ha_innobase10store_lockEP3THDPP16st_thr_lock_data13thr_lock_type
0821aa30 T _ZN11ha_innobase22get_mysql_bin_log_nameEv
0821aa40 T _ZN11ha_innobase21get_mysql_bin_log_posEv
0821aa50 t _Z16check_trx_existsP3THD
0821ab60 T innobase_get_cset_width
0821ac00 T _Z34innobase_release_temporary_latchesP3THD
0821ac60 t _Z27convert_error_code_to_mysqliP3THD
0821ad50 t _Z17innobase_rollbackP3THDb
0821ae20 T _Z21innobase_rollback_trxP10trx_struct
0821aec0 T innobase_mysql_prepare_print_arbitrary_thd
0821aee0 T innobase_mysql_end_print_arbitrary_thd
0821af00 t _Z26innobase_release_savepointP3THDPv
0821af60 t _Z30innobase_rollback_to_savepointP3THDPv
0821aff0 t _Z18innobase_savepointP3THDPv
0821b090 t _Z25innobase_close_connectionP3THD
0821b190 T _Z24innobase_set_cursor_viewPv
0821b1c0 T _ZN11ha_innobase10index_lastEPc
0821b220 T _ZN11ha_innobase11index_firstEPc
0821b280 T innobase_current_thd
0821b2a0 T innobase_query_is_update
0821b300 T _Z26innobase_close_cursor_viewPv
0821b330 T _Z27innobase_create_cursor_viewv
0821b360 T _Z24innobase_rollback_by_xidP5xid_t
0821b390 T _Z19innobase_xa_recoverP5xid_tj
0821b3c0 T _Z19innobase_xa_prepareP3THDb
0821b500 T innobase_get_at_most_n_mbchars
0821b580 T _ZN11ha_innobase7cmp_refEPKcS1_
0821b690 T _ZN11ha_innobase17get_error_messageEiP6String
0821b720 T _ZN11ha_innobase20reset_auto_incrementEy
0821b790 T _ZN11ha_innobase28free_foreign_key_create_infoEPc
0821b7b0 T _Z24innodb_mutex_show_statusP3THD
0821be50 T _Z18innodb_show_statusP3THD
0821c220 T _Z20innodb_export_statusv
0821c230 T _ZN11ha_innobase24transactional_table_lockEP3THDi
0821c430 T _ZN11ha_innobase10start_stmtEP3THD13thr_lock_type
0821c640 T _ZN11ha_innobase5extraE17ha_extra_function
0821c6e0 T _ZN11ha_innobase25referenced_by_foreign_keyEv
0821c710 T _ZN11ha_innobase18can_switch_enginesEv
0821c770 T _ZN11ha_innobase20get_foreign_key_listEP3THDP4ListI19st_foreign_key_infoE
0821cb70 T _ZN11ha_innobase27get_foreign_key_create_infoEv
0821cd00 T _ZN11ha_innobase20update_table_commentEPKc
0821ced0 t _Z14build_templateP19row_prebuilt_structP3THDP8st_tablem
0821d2b0 T _ZN11ha_innobase5checkEP3THDP15st_ha_check_opt
0821d410 T _ZN11ha_innobase25estimate_rows_upper_boundEv
0821d4d0 T _ZN11ha_innobase16records_in_rangeEjP12st_key_rangeS1_
0821d770 T innobase_mysql_cmp
0821d8a0 T _Z19innobase_flush_logsv
0821d8b0 t _Z20normalize_table_namePcPKc
0821d980 T _ZN11ha_innobase15delete_all_rowsEv
0821d9f0 T _ZN11ha_innobase28discard_or_import_tablespaceEc
0821db50 t _Z12create_indexP10trx_structP8st_tablePKcj
0821de10 T _ZN11ha_innobase13general_fetchEPcjj
0821df00 T _ZN11ha_innobase8rnd_nextEPc
0821df80 T _ZN11ha_innobase10index_prevEPc
0821dfb0 T _ZN11ha_innobase15index_next_sameEPcPKcj
0821e000 T _ZN11ha_innobase10index_nextEPc
0821e040 T _ZN11ha_innobase19change_active_indexEj
0821e190 T _ZN11ha_innobase7rnd_posEPcS0_
0821e250 T _ZN11ha_innobase8rnd_initEb
0821e2c0 T _ZN11ha_innobase14index_read_idxEPcjPKcj16ha_rkey_function
0821e320 T _ZN11ha_innobase10index_initEj
0821e330 T _ZN11ha_innobase10index_readEPcPKcj16ha_rkey_function
0821e600 T _ZN11ha_innobase10unlock_rowEv
0821e710 T _ZN11ha_innobase10delete_rowEPKc
0821e840 T _ZN11ha_innobase10update_rowEPKcPc
0821ed40 T _ZN11ha_innobase21store_key_val_for_rowEjPcjPKc
0821f290 T _ZN11ha_innobase8positionEPKc
0821f330 t _Z10free_shareP17st_innobase_share
0821f3a0 T _ZN11ha_innobase5closeEv
0821f3e0 T _ZN11ha_innobase4openEPKcij
0821f7b0 T _Z32innobase_repl_report_sent_binlogP3THDPcy
0821f980 T _Z24innobase_commit_completeP3THD
0821fbe0 T _Z39innobase_start_trx_and_assign_read_viewP3THD
0821fcf0 T _ZN11ha_innobase29init_table_handle_for_HANDLEREv
0821fe70 T _Z19innobase_commit_lowP10trx_struct
0821fef0 t _Z15innobase_commitP3THDb
082200c0 T _ZN11ha_innobase13external_lockEP3THDi
08220470 T _Z40innobase_report_binlog_offset_and_commitP3THDPvPcy
08220620 T _Z22innobase_commit_by_xidP5xid_t
08220650 T _ZN11ha_innobase31innobase_read_and_init_auto_incEPx
082209b0 T _ZN11ha_innobase18get_auto_incrementEv
08220a10 T _ZN11ha_innobase4infoEj
08220fd0 T _ZN11ha_innobase9write_rowEPc
08221530 T _ZN11ha_innobase12rename_tableEPKcS1_
082216a0 T _Z22innobase_drop_databasePc
082217e0 T _ZN11ha_innobase12delete_tableEPKc
08221940 T _ZN11ha_innobase6createEPKcP8st_tableP24st_ha_create_information
08222000 T _Z12innobase_endv
082220a0 T _Z13innobase_initv
082225e0 T mysql_get_identifier_quote_char
08222610 T innobase_invalidate_query_cache
08222650 T _Z41innobase_query_caching_of_table_permittedP3THDPcjPy
08222850 T innobase_mysql_tmpfile
08222920 T innobase_mysql_print_thd
08222b40 W _ZN11ha_innobaseD1Ev
08222b50 W _ZN11ha_innobaseD0Ev
08222b60 W _ZNK11ha_innobase10table_typeEv
08222b70 W _ZN11ha_innobase10index_typeEj
08222b80 W _ZNK11ha_innobase11table_flagsEv
08222b90 W _ZNK11ha_innobase11index_flagsEjjb
08222ba0 W _ZNK11ha_innobase18max_supported_keysEv
08222bb0 W _ZNK11ha_innobase24max_supported_key_lengthEv
08222bc0 W _ZN11ha_innobase24keys_to_use_for_scanningEv
08222bd0 W _ZN11ha_innobase16has_transactionsEv
08222be0 W _ZN11ha_innobase16table_cache_typeEv
08222bf0 W _ZN11ha_innobase24primary_key_is_clusteredEv
08222c00 W _Z33get_innobase_type_from_mysql_typePmP5Field
08222dd0 W _ZN11ha_innobase26register_query_cache_tableEP3THDPcjPPFcS1_S2_jPyES3_
08222e20 t _Z17dboptions_get_keyP11my_dbopt_stPjc
08222e40 t _Z10free_dboptPv
08222e50 t _Z16rm_dir_w_symlinkPKcc
08222f50 t _Z20mysql_rm_known_filesP3THDP9st_my_dirPKcS4_jPP13st_table_list
082236f0 t _Z9put_dboptPKcP24st_ha_create_information
082237e0 t _Z12write_db_optP3THDPKcP24st_ha_create_information
082238e0 T _Z14mysql_alter_dbP3THDPKcP24st_ha_create_information
08223b00 T _Z15mysql_create_dbP3THDPcP24st_ha_create_informationb
08223ed0 T _Z11load_db_optP3THDPKcP24st_ha_create_information
082241c0 T _Z15mysql_change_dbP3THDPKcb
08224570 T _Z9del_dboptPKc
082245d0 T _Z11mysql_rm_dbP3THDPcbb
08224be0 T _Z16my_dbopt_cleanupv
08224c60 T _Z13my_dbopt_freev
08224ca0 T _Z13my_dbopt_initv
08224d30 t _Z9sort_keysP6st_keyS0_
08224e00 T _Z26calculate_interval_lengthsP15charset_info_stP10st_typelibPjS3_
08224e70 t _Z23check_if_keyname_existsPKcP6st_keyS2_
08224ed0 t _Z17send_check_errmsgP3THDP13st_table_listPKcS4_
08224f90 T _Z20mysql_checksum_tableP3THDP13st_table_listP15st_ha_check_opt
082255d0 t _Z24wait_while_table_is_usedP3THDP8st_table17ha_extra_function
08225630 t _Z12check_engineP3THDPKcP7db_type
082256d0 T _Z24reassign_keycache_tablesP3THDP12st_key_cacheS2_
08225710 t _Z16build_table_pathPcjPKcS1_S1_
08225770 t _Z19prepare_for_restoreP3THDP13st_table_listP15st_ha_check_opt
08225970 T _Z18close_cached_tableP3THDP8st_table
082259f0 t _Z18prepare_for_repairP3THDP13st_table_listP15st_ha_check_opt
08225d30 T _Z18mysql_rename_table7db_typePKcS1_S1_S1_
08225fa0 T _Z28check_duplicates_in_intervalPKcS0_P10st_typelibP15charset_info_st
08226080 t _Z18prepare_blob_fieldP3THDP12create_field
082261d0 T _Z23sp_prepare_create_fieldP3THDP12create_field
082262a0 T _Z20prepare_create_fieldP12create_fieldPjPiS2_j
08226610 T _Z18mysql_create_tableP3THDPKcS2_P24st_ha_create_informationR4ListI12create_fieldERS5_I3KeyEbj
08228620 T _Z14quick_rm_table7db_typePKcS1_
082286e0 T _Z17mysql_alter_tableP3THDPcS1_P24st_ha_create_informationP13st_table_listR4ListI12create_fieldERS6_I3KeyEjP8st_order15enum_duplicatesbP13st_alter_infob
0822b150 T _Z20mysql_recreate_tableP3THDP13st_table_listb
0822b2a0 t _Z17mysql_admin_tableP3THDP13st_table_listP15st_ha_check_optPKc13thr_lock_typebbjPFiS0_S2_S4_EM7handlerFiS0_S4_EPFiS0_S2_E
0822c490 T _Z17mysql_check_tableP3THDP13st_table_listP15st_ha_check_opt
0822c500 T _Z19mysql_analyze_tableP3THDP13st_table_listP15st_ha_check_opt
0822c570 T _Z18mysql_preload_keysP3THDP13st_table_list
0822c5d0 T _Z24mysql_assign_to_keycacheP3THDP13st_table_listP13st_lex_string
0822c6b0 T _Z20mysql_optimize_tableP3THDP13st_table_listP15st_ha_check_opt
0822c720 T _Z18mysql_repair_tableP3THDP13st_table_listP15st_ha_check_opt
0822c790 T _Z19mysql_restore_tableP3THDP13st_table_list
0822c800 T _Z18mysql_backup_tableP3THDP13st_table_list
0822c860 T _Z23mysql_create_like_tableP3THDP13st_table_listP24st_ha_create_informationP11Table_ident
0822ce90 T _Z23create_table_from_itemsP3THDP24st_ha_create_informationP13st_table_listP4ListI12create_fieldEPS5_I3KeyEPS5_I4ItemEPP13st_mysql_lock
0822d230 T _Z20mysql_rm_table_part2P3THDP13st_table_listbbbb
0822d970 T _Z30mysql_rm_table_part2_with_lockP3THDP13st_table_listbbb
0822da30 T _Z14mysql_rm_tableP3THDP13st_table_listcc
0822dba0 t _Z18reverse_table_listP13st_table_list
0822dbc0 t _Z13rename_tablesP3THDP13st_table_listb
0822de30 T _Z19mysql_rename_tablesP3THDP13st_table_list
0822e050 T _ZN9SQL_CRYPT6decodeEPcj
0822e0d0 T _ZN9SQL_CRYPT6encodeEPcj
0822e150 T _ZN9SQL_CRYPT10crypt_initEPm
0822e230 T _ZN9SQL_CRYPTC1EPKc
0822e270 T _ZN9SQL_CRYPTC2EPKc
0822e2b0 T _ZN9READ_INFO8unescapeEc
0822e320 T _ZN9READ_INFO20find_start_of_fieldsEv
0822e440 T _ZN9READ_INFO9next_lineEv
0822e6c0 T _ZN9READ_INFO17read_fixed_lengthEv
0822e920 T _ZN9READ_INFO10read_fieldEv
0822f120 T _ZN9READ_INFOD1Ev
0822f160 T _ZN9READ_INFOD2Ev
0822f1a0 T _ZN9READ_INFOC1EijP15charset_info_stR6StringS3_S3_S3_ibb
0822f3e0 T _ZN9READ_INFOC2EijP15charset_info_stR6StringS3_S3_S3_ibb
0822f620 t _Z34write_execute_load_query_log_eventP3THDbbb
0822f700 T _Z10mysql_loadP3THDP12sql_exchangeP13st_table_listR4ListI4ItemES8_S8_15enum_duplicatesbb
08230e10 T _my_b_net_read
08230ee0 t _Z10do_field_1P10Copy_field
08230f00 t _Z10do_field_2P10Copy_field
08230f20 t _Z10do_field_3P10Copy_field
08230f50 t _Z10do_field_4P10Copy_field
08230f90 t _Z10do_field_6P10Copy_field
08230fe0 t _Z10do_field_8P10Copy_field
08231050 t _Z7do_skipP10Copy_field
08231060 t _Z12do_copy_nullP10Copy_field
082310b0 t _Z19do_outer_field_nullP10Copy_field
08231100 t _Z18do_copy_maybe_nullP10Copy_field
08231120 t _Z19do_copy_next_numberP10Copy_field
08231160 t _Z12do_conv_blobP10Copy_field
082311b0 t _Z15do_field_stringP10Copy_field
08231250 t _Z12do_field_intP10Copy_field
082312a0 t _Z13do_field_realP10Copy_field
082312d0 T _ZN10Copy_field3setEPcP5Field
08231380 T _ZN10Copy_field13get_copy_funcEP5FieldS1_
082316f0 T _ZN10Copy_field3setEP5FieldS1_b
08231890 t _Z11do_field_eqP10Copy_field
082318c0 t _Z16do_expand_stringP10Copy_field
08231930 T _Z10field_convP5FieldS0_
08231d00 t _Z21do_cut_string_complexP10Copy_field
08231e00 t _Z13do_cut_stringP10Copy_field
08231ea0 t _Z16do_copy_not_nullP10Copy_field
08231f00 t _Z13do_varstring2P10Copy_field
08231f90 t _Z13do_varstring1P10Copy_field
08232020 t _Z12do_copy_blobP10Copy_field
08232060 t _Z12do_save_blobP10Copy_field
08232130 t _Z17do_copy_timestampP10Copy_field
08232160 t _Z20do_field_to_null_strP10Copy_field
082321d0 t _Z26do_outer_field_to_null_strP10Copy_field
08232240 T _Z34set_field_to_null_with_conversionsP5Fieldb
08232330 T _Z17set_field_to_nullP5Field
082323e0 T _Z22get_index_field_valuesP6st_lexP21st_index_field_values
08232440 T _Z20get_schema_table_idxP15st_schema_table
08232460 T _Z17find_schema_tableP3THDPKc
082324c0 T _Z16get_schema_table18enum_schema_tables
082324e0 t _Z25schema_table_store_recordP3THDP8st_table
08232550 t _Z23get_schema_views_recordP3THDP13st_table_listP8st_tablebPKcS6_
08232850 t _Z22get_schema_stat_recordP3THDP13st_table_listP8st_tablebPKcS6_
08232e10 T _Z22store_key_column_usageP8st_tablePKcS2_S2_jS2_jx
08232f20 t _Z34get_schema_key_column_usage_recordP3THDP13st_table_listP8st_tablebPKcS6_
082333a0 T _Z17store_constraintsP3THDP8st_tablePKcS4_S4_jS4_j
082334b0 T _Z20store_schema_shemataP3THDP8st_tablePKcP15charset_info_st
08233590 T _Z27uses_only_table_name_fieldsP4ItemP13st_table_list
08233750 t _Z26get_schema_triggers_recordP3THDP13st_table_listP8st_tablebPKcS6_
08233ae0 t _Z29get_schema_constraints_recordP3THDP13st_table_listP8st_tablebPKcS6_
08233d50 t _Z24get_schema_tables_recordP3THDP13st_table_listP8st_tablebPKcS6_
08234890 T _Z20fill_schema_charsetsP3THDP13st_table_listP4Item
08234a60 t _Z24get_schema_column_recordP3THDP13st_table_listP8st_tablebPKcS6_
08235780 T _Z24get_schema_tables_resultP4JOIN
082358c0 T _Z15make_table_listP3THDP13st_select_lexPcS3_
08235970 T _Z18mysql_schema_tableP3THDP6st_lexP13st_table_list
08235b60 T _Z20make_proc_old_formatP3THDP15st_schema_table
08235c80 T _Z30make_character_sets_old_formatP3THDP15st_schema_table
08235d80 T _Z23make_columns_old_formatP3THDP15st_schema_table
08235ed0 T _Z15make_old_formatP3THDP15st_schema_table
08235fc0 T _Z27make_table_names_old_formatP3THDP15st_schema_table
082362a0 T _Z24make_schemata_old_formatP3THDP15st_schema_table
082364e0 t _Z25make_cond_for_info_schemaP4ItemP13st_table_list
08236790 T _Z19create_schema_tableP3THDP13st_table_list
08236af0 t _Z17show_status_arrayP3THDPKcP11show_var_st13enum_var_typeP17system_status_varS2_P8st_table
08237090 T _Z14fill_variablesP3THDP13st_table_listP4Item
08237110 T _Z16fill_open_tablesP3THDP13st_table_listP4Item
08237270 T _Z17store_schema_procP3THDP8st_tableS2_PKcbS4_
08237900 T _Z16fill_schema_procP3THDP13st_table_listP4Item
08237b20 T _Z28fill_schema_coll_charset_appP3THDP13st_table_listP4Item
08237c70 T _Z21fill_schema_collationP3THDP13st_table_listP4Item
08237ee0 T _Z17schema_tables_addP3THDP4ListIcEPKc
08237fc0 T _Z15make_lex_stringP3THDP13st_lex_stringPKcjb
08238020 T _Z18make_schema_selectP3THDP13st_select_lex18enum_schema_tables
08238140 T _Z22calc_sum_of_all_statusP17system_status_var
082381f0 T _Z11fill_statusP3THDP13st_table_listP4Item
082382b0 T _Z21mysqld_list_processesP3THDPKcb
08238d80 T _Z16mysqld_show_logsP3THD
08239030 T _Z24mysqld_show_column_typesP3THD
08239bd0 T _Z22mysqld_show_privilegesP3THD
08239ef0 T _Z29get_quote_char_for_identifierP3THDPKcj
08239f90 T _Z17append_identifierP3THDP6StringPKcj
0823a0d0 T _Z14append_definerP3THDP6StringPK13st_lex_stringS5_
0823a1b0 T _Z18view_store_optionsP3THDP13st_table_listP6String
0823a2d0 t _Z16append_directoryP3THDP6StringPKcS4_
0823a3c0 t _Z17store_create_infoP3THDP13st_table_listP6String
0823b580 T _Z23mysqld_dump_create_infoP3THDP13st_table_listi
0823b620 T _Z18mysqld_list_fieldsP3THDP13st_table_listPKc
0823b760 T _Z21mysqld_show_create_dbP3THDPcP24st_ha_create_information
0823bdf0 T _Z18mysqld_show_createP3THDP13st_table_list
0823c680 T _Z16mysql_find_filesP3THDP4ListIcEPKcS5_S5_b
0823c990 T _Z12make_db_listP3THDP4ListIcEP21st_index_field_valuesPbb
0823cb70 T _Z19fill_schema_shemataP3THDP13st_table_listP4Item
0823cdb0 T _Z14get_all_tablesP3THDP13st_table_listP4Item
0823d6b0 T _Z27mysqld_show_storage_enginesP3THD
0823da60 W _ZN18List_iterator_fastIcE7replaceEPc
0823da70 W _ZN18List_iterator_fastIcE7replaceER4ListIcE
0823da80 W _ZN18List_iterator_fastIcE6removeEv
0823da90 W _ZN18List_iterator_fastIcE5afterEPc
0823daa0 W _ZN18List_iterator_fastIcE3refEv
0823dab0 W _ZN4ListIcEC1Ev
0823dad0 W _ZN4ListIcEC2Ev
0823daf0 W _ZN4ListIcEC1ERKS0_
0823db10 W _ZN4ListIcEC2ERKS0_
0823db30 W _ZN4ListIcE6concatEPS0_
0823db60 W _ZN4ListIcE3popEv
0823db90 W _ZN4ListIcE7disjoinEPS0_
0823dbd0 W _ZN4ListIcE7prepandEPS0_
0823dc00 W _ZN4ListIcE4headEv
0823dc10 W _ZN4ListIcE8head_refEv
0823dc30 W _ZN18List_iterator_fastIcE7sublistER4ListIcEj
0823dc50 W _ZN18List_iterator_fastIcEC1Ev
0823dc80 W _ZN18List_iterator_fastIcEC2Ev
0823dcb0 W _ZN18List_iterator_fastIcE4initER4ListIcE
0823dcd0 W _ZN18List_iterator_fastIcEC1ER4ListIcE
0823dcf0 W _ZN18List_iterator_fastIcEC2ER4ListIcE
0823dd10 W _ZN18List_iterator_fastIcEppEi
0823dd30 W _ZN18List_iterator_fastIcE6rewindEv
0823dd40 W _ZN6I_ListI11thread_infoE5emptyEv
0823dd50 W _ZN6I_ListI11thread_infoE8is_emptyEv
0823dd70 W _ZN6I_ListI11thread_infoE6appendEPS0_
0823dd90 W _ZN6I_ListI11thread_infoE9push_backEPS0_
0823ddc0 W _ZN6I_ListI11thread_infoE3getEv
0823de00 W _ZN6I_ListI11thread_infoE4headEv
0823de20 W _ZNK13Item_datetime10field_typeEv
0823de30 W _ZN13Item_datetimeD0Ev
0823de90 W _ZN13Item_datetimeD1Ev
0823def0 W _ZN6I_ListI11thread_infoEC1Ev
0823df10 W _ZN6I_ListI11thread_infoEC2Ev
0823df30 W _ZN11thread_infoD0Ev
0823df70 W _ZN11thread_infoD1Ev
0823dfb0 W _ZN4ListIcE9push_backEPc
0823e000 W _ZN4ListIcE10push_frontEPc
0823e050 W _ZN4ListIcE9push_backEPcP11st_mem_root
0823e0a0 W _ZN4ListIcE15delete_elementsEv
0823e0f0 T get_hash_key
0823e110 t _Z7del_udfP11st_udf_func
0823e170 t _Z11find_udf_dlPKc
0823e1d0 T _Z19mysql_drop_functionP3THDPK13st_lex_string
0823e3f0 T _Z8free_udfP11st_udf_func
0823e460 t _Z9init_symsP11st_udf_funcPc
0823e5d0 t _Z7add_udfP13st_lex_string11Item_resultPc12Item_udftype
0823e6a0 T _Z21mysql_create_functionP3THDP11st_udf_func
0823eaa0 T _Z8find_udfPKcjb
0823eb40 T _Z8udf_freev
0823ec30 T _Z8udf_initv
0823f080 T _ZN7analyse8send_rowER4ListI4ItemE
0823f0c0 T _Z14compare_doublePKdS0_
0823f0f0 T _Z15compare_double2PvPKdS1_
0823f110 T _Z16compare_longlongPKxS0_
0823f170 T _Z17compare_longlong2PvPKxS1_
0823f190 T _Z17compare_ulonglongPKyS0_
0823f1f0 T _Z18compare_ulonglong2PvPKyS1_
0823f210 T _Z15check_ulonglongPKcj
0823f2b0 T _Z15get_ev_num_infoP28st_extreme_value_number_infoP14st_number_infoPKc
0823f390 T _Z11free_stringP6String
0823f3d0 T _Z14append_escapedP6StringS0_
0823f4f0 T _Z14collect_stringP6StringjP12st_tree_info
0823f5e0 T _ZN7analyse14change_columnsER4ListI4ItemE
0823f870 T _Z17collect_ulonglongPyjP12st_tree_info
0823fa10 T _Z16collect_longlongPxjP12st_tree_info
0823fbb0 T _Z12collect_realPdjP12st_tree_info
0823fd60 T _ZN13field_decimal11get_max_argEP6String
0823fdb0 T _ZN13field_decimal11get_min_argEP6String
0823fe00 T _Z15collect_decimalPcjP12st_tree_info
0823ffd0 T _ZN13field_decimal3stdEP6Stringy
08240380 T _ZN13field_decimal3avgEP6Stringy
08240590 T _ZN13field_decimal12get_opt_typeEP6Stringy
08240680 T _ZN15field_ulonglong12get_opt_typeEP6Stringy
082407e0 T _ZN14field_longlong12get_opt_typeEP6Stringy
08240ab0 T _ZN10field_real12get_opt_typeEP6Stringy
08240e50 T _ZN9field_str12get_opt_typeEP6Stringy
082414a0 T _ZN7analyse14end_of_recordsEv
08241e60 T _ZN15field_ulonglong3addEv
082420d0 T _ZN14field_longlong3addEv
08242340 T _ZN13field_decimal3addEv
08242880 T _ZN10field_real3addEv
08242b80 T _Z8sortcmp2PvPK6StringS2_
08242ba0 T _Z14test_if_numberP14st_number_infoPKcj
08242e70 T _ZN9field_str3addEv
08243240 T _Z17proc_analyse_initP3THDP8st_orderP13select_resultR4ListI4ItemE
08243920 T _Z16compare_decimal2PiPKcS1_
08243960 W _ZN9Procedure11update_refsEv
08243970 W _ZN9Procedure14end_of_recordsEv
08243980 W _ZN10field_info8decimalsEv
08243990 W _ZN9field_str11get_min_argEP6String
082439a0 W _ZN9field_str11get_max_argEP6String
082439b0 W _ZN9field_str12collect_enumEv
082439c0 W _ZN9field_str3stdEP6Stringy
082439d0 W _ZN13field_decimal12collect_enumEv
082439e0 W _ZN10field_real8decimalsEv
08243a00 W _ZN10field_real12collect_enumEv
08243a10 W _ZN14field_longlong12collect_enumEv
08243a20 W _ZN15field_ulonglong12collect_enumEv
08243a30 W _ZN7analyse3addEv
08243a40 W _ZN7analyse9end_groupEv
08243a50 W _ZN7analyseD0Ev
08243ad0 W _ZN9ProcedureD0Ev
08243b00 W _ZN9ProcedureD1Ev
08243b30 W _ZN7analyseD1Ev
08243bb0 W _ZN15field_ulonglong3avgEP6Stringy
08243cb0 W _ZN14field_longlong3avgEP6Stringy
08243d70 W _ZN10field_real3avgEP6Stringy
08243e30 W _ZN10field_real11get_max_argEP6String
08243e70 W _ZN10field_real11get_min_argEP6String
08243eb0 W _ZN9field_str3avgEP6Stringy
08243fb0 W _ZN15field_ulonglong3stdEP6Stringy
08244130 W _ZN14field_longlong3stdEP6Stringy
08244250 W _ZN10field_real3stdEP6Stringy
08244350 W _ZN15field_ulonglong11get_max_argEP6String
08244390 W _ZN15field_ulonglong11get_min_argEP6String
082443d0 W _ZN15field_ulonglongD0Ev
082443f0 W _ZN15field_ulonglongD1Ev
08244410 W _ZN14field_longlongD0Ev
08244430 W _ZN14field_longlongD1Ev
08244450 W _ZN13field_decimalD0Ev
08244470 W _ZN13field_decimalD1Ev
08244490 W _ZN10field_realD0Ev
082444b0 W _ZN10field_realD1Ev
082444d0 W _ZN10field_infoD0Ev
082444f0 W _ZN10field_infoD1Ev
08244510 W _ZN14field_longlong11get_max_argEP6String
08244550 W _ZN14field_longlong11get_min_argEP6String
08244590 W _ZN9field_strD0Ev
08244660 W _ZN9field_strD1Ev
08244730 T _ZN17Query_cache_block4initEm
08244760 T _ZN17Query_cache_block7destroyEv
08244770 T query_cache_table_get_key
082447a0 T query_cache_query_get_key
082447d0 T _ZN11Query_cacheC2Emmmjj
082448a0 T _ZN11Query_cacheC1Emmmjj
08244960 T _ZN11Query_cache16set_min_res_unitEm
08244990 T _ZN11Query_cache13make_disabledEv
082449e0 T _ZN11Query_cache8find_binEm
08244a50 T _ZN11Query_cache35insert_into_free_memory_sorted_listEP17Query_cache_blockPS1_
08244b10 T _ZN11Query_cache28insert_into_free_memory_listEP17Query_cache_block
08244b80 T _ZN11Query_cache33double_linked_list_simple_includeEP17Query_cache_blockPS1_
08244bc0 T _ZN11Query_cache26double_linked_list_excludeEP17Query_cache_blockPS1_
08244c00 T _ZN11Query_cache22move_to_query_list_endEP17Query_cache_block
08244c40 T _ZN11Query_cache29exclude_from_free_memory_listEP17Query_cache_block
08244c90 T _ZN11Query_cache16join_free_blocksEP17Query_cache_blockS1_
08244cf0 T _ZN11Query_cache17free_memory_blockEP17Query_cache_block
08244d80 T _ZN11Query_cache11split_blockEP17Query_cache_blockm
08244e10 T _ZN11Query_cache22append_next_free_blockEP17Query_cache_blockm
08244ec0 T _ZN11Query_cache14get_free_blockEmcm
08245070 T _ZN11Query_cache23double_linked_list_joinEP17Query_cache_blockS1_
08245090 T _ZN11Query_cache12is_cacheableEP3THDjPcP6st_lexP13st_table_listPh
08245220 T _ZN11Query_cache21ask_handler_allowanceEP3THDP13st_table_list
082452c0 T _ZN11Query_cache6relinkEP17Query_cache_blockS1_S1_S1_S1_S1_
08245320 T _Z5wreckjPKc
08245330 T _Z9bins_dumpv
08245340 T _Z10cache_dumpv
08245350 T _Z12queries_dumpv
08245360 T _Z11tables_dumpv
08245370 T _Z15check_integrityb
08245380 T _Z7in_listP17Query_cache_blockS0_PKc
08245390 T _Z9in_blocksP17Query_cache_block
082453a0 T _ZN11Query_cache20filename_2_table_keyEPcPKcPj
08245450 T _ZN11Query_cache12join_resultsEm
08245600 T _ZN11Query_cache12unlink_tableEP23Query_cache_block_table
08245670 T _ZN11Query_cache10init_cacheEv
08245a90 T _ZN11Query_cache4initEv
08245ac0 T _Z25query_cache_end_of_resultP3THD
08245c00 T _ZN17Query_cache_query16unlock_n_destroyEv
08245c30 T _ZN11Query_cache12move_by_typeEPPcPP17Query_cache_blockPmS3_
08246310 T _ZN11Query_cache10pack_cacheEv
082463e0 T _ZN11Query_cache4packEmj
08246430 T _ZN11Query_cache10free_queryEP17Query_cache_block
08246550 T _ZN11Query_cache16invalidate_tableEP17Query_cache_block
082465b0 T _ZN11Query_cache16invalidate_tableEPcj
08246600 T _ZN11Query_cache16invalidate_tableEP8st_table
08246630 T _ZN11Query_cache10invalidateEP3THDP8st_tablec
082466f0 T _ZN11Query_cache27invalidate_locked_for_writeEP13st_table_list
08246770 T _ZN11Query_cache10invalidateEP3THDPKcjc
08246840 T _ZN11Query_cache10invalidateEP21st_changed_table_list
082468b0 T _ZN11Query_cache21send_result_to_clientEP3THDPcj
08246ea0 T _ZN11Query_cache16invalidate_tableEP13st_table_list
08246f40 T _ZN11Query_cache10invalidateEP3THDP13st_table_listc
08247020 T _ZN11Query_cache29invalidate_by_MyISAM_filenameEPKc
082470c0 T query_cache_invalidate_by_MyISAM_filename
082470e0 T _ZN11Query_cache10invalidateEPc
08247190 T _ZN11Query_cache11flush_cacheEv
082471e0 T _ZN11Query_cache10free_cacheEv
08247240 T _ZN11Query_cache7destroyEv
08247280 T _ZN11Query_cache6resizeEm
082472e0 T _ZN11Query_cache5flushEv
08247330 T _Z17query_cache_abortP6st_net
082473d0 T _ZN17Query_cache_query16try_lock_writingEv
082473f0 T _ZN11Query_cache14free_old_queryEv
08247490 T _ZN11Query_cache14allocate_blockEmcmc
08247590 T _ZN11Query_cache19allocate_data_chainEPP17Query_cache_blockmS1_c
082476d0 T _ZN11Query_cache17write_result_dataEPP17Query_cache_blockmPcS1_NS0_10block_typeE
082477a0 T _ZN11Query_cache18append_result_dataEPP17Query_cache_blockmPcS1_
08247920 T _Z18query_cache_insertP6st_netPKcm
082479f0 T _ZN11Query_cache16write_block_dataEmPcmN17Query_cache_block10block_typeEjc
08247a90 T _ZN11Query_cache12insert_tableEjPcP23Query_cache_block_tablejhPFcP3THDS0_jPyEy
08247c10 T _ZN11Query_cache25register_tables_from_listEP13st_table_listjP23Query_cache_block_table
08247e90 T _ZN11Query_cache19register_all_tablesEP17Query_cache_blockP13st_table_listj
08247ec0 T _ZN11Query_cache11store_queryEP3THDP13st_table_list
08248250 T _Z16init_thread_maskPiP14st_master_infob
082482a0 t _Z13get_table_keyP17st_table_rule_entPjc
082482c0 t _Z15io_slave_killedP3THDP14st_master_info
08248300 t _Z16sql_slave_killedP3THDP17st_relay_log_info
08248340 T _Z19print_slave_db_safePKc
08248360 T _Z17clear_slave_errorP17st_relay_log_info
08248380 T _Z21clear_until_conditionP17st_relay_log_info
082483b0 T _Z24set_slave_thread_optionsP3THD
082483f0 T _Z20check_expected_errorP3THDP17st_relay_log_infoi
08248440 T _Z18lock_slave_threadsP14st_master_info
08248470 T _Z16rotate_relay_logP14st_master_info
08248500 T _Z20unlock_slave_threadsP14st_master_info
08248530 T _Z5db_okPKcR6I_ListI8i_stringES4_
08248620 T _Z29init_master_info_with_optionsP14st_master_info
08248800 T _ZN17st_relay_log_info23inc_group_relay_log_posEyb
082488f0 T _Z20flush_relay_log_infoP17st_relay_log_info
08248a30 T _Z10next_eventP17st_relay_log_info
08248fe0 t _Z14free_table_entP17st_table_rule_ent
08248ff0 t _Z17process_io_rotateP14st_master_infoP16Rotate_log_event
082490a0 t _Z17init_slave_threadP3THD14SLAVE_THD_TYPE
08249230 t _Z10safe_sleepP3THDiPFbS0_PvES1_
082492e0 t _Z17connect_to_masterP3THDP8st_mysqlP14st_master_infobb
082495f0 t _Z14safe_reconnectP3THDP8st_mysqlP14st_master_infob
08249620 T _Z10rewrite_dbPKcPj
082496b0 T _Z16net_request_fileP6st_netPKc
08249700 T _Z21skip_load_data_infileP6st_net
08249760 T _Z11queue_eventP14st_master_infoPKcm
0824a280 T _ZN17st_relay_log_info22cached_charset_compareEPc
0824a2e0 T _ZN17st_relay_log_info25cached_charset_invalidateEv
0824a300 T _ZN17st_relay_log_info18is_until_satisfiedEv
0824a470 T _Z32set_slave_thread_default_charsetP3THDP17st_relay_log_info
0824a4c0 T _ZN17st_relay_log_info12wait_for_posEP3THDP6Stringxx
0824a900 T _ZN17st_relay_log_infoD1Ev
0824a990 T _ZN17st_relay_log_infoD2Ev
0824aa20 T _ZN17st_relay_log_infoC1Ev
0824ac00 T _ZN17st_relay_log_infoC2Ev
0824ade0 T _Z17flush_master_infoP14st_master_infob
0824af00 t _Z9find_wildP16st_dynamic_arrayPKci
0824afa0 T _Z21db_ok_with_wild_tablePKc
0824b030 T _Z35table_rule_ent_dynamic_array_to_strP6StringP16st_dynamic_array
0824b0c0 T _Z26table_rule_ent_hash_to_strP6StringP7st_hash
0824b150 T _Z16show_master_infoP3THDP14st_master_info
0824c3b0 T _Z24register_slave_on_masterP8st_mysql
0824c530 T handle_slave_io
0824d740 t _Z21init_intvar_from_filePiP11st_io_cachei
0824d7c0 t _Z21init_strvar_from_filePciP11st_io_cachePKc
0824d850 T _Z18init_relay_log_posP17st_relay_log_infoPKcybPS2_b
0824dc20 t _Z21count_relay_log_spaceP17st_relay_log_info
0824dd40 T _Z16init_master_infoP14st_master_infoPKcS2_bi
0824eb50 T _Z18fetch_master_tableP3THDPKcS2_P14st_master_infoP8st_mysqlb
0824f0e0 T _Z17slave_print_errorP17st_relay_log_infoiPKcz
0824f170 T handle_slave_sql
0824fbe0 t _Z17free_string_arrayP16st_dynamic_array
0824fc40 T _Z19add_wild_table_ruleP16st_dynamic_arrayPKc
0824fcf0 T _Z14add_table_ruleP7st_hashPKc
0824fd90 T _Z9tables_okP3THDP13st_table_list
0824ff30 T _Z21init_table_rule_arrayP16st_dynamic_arrayPb
0824ff70 T _Z20init_table_rule_hashP7st_hashPb
0824ffc0 T _Z18start_slave_threadPFPvS_EP15pthread_mutex_tS3_P14pthread_cond_tPVjPVmP14st_master_infob
082501c0 T _Z22terminate_slave_threadP3THDP15pthread_mutex_tS2_P14pthread_cond_tPVj
08250290 T _Z23terminate_slave_threadsP14st_master_infoib
082503a0 T _Z19start_slave_threadsbbP14st_master_infoPKcS2_i
082504e0 T _Z16purge_relay_logsP17st_relay_log_infoP3THDbPPKc
08250680 T _ZN17st_relay_log_info22close_temporary_tablesEv
082506d0 T _Z18end_relay_log_infoP17st_relay_log_info
082507a0 T _Z15end_master_infoP14st_master_info
08250820 T _Z9end_slavev
08250970 T _Z22init_slave_skip_errorsPKc
08250ae0 T _Z10init_slavev
08250d10 W _ZN15I_List_iteratorI8i_stringEC1ER6I_ListIS0_E
08250d30 W _ZN15I_List_iteratorI8i_stringEC2ER6I_ListIS0_E
08250d50 W _ZN15I_List_iteratorI13i_string_pairEC1ER6I_ListIS0_E
08250d70 W _ZN15I_List_iteratorI13i_string_pairEC2ER6I_ListIS0_E
08250d90 W _ZN15I_List_iteratorI8i_stringEppEi
08250dc0 W _ZN15I_List_iteratorI13i_string_pairEppEi
08250df0 W _ZN17Item_empty_stringC1EPKcjP15charset_info_st
08250eb0 T _Z16log_loaded_blockP11st_io_cache
08251010 T _Z12show_binlogsP3THD
08251410 T _Z20adjust_linfo_offsetsy
08251510 T _Z16show_binlog_infoP3THD
08251910 T _Z24mysql_show_binlog_eventsP3THD
08251e20 T _Z14cmp_master_posPKcyS0_y
08251ec0 T _Z12reset_masterP3THD
08251f20 T _Z13change_masterP3THDP14st_master_info
08252540 T _Z19purge_error_messageP3THDi
082525f0 T _Z24kill_zombie_dump_threadsj
082526a0 T _Z11reset_slaveP3THDP14st_master_info
08252870 T _Z10stop_slaveP3THDP14st_master_infob
08252a30 T _Z11start_slaveP3THDP14st_master_infob
08252e00 T _Z32test_for_non_eof_log_read_errorsiPPKc
08252e70 t _Z9send_fileP3THD
08253090 t _Z17fake_rotate_eventP6st_netP6StringPcyPPKc
082531a0 T _Z17mysql_binlog_sendP3THDPcyt
08253c10 T _Z29purge_master_logs_before_dateP3THDl
08253c80 T _Z17purge_master_logsP3THDPKc
08253d40 T _Z10log_in_usePKc
08253e10 T _ZN12select_union7prepareER4ListI4ItemEP18st_select_lex_unit
08253e20 T _ZN12select_union8send_eofEv
08253e30 T _ZN12select_union5flushEv
08253ea0 T _ZN18st_select_lex_unit28init_prepare_fake_select_lexEP3THD
08253f40 T _ZN18st_select_lex_unit21reinit_exec_mechanismEv
08253f60 T _ZN18st_select_lex_unit21get_unit_column_typesEv
08253f80 T _ZN13st_select_lex17cleanup_all_joinsEb
08254000 T _ZN18st_select_lex_unit13change_resultEP16select_subselectS1_
082540a0 T _ZN18st_select_lex_unit7cleanupEv
08254170 T _ZN13st_select_lex7cleanupEv
08254260 T _ZN18st_select_lex_unit4execEv
08254fd0 T _ZN12select_union19create_result_tableEP3THDP4ListI4ItemEbyPKc
082550e0 T _ZN18st_select_lex_unit7prepareEP3THDP13select_resultm
082561c0 T _Z11mysql_unionP3THDP6st_lexP13select_resultP18st_select_lex_unitm
08256260 T _ZN12select_union9send_dataER4ListI4ItemE
08256360 W _ZN12select_unionD0Ev
082563f0 W _ZN12select_unionD1Ev
08256480 T _Z20mysql_handle_derivedP6st_lexPFbP3THDS0_P13st_table_listE
08256530 T _Z21mysql_derived_fillingP3THDP6st_lexP13st_table_list
08256680 T _Z21mysql_derived_prepareP3THDP6st_lexP13st_table_list
082569f0 t cli_fetch_lengths
08256a50 T mysql_ssl_set
08256a60 T mysql_detach_stmt_list
08256a70 T mysql_send_query
08256ac0 T mysql_real_query
08256b10 T mysql_fetch_lengths
08256b50 T mysql_num_rows
08256b60 T mysql_num_fields
08256b70 T mysql_errno
08256b80 T mysql_error
08256b90 T set_mysql_error
08256be0 T mysql_set_character_set
08256d60 t mysql_close_free
08256dd0 T mysql_select_db
08256e60 T mysql_store_result
08256fd0 t cli_use_result
08257120 t add_init_command
082571c0 T mysql_options
082573a0 t mysql_close_free_options
08257490 T mysql_init
08257550 T mysql_read_default_options
08257940 T free_old_query
082579b0 T free_rows
082579f0 T unpack_fields
08257dc0 T mysql_free_result
08257e90 T end_server
08257ee0 T mysql_close
08257fe0 T net_safe_read
08258130 T mysql_fetch_row
08258340 t cli_flush_use_result
08258390 t cli_read_query_result
08258530 T cli_read_rows
082587b0 T my_connect
082588e0 T mysql_real_connect
082597e0 T mysql_reconnect
08259ac0 T cli_advanced_command
08259c80 T my_net_local_init
08259cc0 T finish_client_errs
08259ce0 T init_client_errs
08259d10 T net_field_length
08259d70 T net_field_length_ll
08259de0 T net_store_length
08259e70 T write_core
08259ea0 T print_stacktrace
0825a090 T safe_print_str
0825a1d0 T slave_list_key
0825a1f0 T _Z21find_recovery_captainP3THDP8st_mysql
0825a200 T _Z17connect_to_masterP3THDP8st_mysqlP14st_master_info
0825a310 T _Z16load_master_dataP3THD
0825abc0 T slave_info_free
0825abd0 T _Z16show_slave_hostsP3THD
0825b170 T handle_failsafe_rpl
0825b490 T _Z17update_slave_listP8st_mysqlP14st_master_info
0825b740 T _Z16translate_masterP3THDP18st_lex_master_infoPc
0825bd60 T _Z15show_new_masterP3THD
0825bfd0 T _Z14end_slave_listv
0825c000 T _Z15init_slave_listv
0825c060 T _Z16unregister_slaveP3THDbb
0825c100 T _Z14register_slaveP3THDPhj
0825c2e0 T _Z17change_rpl_status10RPL_STATUSS_
0825c360 T _Z17mysql_rename_viewP3THDPKcP13st_table_list
0825c690 T _Z13view_checksumP3THDP13st_table_list
0825c700 T _Z18insert_view_fieldsP3THDP4ListI4ItemEP13st_table_list
0825c7b0 T _Z17check_key_in_viewP3THDP13st_table_list
0825c9d0 T _Z14mysql_frm_typeP3THDPcP7db_type
0825cad0 T _Z15mysql_drop_viewP3THDP13st_table_list14enum_drop_mode
0825cd00 T _Z15mysql_make_viewP3THDP11File_parserP13st_table_list
0825d680 t _Z27make_unique_view_field_nameP4ItemR4ListIS_ES0_
0825d7c0 T _Z21check_duplicate_namesR4ListI4ItemEb
0825d8e0 T _Z17mysql_create_viewP3THD21enum_view_create_mode
0825ea70 W _ZN12st_lex_localD0Ev
0825eab0 W _ZN12st_lex_localD1Ev
0825eaf0 T _ZN15Gis_read_stream17get_next_toc_typeEv
0825ebb0 T _ZN15Gis_read_stream13get_next_wordEP13st_lex_string
0825eca0 T _ZN15Gis_read_stream13set_error_msgEPKc
0825ed00 T _ZN15Gis_read_stream15get_next_numberEPd
0825ede0 T _ZN15Gis_read_stream17check_next_symbolEc
0825ee80 t _Z12create_pointPv
0825ee90 t _Z17create_linestringPv
0825eea0 t _Z14create_polygonPv
0825eeb0 t _Z17create_multipointPv
0825eec0 t _Z19create_multipolygonPv
0825eed0 t _Z22create_multilinestringPv
0825eee0 t _Z25create_geometrycollectionPv
0825eef0 t _Z9get_pointPdS_PKc
0825ef30 T _ZN8Geometry10find_classEPKcj
0825efb0 T _ZN8Geometry9constructEP15Geometry_bufferPKcj
0825f020 t _Z14wkb_get_doublePKcN8Geometry12wkbByteOrderE
0825f0b0 t _Z12wkb_get_uintPKcN8Geometry12wkbByteOrderE
0825f0e0 T _ZNK8Geometry18get_mbr_for_pointsEP3MBRPKcj
0825f1d0 T _ZNK9Gis_point13get_data_sizeEv
0825f1e0 T _ZNK9Gis_point7get_mbrEP3MBRPPKc
0825f2c0 T _ZNK9Gis_point14get_class_infoEv
0825f2d0 T _ZNK15Gis_line_string13get_data_sizeEv
0825f300 T _ZNK15Gis_line_string7get_mbrEP3MBRPPKc
0825f340 T _ZNK15Gis_line_string9is_closedEPi
0825f400 T _ZNK15Gis_line_string10num_pointsEPj
0825f420 T _ZNK15Gis_line_string14get_class_infoEv
0825f430 T _ZNK11Gis_polygon13get_data_sizeEv
0825f490 T _ZNK11Gis_polygon7get_mbrEP3MBRPPKc
0825f500 T _ZNK11Gis_polygon4areaEPdPPKc
0825f630 T _ZNK11Gis_polygon17num_interior_ringEPj
0825f660 T _ZNK11Gis_polygon11centroid_xyEPdS0_
0825f810 T _ZNK11Gis_polygon14get_class_infoEv
0825f820 T _ZNK15Gis_multi_point13get_data_sizeEv
0825f850 T _ZNK15Gis_multi_point7get_mbrEP3MBRPPKc
0825f890 T _ZNK15Gis_multi_point14num_geometriesEPj
0825f8b0 T _ZNK15Gis_multi_point14get_class_infoEv
0825f8c0 T _ZNK21Gis_multi_line_string13get_data_sizeEv
0825f920 T _ZNK21Gis_multi_line_string7get_mbrEP3MBRPPKc
0825f990 T _ZNK21Gis_multi_line_string14num_geometriesEPj
0825f9b0 T _ZNK21Gis_multi_line_string9is_closedEPi
0825fa60 T _ZNK21Gis_multi_line_string14get_class_infoEv
0825fa70 T _ZNK17Gis_multi_polygon13get_data_sizeEv
0825faf0 T _ZNK17Gis_multi_polygon7get_mbrEP3MBRPPKc
0825fba0 T _ZNK17Gis_multi_polygon14num_geometriesEPj
0825fbc0 T _ZNK17Gis_multi_polygon4areaEPdPPKc
0825fc70 T _ZNK17Gis_multi_polygon14get_class_infoEv
0825fc80 T _ZNK23Gis_geometry_collection13get_data_sizeEv
0825fd30 T _ZNK23Gis_geometry_collection7get_mbrEP3MBRPPKc
0825fdf0 T _ZNK23Gis_geometry_collection14num_geometriesEPj
0825fe20 T _ZNK23Gis_geometry_collection9dimensionEPjPPKc
0825ff30 T _ZNK23Gis_geometry_collection14get_class_infoEv
0825ff40 T _ZN8Geometry10Class_infoC1EPKciPFvPvE
0825ff90 t _GLOBAL__I__ZN8Geometry10Class_infoC2EPKciPFvPvE
08260100 T _ZN8Geometry10Class_infoC2EPKciPFvPvE
08260150 t __tcf_0
08260190 T _ZN9Gis_point13init_from_wkbEPKcjN8Geometry12wkbByteOrderEP6String
08260220 T _ZN15Gis_multi_point13init_from_wkbEPKcjN8Geometry12wkbByteOrderEP6String
08260300 T _ZN15Gis_line_string13init_from_wkbEPKcjN8Geometry12wkbByteOrderEP6String
082603d0 T _ZNK8Geometry12create_pointEP6Stringdd
08260460 T _ZNK17Gis_multi_polygon8centroidEP6String
08260590 T _ZNK11Gis_polygon8centroidEP6String
082605f0 T _ZNK8Geometry8envelopeEP6String
08260770 T _ZNK23Gis_geometry_collection10geometry_nEjP6String
082608a0 T _ZNK15Gis_multi_point10geometry_nEjP6String
08260950 T _ZNK11Gis_polygon15interior_ring_nEjP6String
08260a60 T _ZNK11Gis_polygon13exterior_ringEP6String
08260b10 T _ZNK8Geometry12create_pointEP6StringPKc
08260ba0 T _ZNK15Gis_line_string7point_nEjP6String
08260c00 T _ZNK15Gis_line_string9end_pointEP6String
08260c50 T _ZNK15Gis_line_string11start_pointEP6String
08260c80 T _ZNK17Gis_multi_polygon10geometry_nEjP6String
08260d80 T _ZNK21Gis_multi_line_string10geometry_nEjP6String
08260e40 T _ZN23Gis_geometry_collection13init_from_wkbEPKcjN8Geometry12wkbByteOrderEP6String
08260fa0 T _ZN21Gis_multi_line_string13init_from_wkbEPKcjN8Geometry12wkbByteOrderEP6String
082610c0 T _ZN11Gis_polygon13init_from_wkbEPKcjN8Geometry12wkbByteOrderEP6String
082611c0 T _ZN17Gis_multi_polygon13init_from_wkbEPKcjN8Geometry12wkbByteOrderEP6String
082612e0 T _ZN8Geometry15create_from_wkbEP15Geometry_bufferPKcjP6String
082613b0 T _ZNK23Gis_geometry_collection15get_data_as_wktEP6StringPPKc
08261550 T _ZNK15Gis_line_string6lengthEPd
08261650 T _ZNK21Gis_multi_line_string6lengthEPd
082616f0 T _ZNK15Gis_line_string15get_data_as_wktEP6StringPPKc
082617d0 T _ZNK9Gis_point15get_data_as_wktEP6StringPPKc
082618a0 T _ZNK8Geometry13append_pointsEP6StringjPKcj
08261920 T _ZNK17Gis_multi_polygon15get_data_as_wktEP6StringPPKc
08261ab0 T _ZNK21Gis_multi_line_string15get_data_as_wktEP6StringPPKc
08261bd0 T _ZNK15Gis_multi_point15get_data_as_wktEP6StringPPKc
08261c70 T _ZNK11Gis_polygon15get_data_as_wktEP6StringPPKc
08261d90 T _ZN9Gis_point13init_from_wktEP15Gis_read_streamP6String
08261e30 T _ZN15Gis_multi_point13init_from_wktEP15Gis_read_streamP6String
08261f40 T _ZN15Gis_line_string13init_from_wktEP15Gis_read_streamP6String
08262030 T _ZN21Gis_multi_line_string13init_from_wktEP15Gis_read_streamP6String
08262180 T _ZN11Gis_polygon13init_from_wktEP15Gis_read_streamP6String
082622e0 T _ZN17Gis_multi_polygon13init_from_wktEP15Gis_read_streamP6String
08262430 T _ZN8Geometry15create_from_wktEP15Geometry_bufferP15Gis_read_streamP6Stringb
08262560 T _ZN23Gis_geometry_collection13init_from_wktEP15Gis_read_streamP6String
08262670 W _ZNK8Geometry5get_xEPd
08262680 W _ZNK8Geometry5get_yEPd
08262690 W _ZNK8Geometry6lengthEPd
082626a0 W _ZNK8Geometry4areaEPdPPKc
082626b0 W _ZNK8Geometry9is_closedEPi
082626c0 W _ZNK8Geometry17num_interior_ringEPj
082626d0 W _ZNK8Geometry10num_pointsEPj
082626e0 W _ZNK8Geometry14num_geometriesEPj
082626f0 W _ZNK8Geometry11start_pointEP6String
08262700 W _ZNK8Geometry9end_pointEP6String
08262710 W _ZNK8Geometry13exterior_ringEP6String
08262720 W _ZNK8Geometry8centroidEP6String
08262730 W _ZNK8Geometry7point_nEjP6String
08262740 W _ZNK8Geometry15interior_ring_nEjP6String
08262750 W _ZNK8Geometry10geometry_nEjP6String
08262760 W _ZNK9Gis_point5get_xEPd
082627b0 W _ZNK9Gis_point5get_yEPd
08262800 W _ZNK9Gis_point9dimensionEPjPPKc
08262820 W _ZNK15Gis_line_string9dimensionEPjPPKc
08262840 W _ZNK11Gis_polygon9dimensionEPjPPKc
08262860 W _ZNK15Gis_multi_point9dimensionEPjPPKc
08262880 W _ZNK21Gis_multi_line_string9dimensionEPjPPKc
082628a0 W _ZNK17Gis_multi_polygon9dimensionEPjPPKc
082628c0 T _Z13send_header_2P8Protocolb
08262b60 T _Z13send_answer_1P8ProtocolP6StringS2_S2_
08262e80 T _Z21prepare_simple_selectP3THDP4ItemP8st_tablePi
08262fa0 T _Z23prepare_select_for_nameP3THDPKcjP13st_table_listP8st_tableP5FieldPi
08263250 T _Z19send_variant_2_listP11st_mem_rootP8ProtocolP4ListI6StringEPKcPS4_
08263390 T string_ptr_cmp
08263410 T _Z22memorize_variant_topicP3THDP8st_tableiP13st_find_fieldP4ListI6StringEPS6_S9_S9_
08263560 T _Z26get_all_items_for_categoryP3THDP8st_tableP5FieldP10SQL_SELECTP4ListI6StringE
08263660 T _Z17search_categoriesP3THDP8st_tableP13st_find_fieldP10SQL_SELECTP4ListI6StringEPs
082637c0 T _Z14search_keywordP3THDP8st_tableP13st_find_fieldP10SQL_SELECTPi
08263860 T _Z13search_topicsP3THDP8st_tableP13st_find_fieldP10SQL_SELECTP4ListI6StringEPS8_SB_SB_
08263920 T _Z22get_topics_for_keywordP3THDP8st_tableS2_P13st_find_fieldsP4ListI6StringEPS6_S9_S9_
08263bb0 T _Z11mysqld_helpP3THDPKc
08264850 T _ZN16Sensitive_cursor9reset_thdEP3THD
08264890 T _ZN19Materialized_cursor5fetchEm
082649a0 T _ZN18Select_materialize11send_fieldsER4ListI4ItemEj
08264a10 T _ZN16Sensitive_cursor5closeEv
08264b20 T _ZN19Materialized_cursor5closeEv
08264bf0 T _ZN19Materialized_cursor4openEP4JOIN
08264d10 T _ZN16Sensitive_cursor5fetchEm
08264f80 T _ZN16Sensitive_cursor4openEP4JOIN
082650a0 T _ZN16Sensitive_cursor9post_openEP3THD
082651f0 T _ZN18Server_side_cursordlEPvj
08265240 T _ZN18Server_side_cursorD0Ev
08265270 T _ZN18Server_side_cursorD1Ev
08265280 T _ZN18Server_side_cursorD2Ev
08265290 T _ZN19Materialized_cursorD0Ev
08265300 T _ZN19Materialized_cursorD1Ev
08265350 T _ZN19Materialized_cursorD2Ev
082653a0 T _ZN19Materialized_cursorC1EP13select_resultP8st_table
08265470 T _ZN19Materialized_cursorC2EP13select_resultP8st_table
08265540 T _ZN16Sensitive_cursorD0Ev
082655c0 T _ZN16Sensitive_cursorD1Ev
08265630 T _ZN16Sensitive_cursorD2Ev
082656a0 T _ZN16Sensitive_cursorC1EP3THDP13select_result
08265740 T _ZN16Sensitive_cursorC2EP3THDP13select_result
082657e0 T _Z17mysql_open_cursorP3THDjP13select_resultPP18Server_side_cursor
08265a40 W _ZNK16Sensitive_cursor7is_openEv
08265a60 W _ZNK19Materialized_cursor7is_openEv
08265a80 W _ZN18Select_materializeD0Ev
08265b10 W _ZN18Select_materializeD1Ev
08265ba0 t __tcf_1
08265bb0 t __tcf_2
08265bc0 t _Z11sec_to_TIMEP13st_mysql_timell
08265e10 t _Z15find_time_rangelPKlj
08265e60 t _Z15sec_since_epochiiiiii
08265f60 T _ZNK16Time_zone_system8get_nameEv
08265f70 T _ZNK13Time_zone_utc15TIME_to_gmt_secEPK13st_mysql_timePc
08265f80 T _ZNK13Time_zone_utc8get_nameEv
08265f90 T _ZN12Time_zone_dbC2EP17st_time_zone_infoPK6String
08265fb0 T _ZN12Time_zone_dbC1EP17st_time_zone_infoPK6String
08265fd0 T _ZNK12Time_zone_db15TIME_to_gmt_secEPK13st_mysql_timePc
08266080 T _ZNK12Time_zone_db8get_nameEv
08266090 T _ZNK16Time_zone_offset15TIME_to_gmt_secEPK13st_mysql_timePc
082660d0 T _ZNK16Time_zone_offset15gmt_sec_to_TIMEEP13st_mysql_timel
082660f0 T _ZNK16Time_zone_offset8get_nameEv
08266100 T my_tz_names_get_key
08266120 T my_offset_tzs_get_key
08266140 T _Z13str_to_offsetPKcjPl
082662a0 t __tcf_0
082662e0 t _GLOBAL__I__ZNK16Time_zone_system15TIME_to_gmt_secEPK13st_mysql_timePc
08266380 t _Z18tz_init_table_listP13st_table_listPPS0_
082664c0 T _Z20my_tz_get_table_listP3THDPPP13st_table_list
08266510 T _Z10my_tz_freev
08266560 T _ZN16Time_zone_offsetC1El
08266690 T _Z10my_tz_findPK6StringP13st_table_list
082674d0 T _Z33my_tz_find_with_opening_tz_tablesP3THDPK6String
08267570 T _Z10my_tz_initP3THDPKcc
08267ae0 T _ZN16Time_zone_offsetC2El
08267c10 T _ZNK12Time_zone_db15gmt_sec_to_TIMEEP13st_mysql_timel
08267d30 T _ZNK13Time_zone_utc15gmt_sec_to_TIMEEP13st_mysql_timel
08267d80 T _ZNK16Time_zone_system15gmt_sec_to_TIMEEP13st_mysql_timel
08267dd0 T _ZNK16Time_zone_system15TIME_to_gmt_secEPK13st_mysql_timePc
08267e00 W _ZN13Time_zone_utcD0Ev
08267e10 W _ZN13Time_zone_utcD1Ev
08267e20 W _ZN16Time_zone_systemD0Ev
08267e30 W _ZN16Time_zone_systemD1Ev
08267e40 W _ZN9Time_zoneD1Ev
08267e50 W _ZN9Time_zoneD0Ev
08267e60 W _ZN12Time_zone_dbD1Ev
08267e70 W _ZN12Time_zone_dbD0Ev
08267e80 W _ZN16Time_zone_offsetD0Ev
08267ef0 W _ZN16Time_zone_offsetD1Ev
08267f60 T calc_days_in_year
08267fb0 t check_date
08268050 T calc_daynr
08268120 T number_to_datetime
082684d0 T TIME_to_ulonglong_datetime
08268530 T TIME_to_ulonglong_date
08268560 T TIME_to_ulonglong_time
08268590 T TIME_to_ulonglong
082685e0 T my_datetime_to_str
08268630 T my_date_to_str
08268670 T my_time_to_str
082686c0 T my_TIME_to_str
08268720 T set_zero_time
08268740 T str_to_datetime
08268ef0 T my_system_gmt_sec
08269100 T init_time
08269180 T str_to_time
08269730 T _Z25decimal_operation_resultsi
08269890 T _Z14str2my_decimaljPKcjP15charset_info_stP10my_decimal
08269a30 T _Z17my_decimal2binaryjPK10my_decimalPcii
08269af0 T _Z17my_decimal2stringjPK10my_decimaljjcP6String
08269be0 T _Z18sp_map_result_type16enum_field_types
08269c30 T _Z16sp_map_item_type16enum_field_types
08269c90 T _Z24sp_get_flags_for_commandP6st_lex
08269d00 T _Z20sp_prepare_func_itemP3THDPP4Item
08269d80 T _Z12sp_eval_exprP3THDP5FieldP4Item
08269e50 T _Z21cmp_splocal_locationsPKP12Item_splocalS2_
08269e70 t _Z16item_is_user_varP4Item
08269ea0 T _ZN8sp_instr9exec_coreEP3THDPj
08269eb0 T _ZN26sp_instr_set_trigger_field9exec_coreEP3THDPj
08269f60 T _ZN13sp_instr_jump7executeEP3THDPj
08269f80 T _ZN16sp_instr_jump_if9exec_coreEP3THDPj
08269fe0 T _ZN20sp_instr_jump_if_not9exec_coreEP3THDPj
0826a040 T _ZN19sp_instr_hpush_jump7executeEP3THDPj
0826a0e0 T _ZN13sp_instr_hpop7executeEP3THDPj
0826a110 T _ZN16sp_instr_hreturn7executeEP3THDPj
0826a160 T _Z27sp_restore_security_contextP3THDP16Security_context
0826a180 T _Z12sp_table_keyPKcPjc
0826a1a0 T _ZN7sp_head15check_backpatchEP3THD
0826a220 T _ZN7sp_head18reset_thd_mem_rootEP3THD
0826a290 T _Z22sp_add_to_query_tablesP3THDP6st_lexPKcS4_13thr_lock_type
0826a3a0 T _ZN7sp_head29add_used_tables_to_table_listEP3THDPPP13st_table_listS3_
0826a5a0 T _ZN7sp_head8set_infoExxP14st_sp_chisticsm
0826a640 T _ZN7sp_head16merge_table_listEP3THDP13st_table_listP6st_lex
0826a8d0 T _Z26sp_change_security_contextP3THDP7sp_headPP16Security_context
0826a9a0 T _ZN26sp_instr_set_trigger_field5printEP6String
0826aa20 T _ZN22sp_instr_set_case_expr5printEP6String
0826aab0 T _ZN13sp_instr_jump8opt_moveEjP4ListI8sp_instrE
0826ab30 T _ZN7sp_head14push_backpatchEP8sp_instrP8sp_label
0826abb0 T _ZN22sp_instr_set_case_expr9exec_coreEP3THDPj
0826acd0 T _ZN13sp_instr_cpop5printEP6String
0826ad40 T _ZN16sp_instr_hreturn5printEP6String
0826add0 T _ZN13sp_instr_hpop5printEP6String
0826ae40 T _ZN16sp_instr_freturn5printEP6String
0826aed0 T _ZN20sp_instr_jump_if_not5printEP6String
0826af60 T _ZN16sp_instr_jump_if5printEP6String
0826aff0 T _ZN13sp_instr_jump5printEP6String
0826b060 T _ZN13sp_instr_stmt5printEP6String
0826b180 T _ZN14sp_instr_error5printEP6String
0826b1f0 T _ZN19sp_instr_hpush_jump5printEP6String
0826b320 T _ZN14sp_instr_error7executeEP3THDPj
0826b370 T _ZN15sp_instr_cfetch5printEP6String
0826b4c0 T _ZN15sp_instr_cclose5printEP6String
0826b580 T _ZN14sp_instr_copen5printEP6String
0826b640 T _ZN14sp_instr_cpush5printEP6String
0826b700 T _ZN15sp_instr_cfetch7executeEP3THDPj
0826b760 T _ZN15sp_instr_cclose7executeEP3THDPj
0826b7b0 T _ZN14sp_instr_copen9exec_coreEP3THDPj
0826b7f0 T _ZN13sp_instr_cpop9backpatchEjP11sp_pcontext
0826b820 T _ZN13sp_instr_cpop7executeEP3THDPj
0826b860 T _ZN14sp_instr_cpush7executeEP3THDPj
0826b8e0 T _ZN13sp_instr_hpop9backpatchEjP11sp_pcontext
0826b910 T _ZN13sp_instr_jump17opt_shortcut_jumpEP7sp_headP8sp_instr
0826b990 T _ZN13sp_instr_jump8opt_markEP7sp_head
0826ba10 T _ZN16sp_instr_hreturn8opt_markEP7sp_head
0826ba40 T _ZN7sp_head8opt_markEj
0826baa0 T _ZN19sp_instr_hpush_jump8opt_markEP7sp_head
0826bb50 T _ZN20sp_instr_jump_if_not8opt_markEP7sp_head
0826bc00 T _ZN16sp_instr_jump_if8opt_markEP7sp_head
0826bcb0 T _ZN16sp_instr_freturn9exec_coreEP3THDPj
0826bcf0 T _ZN12sp_instr_set5printEP6String
0826bde0 T _ZN12sp_instr_set9exec_coreEP3THDPj
0826bea0 T _ZN13sp_instr_stmt9exec_coreEP3THDPj
0826bed0 T _ZN7sp_head9add_instrEP8sp_instr
0826bf20 t _Z17sp_get_item_valueP4ItemP6String
0826c120 T _ZN13sp_lex_keeper23reset_lex_and_exec_coreEP3THDPjbP8sp_instr
0826c2e0 T _ZN22sp_instr_set_case_expr7executeEP3THDPj
0826c320 T _ZN14sp_instr_copen7executeEP3THDPj
0826c3e0 T _ZN16sp_instr_freturn7executeEP3THDPj
0826c420 T _ZN20sp_instr_jump_if_not7executeEP3THDPj
0826c460 T _ZN16sp_instr_jump_if7executeEP3THDPj
0826c4a0 T _ZN26sp_instr_set_trigger_field7executeEP3THDPj
0826c4e0 T _ZN12sp_instr_set7executeEP3THDPj
0826c520 T _ZN13sp_instr_stmt7executeEP3THDPj
0826cb00 T _ZN7sp_head8optimizeEv
0826cc40 T _Z25check_show_routine_accessP3THDP7sp_headPb
0826cd60 T _ZN7sp_head20show_create_functionEP3THD
0826d200 T _ZN7sp_head21show_create_procedureEP3THD
0826d6a0 T _ZN7sp_head20restore_thd_mem_rootEP3THD
0826d710 T _ZN7sp_head11set_definerEPcj
0826d810 T _ZN7sp_head21fill_field_definitionEP3THDP6st_lex16enum_field_typesP12create_field
0826db20 T _ZN7sp_head9backpatchEP8sp_label
0826dc20 T _ZN7sp_head11restore_lexEP3THD
0826dd30 T _ZN7sp_head9reset_lexEP3THD
0826dea0 T _ZN7sp_headnwEj
0826df10 T _ZN7sp_headdlEPvj
0826df60 T _ZN7sp_head7executeEP3THD
0826e620 T _ZN7sp_head17execute_procedureEP3THDP4ListI4ItemE
0826ebd0 T _ZN7sp_head16execute_functionEP3THDPP4ItemjP5Field
0826f2b0 T _ZN7sp_head21recursion_level_errorEv
0826f320 T _ZN7sp_head19create_result_fieldEjPKcP8st_table
0826f3a0 T _ZN7sp_head7destroyEv
0826f490 T _ZN7sp_headD0Ev
0826f530 T _ZN7sp_headD1Ev
0826f5a0 T _ZN7sp_headD2Ev
0826f610 T _ZN7sp_head6createEP3THD
0826f640 T _ZN7sp_head4initEP6st_lex
0826f760 T _ZN7sp_headC1Ev
0826f890 T _ZN7sp_headC2Ev
0826f9c0 T _ZN7sp_name10init_qnameEP3THD
0826fa50 T _ZN7sp_head12init_stringsEP3THDP6st_lexP7sp_name
0826fc60 T _Z22sp_name_current_db_newP3THD13st_lex_string
0826fd60 W _ZN8sp_instr9backpatchEjP11sp_pcontext
0826fd70 W _ZN8sp_instr8opt_markEP7sp_head
0826fd90 W _ZN8sp_instr17opt_shortcut_jumpEP7sp_headPS_
0826fda0 W _ZN8sp_instr8opt_moveEjP4ListIS_E
0826fdb0 W _ZN13sp_instr_jump9backpatchEjP11sp_pcontext
0826fdd0 W _ZN16sp_instr_jump_if17opt_shortcut_jumpEP7sp_headP8sp_instr
0826fde0 W _ZN20sp_instr_jump_if_not17opt_shortcut_jumpEP7sp_headP8sp_instr
0826fdf0 W _ZN16sp_instr_freturn8opt_markEP7sp_head
0826fe10 W _ZN19sp_instr_hpush_jump17opt_shortcut_jumpEP7sp_headP8sp_instr
0826fe20 W _ZN13sp_instr_hpop8opt_markEP7sp_head
0826fe40 W _ZN14sp_instr_cpush12cleanup_stmtEv
0826fe50 W _ZN13sp_instr_cpop8opt_markEP7sp_head
0826fe70 W _ZN14sp_instr_error8opt_markEP7sp_head
0826fe90 W _ZN14sp_instr_errorD0Ev
0826fec0 W _ZN14sp_instr_errorD1Ev
0826fef0 W _ZN15sp_instr_cfetchD0Ev
0826ff20 W _ZN15sp_instr_cfetchD1Ev
0826ff50 W _ZN15sp_instr_ccloseD0Ev
0826ff80 W _ZN15sp_instr_ccloseD1Ev
0826ffb0 W _ZN14sp_instr_copenD0Ev
0826ffe0 W _ZN14sp_instr_copenD1Ev
08270010 W _ZN13sp_instr_cpopD0Ev
08270040 W _ZN13sp_instr_cpopD1Ev
08270070 W _ZN16sp_instr_hreturnD0Ev
082700a0 W _ZN16sp_instr_hreturnD1Ev
082700d0 W _ZN19sp_instr_hpush_jumpD0Ev
08270110 W _ZN19sp_instr_hpush_jumpD1Ev
08270150 W _ZN13sp_instr_hpopD0Ev
08270180 W _ZN13sp_instr_hpopD1Ev
082701b0 W _ZN13sp_instr_jumpD0Ev
082701e0 W _ZN13sp_instr_jumpD1Ev
08270210 W _ZN8sp_instrD0Ev
08270240 W _ZN8sp_instrD1Ev
08270270 W _ZN22sp_instr_set_case_exprD0Ev
082702e0 W _ZN22sp_instr_set_case_exprD1Ev
08270350 W _ZN14sp_instr_cpushD0Ev
082703c0 W _ZN14sp_instr_cpushD1Ev
08270430 W _ZN16sp_instr_freturnD0Ev
082704a0 W _ZN16sp_instr_freturnD1Ev
08270510 W _ZN20sp_instr_jump_if_notD0Ev
08270580 W _ZN20sp_instr_jump_if_notD1Ev
082705f0 W _ZN16sp_instr_jump_ifD0Ev
08270660 W _ZN16sp_instr_jump_ifD1Ev
082706d0 W _ZN26sp_instr_set_trigger_fieldD0Ev
08270740 W _ZN26sp_instr_set_trigger_fieldD1Ev
082707b0 W _ZN12sp_instr_setD0Ev
08270820 W _ZN12sp_instr_setD1Ev
08270890 W _ZN13sp_instr_stmtD0Ev
08270900 W _ZN13sp_instr_stmtD1Ev
08270970 T _Z13sp_cond_checkP13st_lex_string
082709c0 T _ZN11sp_pcontext11pop_contextEv
08270a00 T _ZN11sp_pcontext13diff_handlersEPS_
08270a40 T _ZN11sp_pcontext12diff_cursorsEPS_
08270a90 T _ZN11sp_pcontext10find_labelEPc
08270b30 T _ZN11sp_pcontext11find_cursorEjP13st_lex_string
08270bb0 T _ZN11sp_pcontext11find_cursorEP13st_lex_stringPjc
08270c90 T _ZN11sp_pcontext9find_condEP13st_lex_stringc
08270d60 T _ZN11sp_pcontext9find_pvarEj
08270dc0 T _ZN11sp_pcontext9find_pvarEP13st_lex_stringc
08270e90 T _ZN11sp_pcontext26retrieve_field_definitionsEP4ListI12create_fieldE
08270f60 T _ZN11sp_pcontext10push_labelEPcj
08270fe0 T _ZN11sp_pcontext11push_cursorEP13st_lex_string
08271040 T _ZN11sp_pcontext9push_condEP13st_lex_stringP12sp_cond_type
08271090 T _ZN11sp_pcontext9push_pvarEP13st_lex_string16enum_field_types15sp_param_mode_t
08271100 T _ZN11sp_pcontext12find_handlerEP12sp_cond_type
082711a0 T _ZN11sp_pcontext7destroyEv
08271270 T _ZN11sp_pcontextC1EPS_
08271410 T _ZN11sp_pcontext12push_contextEv
08271480 T _ZN11sp_pcontextC2EPS_
08271620 T _ZN11sp_rcontextC2EP11sp_pcontextP5FieldPS_
08271680 T _ZN11sp_rcontextC1EP11sp_pcontextP5FieldPS_
082716e0 T _ZN11sp_rcontext11pop_cursorsEj
08271730 T _ZN11sp_rcontext8get_itemEj
08271750 T _ZN11sp_rcontext13get_item_addrEj
08271770 T _ZN9sp_cursor7destroyEv
082717b0 T _ZN11sp_rcontext13get_case_exprEi
082717d0 T _ZN11sp_rcontext18get_case_expr_addrEi
082717f0 T _ZN24Select_fetch_into_spvars7prepareER4ListI4ItemEP18st_select_lex_unit
08271810 T _ZN11sp_rcontext23create_case_expr_holderEP3THD11Item_result
08271880 T _ZN11sp_rcontext13set_case_exprEP3THDiP4Item
08271930 T _ZN9sp_cursor5fetchEP3THDP4ListI7sp_pvarE
08271a00 T _ZN9sp_cursor5closeEP3THD
08271a50 T _ZN9sp_cursor4openEP3THD
08271ac0 T _ZN9sp_cursorC1EP13sp_lex_keeperP14sp_instr_cpush
08271b10 T _ZN9sp_cursorC2EP13sp_lex_keeperP14sp_instr_cpush
08271b60 T _ZN11sp_rcontext12set_variableEP3THDP5FieldP4Item
08271ba0 T _ZN11sp_rcontext12set_variableEP3THDjP4Item
08271bc0 T _ZN24Select_fetch_into_spvars9send_dataER4ListI4ItemE
08271c70 T _ZN11sp_rcontext16set_return_valueEP3THDP4Item
08271ca0 T _ZN11sp_rcontext11push_cursorEP13sp_lex_keeperP14sp_instr_cpush
08271d00 T _ZN11sp_rcontext12find_handlerEjN11MYSQL_ERROR18enum_warning_levelE
08271ec0 T _ZN11sp_rcontext14init_var_itemsEv
08271f60 T _ZN11sp_rcontext14init_var_tableEP3THD
08271fe0 T _ZN11sp_rcontext4initEP3THD
08272120 T _ZN11sp_rcontextD1Ev
08272150 T _ZN11sp_rcontextD2Ev
08272180 W _ZN24Select_fetch_into_spvarsD0Ev
08272190 W _ZN24Select_fetch_into_spvarsD1Ev
082721a0 W _ZN24Select_fetch_into_spvars8send_eofEv
082721b0 W _ZN9sp_cursorD0Ev
082721e0 W _ZN9sp_cursorD1Ev
08272210 T sp_sroutine_key
08272230 T _Z22sp_get_prelocking_infoP3THDPbS1_
08272270 T _Z13sp_use_new_dbP3THDPcS1_jbPb
08272340 t _Z16add_used_routineP6st_lexP11Query_arenaPK13st_lex_stringP13st_table_list
08272410 T _Z19sp_add_used_routineP6st_lexP11Query_arenaP7sp_namec
08272460 t _Z28sp_update_stmt_used_routinesP3THDP6st_lexP7st_hashP13st_table_list
082724c0 T _Z26sp_update_sp_used_routinesP7st_hashS0_
08272530 t _Z19db_find_routine_auxP3THDiP7sp_nameP8st_table
08272630 t _Z15db_load_routineP3THDiP7sp_namePP7sp_headmPKcS7_S7_R14st_sp_chisticsS7_xx
08272d10 T _Z26sp_remove_not_own_routinesP6st_lex
08272d70 t _Z26open_proc_table_for_updateP3THD
08272e00 t _Z15db_drop_routineP3THDiP7sp_name
08272e80 t _Z18print_field_valuesP3THDP8st_tableP13st_used_fieldiPKc
08273200 t _Z22db_show_routine_statusP3THDiPKc
08273750 T _Z23sp_show_status_functionP3THDPKc
08273770 T _Z24sp_show_status_procedureP3THDPKc
08273790 T _Z16sp_drop_functionP3THDP7sp_name
082737c0 T _Z17sp_drop_procedureP3THDP7sp_name
082737f0 T _Z19sp_drop_db_routinesP3THDPc
08273950 t _Z17db_update_routineP3THDiP7sp_nameP14st_sp_chistics
08273ac0 T _Z18sp_update_functionP3THDP7sp_nameP14st_sp_chistics
08273b00 T _Z19sp_update_procedureP3THDP7sp_nameP14st_sp_chistics
08273b40 t _Z15sp_returns_typeP3THDR6StringP7sp_head
08273bd0 t _Z17db_create_routineP3THDiP7sp_head
08274260 T _Z18sp_create_functionP3THDP7sp_head
08274280 T _Z19sp_create_procedureP3THDP7sp_head
082742a0 T _Z16close_proc_tableP3THDP17Open_tables_state
082742e0 T _Z24open_proc_table_for_readP3THDP17Open_tables_state
08274400 t _Z15db_find_routineP3THDiP7sp_namePP7sp_head
08274830 t _Z36sp_cache_routines_and_add_tables_auxP3THDP6st_lexP19Sroutine_hash_entrybPb
08274ae0 T _Z45sp_cache_routines_and_add_tables_for_triggersP3THDP6st_lexP13st_table_list
08274bd0 T _Z41sp_cache_routines_and_add_tables_for_viewP3THDP6st_lexP13st_table_list
08274c60 T _Z32sp_cache_routines_and_add_tablesP3THDP6st_lexbPb
08274c90 T _Z15sp_find_routineP3THDiP7sp_namePP8sp_cacheb
08274f20 T _Z23sp_show_create_functionP3THDP7sp_name
08274f80 T _Z24sp_show_create_procedureP3THDP7sp_name
08274fe0 T _Z17sp_exists_routineP3THDP13st_table_listbb
082751a0 T _Z19sp_cache_invalidatev
082751b0 t _Z24hash_get_key_for_sp_headPKcPjc
082751d0 t _Z17hash_free_sp_headPv
082751f0 T _ZN8sp_cache7cleanupEv
08275200 T _ZN8sp_cacheD1Ev
08275210 T _ZN8sp_cacheD2Ev
08275220 T _ZN8sp_cache4initEv
08275280 T _ZN8sp_cacheC1Ev
08275290 T _ZN8sp_cacheC2Ev
082752a0 T _Z23sp_cache_flush_obsoletePP8sp_cache
082752f0 T _Z15sp_cache_lookupPP8sp_cacheP7sp_name
08275320 T _Z15sp_cache_insertPP8sp_cacheP7sp_head
08275380 T _Z14sp_cache_clearPP8sp_cache
082753c0 T _Z13sp_cache_initv
082753e0 T _Z19read_escaped_stringPcS_P13st_lex_string
08275480 T _ZN22File_parser_dummy_hook22process_unknown_stringERPcS0_P11st_mem_rootS0_
08275490 T _Z24get_file_options_ulllistRPcS_S_S_P11File_optionP11st_mem_root
082755b0 T _ZN11File_parser5parseEPcP11st_mem_rootP11File_optionjP16Unknown_key_hook
08275b90 T _Z17sql_parse_preparePK13st_lex_stringP11st_mem_rootb
08275da0 T _Z21rename_in_schema_filePKcS0_S0_yj
08276080 t _Z20write_escaped_stringP11st_io_cacheP13st_lex_string
08276150 T _Z26sql_create_definition_filePK13st_lex_stringS1_S1_PcP11File_optionj
082769e0 T _ZN19Table_triggers_listD2Ev
08276a50 T _ZN19Table_triggers_listD1Ev
08276ac0 T _ZN19Table_triggers_list9set_tableEP8st_table
08276b00 T _ZN35Handle_old_incorrect_sql_modes_hook22process_unknown_stringERPcS0_P11st_mem_rootS0_
08276c00 T _ZN19Table_triggers_list16process_triggersEP3THD14trg_event_type20trg_action_time_typeb
08276e10 t _Z16rm_trigname_filePcS_S_
08276e90 t _Z15rm_trigger_filePcS_S_
08276f10 T _ZN19Table_triggers_list16get_trigger_infoEP3THD14trg_event_type20trg_action_time_typeP13st_lex_stringS5_PmS5_
08276fc0 T _ZN19Table_triggers_list25prepare_record1_accessorsEP8st_table
08277070 T _ZN19Table_triggers_list12check_n_loadEP3THDPKcS3_P8st_tableb
08277940 T _ZN19Table_triggers_list17drop_all_triggersEP3THDPcS2_
08277a80 T _ZN19Table_triggers_list12drop_triggerEP3THDP13st_table_list
08277de0 T _ZN19Table_triggers_list14create_triggerEP3THDP13st_table_listP13st_lex_stringS5_
08278390 T _Z28mysql_create_or_drop_triggerP3THDP13st_table_listb
08278a00 t _Z15archive_get_keyP16st_archive_sharePjc
08278a20 T _ZNK10ha_archive7bas_extEv
08278a30 T _ZN10ha_archive6repairEP3THDP15st_ha_check_opt
08278a80 T _ZN10ha_archive10store_lockEP3THDPP16st_thr_lock_data13thr_lock_type
08278b20 T _ZN10ha_archive17start_bulk_insertEy
08278b30 T _ZN10ha_archive15end_bulk_insertEv
08278b50 T _ZN10ha_archive15delete_all_rowsEv
08278b60 T _ZNK10ha_archive10is_crashedEv
08278b80 T _ZN10ha_archive16check_and_repairEP3THD
08278c00 T _ZN10ha_archive4infoEj
08278d20 T _ZN10ha_archive8positionEPKc
08278d60 T _ZN10ha_archive7get_rowEPvPc
08278ee0 T _ZN10ha_archive7rnd_posEPcS0_
08278f50 T _ZN10ha_archive8rnd_nextEPc
08278ff0 T _ZN10ha_archive14real_write_rowEPcPv
082790e0 T _ZN10ha_archive9write_rowEPc
08279190 T _ZN10ha_archive17write_data_headerEPv
082791e0 T _ZN10ha_archive16read_data_headerEPv
08279250 T _ZN10ha_archive5checkEP3THDP15st_ha_check_opt
08279360 T _ZN10ha_archive8optimizeEP3THDP15st_ha_check_opt
082795c0 T _ZN10ha_archive8rnd_initEb
08279690 T _ZN10ha_archive15write_meta_fileEiyb
08279730 T _ZN10ha_archive6createEPKcP8st_tableP24st_ha_create_information
082798f0 T _ZN10ha_archive10free_shareEP16st_archive_share
082799e0 T _ZN10ha_archive5closeEv
08279a50 T _ZN10ha_archive14read_meta_fileEiPy
08279af0 T _ZN10ha_archive9get_shareEPKcP8st_table
08279d80 T _ZN10ha_archive4openEPKcij
08279e30 T _ZN10ha_archiveC1EP8st_table
08279f80 T _ZN10ha_archiveC2EP8st_table
0827a0d0 T _Z14archive_db_endv
0827a120 T _Z15archive_db_initv
0827a1c0 W _ZNK10ha_archive10table_typeEv
0827a1d0 W _ZN10ha_archive10index_typeEj
0827a1e0 W _ZNK10ha_archive11table_flagsEv
0827a1f0 W _ZNK10ha_archive11index_flagsEjjb
0827a200 W _ZNK10ha_archive11auto_repairEv
0827a210 W _ZNK10ha_archive12get_row_typeEv
0827a220 W _ZN10ha_archiveD0Ev
0827a290 W _ZN10ha_archiveD1Ev
0827a300 T srv_release_mysql_thread_if_suspended
0827a350 t srv_table_get_nth_slot
0827a3d0 T srv_set_io_thread_op_info
0827a450 T srv_release_threads
0827a500 T srv_master_thread
0827b3b0 T srv_wake_master_thread
0827b4c0 T srv_active_wake_master_thread
0827b5d0 T srv_get_thread_type
0827b6d0 T srv_get_n_threads
0827b7e0 T srv_error_monitor_thread
0827bbc0 T srv_export_innodb_status
0827bef0 T srv_printf_innodb_monitor
0827c5a0 T srv_lock_timeout_and_monitor_thread
0827cb50 T srv_conc_force_exit_innodb
0827cc10 T srv_conc_exit_innodb
0827cc30 T srv_conc_force_enter_innodb
0827cc80 T srv_suspend_mysql_thread
0827d2e0 T srv_conc_enter_innodb
0827d600 T srv_general_init
0827d630 T srv_free
0827d650 t mem_alloc_func
0827d770 T srv_init
0827dd30 T srv_boot
0827ddd0 T srv_normalize_path_for_win
0827dde0 t srv_calc_low32
0827ddf0 t srv_calc_high32
0827de00 T innobase_shutdown_for_mysql
0827e1b0 t io_handler_thread
0827e2f0 T srv_parse_log_group_home_dirs
0827e410 T srv_add_path_separator_if_needed
0827e490 t open_or_create_log_file
0827ea00 T innobase_start_or_create_for_mysql
08280200 T srv_parse_data_file_paths_and_sizes
082806f0 T dict_hdr_get
08280750 T dict_boot
082815a0 T dict_create
08281b10 T dict_hdr_flush_row_id
08281ba0 T dict_hdr_get_new_id
08281c80 T dict_create_add_foreigns_to_dictionary
08282800 T dict_create_or_check_foreign_constraint_tables
08282dd0 T dict_create_index_step
08283e60 T dict_create_table_step
08284d50 T ind_create_graph_create
08284e70 T tab_create_graph_create
08284f90 T dict_drop_index_tree
082850f0 T dict_truncate_index_tree
082854a0 T dict_table_get_nth_col_noninline
082854c0 T dict_table_get_first_index_noninline
082854d0 T dict_table_get_next_index_noninline
082854e0 T dict_table_autoinc_peek
08285510 T dict_index_get_nth_col_pos
08285580 T dict_index_contains_col_or_prefix
082855f0 T dict_index_get_nth_field_pos
08285660 T dict_table_get_nth_col_pos
08285680 T dict_table_col_in_clustered_key
082856d0 T dict_index_find_on_id_low
08285740 T dict_table_copy_types
082857a0 T dict_table_referenced_by_foreign_key
082857c0 T dict_tree_find_index_for_tuple
082859a0 T dict_index_name_print
08285a30 T dict_tree_check_search_tuple
08285ac0 T dict_table_change_id_in_cache
08285c30 T dict_tables_have_same_db
08285cd0 T dict_mutex_enter_for_mysql
08285d80 T dict_index_get_if_in_cache
08285ee0 T dict_table_autoinc_update
08286040 T dict_table_autoinc_read
08286180 T dict_table_autoinc_decrement
08286290 T dict_table_autoinc_get
082863e0 T dict_table_autoinc_initialize
08286510 T dict_table_decrement_handle_count
08286670 T dict_mutex_exit_for_mysql
082866b0 t dict_remove_db_name
08286740 T dict_get_db_name_len
082867d0 T dict_print_info_on_foreign_key_in_create_format
08286b60 T dict_print_info_on_foreign_keys
08286f30 t dict_foreign_print_low
08287010 t dict_foreign_find
08287090 T dict_table_get_index_noninline
082870e0 T dict_update_statistics_low
082871f0 T dict_table_print_low
08287460 T dict_table_print_by_name
08287650 T dict_table_print
08287750 T dict_update_statistics
08287770 T dict_table_get_and_increment_handle_count
08287930 T dict_table_get
08287ad0 t dtype_get_fixed_size
08287bb0 T dict_index_calc_min_rec_len
08287cc0 t dict_tree_find_index_low
08287ed0 T dict_tree_find_index
08287ee0 T dict_tree_copy_rec_order_prefix
08287fd0 T dict_index_copy_types
082880c0 T dict_tree_build_data_tuple
08288180 T dict_tree_build_node_ptr
08288440 T dict_is_mixed_table_rec
082884c0 T dict_tree_free
08288580 t dict_foreign_free
082885d0 t dict_foreign_remove_from_cache
082887b0 T dict_tree_create
08288950 t dict_foreign_error_report_low
08288990 t dict_foreign_report_syntax_err
08288ad0 t dict_foreign_error_report
08288cb0 t dict_strip_comments
08288f50 t dict_scan_id
08289250 t dict_scan_table_name
082894a0 T dict_casedn_str
082894b0 t dict_scan_col
08289570 t dict_foreign_find_index
08289630 T dict_foreign_add_to_cache
08289af0 T dict_scan_to
08289be0 T dict_accept
08289c60 T dict_foreign_parse_drop_constraints
0828a260 T dict_create_foreign_constraints
0828bb90 T dict_index_add_col
0828bc60 t dict_index_copy
0828bcc0 T dict_index_add_to_cache
0828c4f0 T dict_table_remove_from_cache
0828cbc0 T dict_table_LRU_trim
0828cc70 T dict_table_rename_in_cache
0828d790 T dict_table_add_to_cache
0828df20 T dict_init
0828e1e0 T dict_table_get_on_id
0828e420 t btr_pcur_move_to_next_user_rec
0828e730 t dict_load_report_deleted_index
0828e7b0 T dict_load_table
0828fd00 T dict_load_foreigns
082915a0 t dict_load_indexes
08292880 T dict_load_sys_table
08292930 T dict_get_first_table_name_in_db
08293060 T dict_load_table_on_id
082936d0 T dict_check_tablespaces_and_store_max_id
08293e90 T dict_print
08294780 T dict_mem_table_make_cluster_member
082947a0 T dict_mem_index_add_field
082947d0 T dict_mem_index_free
08294820 T dict_mem_foreign_create
08294900 T dict_mem_index_create
08294a40 T dict_mem_table_add_col
08294b10 T dict_mem_table_create
08294dd0 T dict_mem_cluster_create
08294e10 T que_graph_publish
08294e50 T que_thr_handle_error
08294e60 t que_thr_move_to_run_state
08294e90 T que_fork_start_command
08294f30 T que_thr_stop
08295030 T que_node_print_info
08295160 T que_thr_stop_for_mysql
082952a0 T que_fork_error_handle
08295350 T que_thr_end_wait
08295410 T que_run_threads
08295c60 T que_thr_stop_for_mysql_no_error
08295d00 T que_thr_move_to_run_state_for_mysql
08295da0 T que_graph_free_recursive
082961d0 T que_graph_free
08296250 T que_graph_try_free
08296350 t que_graph_free_stat_list
08296380 T que_thr_end_wait_no_next_thr
08296410 T que_thr_create
082964d0 T que_fork_create
08296580 T srv_que_round_robin
082966a0 T srv_que_task_enqueue_low
082966f0 T srv_que_task_enqueue
08296850 T srv_que_task_queue_check
08296a50 T ibuf_count_get
08296a80 t ibuf_index_page_calc_free
08296b20 T ibuf_validate_low
08296bb0 T ibuf_print
08296d80 T ibuf_inside
08296d90 t ibuf_bitmap_get_map_page
08296de0 T ibuf_page_low
08296e40 T ibuf_page
08296f10 t ibuf_header_page_get
08296fd0 t ibuf_tree_root_get
08297120 T ibuf_is_empty
082973c0 t ibuf_new_search_tuple_build
08297670 t ibuf_rec_get_space
08297890 t ibuf_rec_get_page_no
08297ac0 t page_rec_get_next
08297c40 t dtype_get_fixed_size
08297d20 t ibuf_data_sizes_update
08297da0 t ibuf_delete_rec
08298390 T ibuf_delete_for_discarded_space
082987d0 t ibuf_bitmap_page_set_bits
08298880 t ibuf_set_free_bits_low
08298c00 T ibuf_update_free_bits_for_two_pages_low
08298d40 T ibuf_update_free_bits_low
08298dc0 T ibuf_set_free_bits
08299190 T ibuf_reset_free_bits
082991c0 T ibuf_reset_free_bits_with_type
082991f0 t dtype_new_read_for_order_and_null_size
08299350 t ibuf_dummy_index_create
082993c0 t ibuf_build_entry_from_ibuf_rec
08299ba0 t ibuf_dummy_index_free
08299c40 T ibuf_merge_or_delete_for_page
0829b300 t ibuf_rec_get_volume
0829b890 t page_rec_get_prev
0829ba60 t ibuf_get_merge_page_nos
0829bd40 T ibuf_get_volume_buffered
0829c110 T ibuf_update_max_tablespace_id
0829c360 t ibuf_contract_ext
0829c890 T ibuf_contract_for_n_pages
0829c8f0 T ibuf_contract
0829c910 t ibuf_insert_low
0829e140 T ibuf_insert
0829e3a0 T ibuf_free_excess_pages
0829ebb0 T ibuf_bitmap_page_init
0829ebf0 T ibuf_parse_bitmap_init
0829ec20 T ibuf_data_init_for_space
0829f2b0 T ibuf_init_at_db_start
0829f4c0 t row_ins_set_exclusive_rec_lock
0829f550 t row_ins_set_shared_rec_lock
0829f5e0 t row_ins_dupl_error_with_rec
0829f690 t page_rec_get_next
0829f810 t btr_pcur_move_to_next
0829f950 T row_ins_index_entry_low
082a0930 t row_ins_set_detailed
082a0ac0 T ins_node_create
082a0bb0 t row_ins_foreign_report_err
082a0f00 t row_ins_foreign_check_on_constraint
082a2490 t row_ins_foreign_report_add_err
082a2980 T row_ins_check_foreign_constraint
082a3310 T row_ins_index_entry
082a36b0 T row_ins
082a3a30 T row_ins_step
082a3bb0 T ins_node_set_new_row
082a4050 T row_table_got_default_clust_index
082a4070 T row_get_background_drop_list_len_low
082a40b0 T row_get_mysql_key_number_for_index
082a41c0 T row_mysql_read_true_varchar
082a4270 T row_mysql_store_true_var_len
082a43f0 t mem_alloc_func
082a4520 T row_mysql_prebuilt_free_blob_heap
082a4580 T row_check_table_for_mysql
082a4e90 T row_mysql_read_blob_ref
082a4ef0 T row_mysql_store_col_in_innobase_format
082a51c0 t row_mysql_is_system_table
082a5270 t row_is_mysql_tmp_table_name
082a52a0 t row_mysql_is_recovered_tmp_table
082a52f0 t row_add_table_to_background_drop_list
082a54f0 t row_mysql_delay_if_needed
082a5510 T row_mysql_unlock_data_dictionary
082a5710 T row_mysql_unfreeze_data_dictionary
082a58e0 T row_mysql_lock_data_dictionary
082a5a50 T row_rename_table_for_mysql
082a6900 T row_truncate_table_for_mysql
082a7750 T row_import_tablespace_for_mysql
082a7c60 T row_discard_tablespace_for_mysql
082a82c0 T row_mysql_freeze_data_dictionary
082a84e0 T row_update_cascade_for_mysql
082a8620 T row_unlock_for_mysql
082a89c0 T row_update_prebuilt_trx
082a8b00 T row_create_update_node_for_mysql
082a8c80 T row_get_prebuilt_update_vector
082a8cf0 T row_create_prebuilt
082a8fd0 T row_prebuild_sel_graph
082a9020 t row_get_prebuilt_insert_row
082a91e0 T row_unlock_table_autoinc_for_mysql
082a9200 T row_prebuilt_free
082a9600 T row_mysql_handle_errors
082a9840 T row_drop_table_for_mysql
082aa590 T row_drop_database_for_mysql
082aaab0 T row_drop_tables_for_mysql_in_background
082ab000 T row_table_add_foreign_constraints
082ab150 T row_create_index_for_mysql
082ab490 T row_create_table_for_mysql
082abb10 T row_update_for_mysql
082abed0 T row_insert_for_mysql
082ac2a0 T row_lock_table_for_mysql
082ac3c0 T row_lock_table_autoinc_for_mysql
082ac4d0 T row_mysql_store_blob_ref
082ac6a0 T row_purge_node_create
082ac760 t row_purge_reposition_pcur
082ac800 t row_purge_remove_sec_if_poss_low
082acd20 t row_purge_remove_clust_if_poss_low
082ad170 T row_purge_step
082ade50 T row_search_index_entry
082adef0 T row_search_on_row_ref
082ae020 T row_build_row_ref_from_row
082ae100 T row_build_row_ref_in_tuple
082ae4e0 T row_build_index_entry
082ae660 T row_build_row_ref
082ae9d0 T row_get_clust_rec
082aeb30 T row_rec_to_index_entry
082aee20 T row_build
082af110 T row_set_rec_sys_field
082af220 T row_get_rec_sys_field
082af380 t sel_pop_prefetched_row
082af410 T row_search_check_if_query_cache_permitted
082af5d0 t rw_lock_s_lock_func
082af730 t rw_lock_s_unlock_func
082af860 T sel_col_prefetch_buf_free
082af8e0 T sel_node_free_private
082afaa0 t row_sel_build_prev_vers_for_mysql
082afbd0 t row_sel_build_prev_vers
082afd00 t row_sel_sec_rec_is_for_clust_rec
082afff0 T sel_node_create
082b0060 t row_sel_store_mysql_rec
082b0ac0 t btr_pcur_move_to_next
082b0d90 t sel_restore_position_for_mysql
082b0e80 T row_search_for_mysql
082b38a0 T row_sel_convert_mysql_key_to_innobase
082b3d60 T row_printf_step
082b3e20 T fetch_step
082b3f40 t row_sel_fetch_columns
082b4020 t row_sel_open_pcur
082b4200 T row_sel_step
082b5f20 T row_undo_step
082b65e0 T row_undo_search_clust_to_pcur
082b6950 T row_undo_node_create
082b6a30 T row_upd_changes_some_index_ord_field_binary
082b6a80 T row_upd_rec_sys_fields_in_recovery
082b6b70 T row_upd_in_place_in_select
082b6df0 t row_upd_index_is_referenced
082b6ea0 T row_upd_changes_ord_field_binary
082b6f90 t row_upd_check_references_constraints
082b7690 t row_upd_store_row
082b78b0 T upd_node_create
082b79d0 t row_upd_clust_rec
082b7da0 T row_upd_index_replace_new_col_vals
082b7f80 T row_upd_index_replace_new_col_vals_index_pos
082b8150 T row_upd_write_sys_vals_to_log
082b8390 T row_upd_index_entry_sys_field
082b8490 T row_upd_step
082b9650 T row_upd_build_difference_binary
082b9b10 T row_upd_build_sec_rec_difference_binary
082b9e70 T row_upd_index_parse
082ba0c0 T row_upd_index_write_log
082ba5b0 T row_upd_parse_sys_vals
082ba680 T row_upd_rec_in_place
082ba790 T row_upd_changes_field_size_or_external
082ba970 T row_vers_build_for_consistent_read
082bafa0 T row_vers_old_has_index_entry
082bb590 T row_vers_must_preserve_del_marked
082bb780 T row_vers_impl_x_locked_off_kernel
082bc520 t row_undo_ins_remove_sec_low
082bc750 T row_undo_ins
082bcde0 t row_undo_mod_clust_low
082bcea0 t row_undo_mod_del_mark_or_remove_sec_low
082bd290 t row_undo_mod_del_mark_or_remove_sec
082bd2f0 t row_undo_mod_del_unmark_sec_and_undo_update
082bd7d0 t row_undo_mod_remove_clust_low
082bd890 T row_undo_mod
082be640 T pars_cursor_declaration
082be670 t pars_set_parent_in_list
082be690 T pars_complete_graph_for_exec
082be700 T pars_stored_procedure_call
082be740 T pars_sql
082be870 T yyerror
082be8d0 T pars_get_lex_chars
082be950 T pars_procedure_definition
082bea20 T pars_row_printf_statement
082bea90 T pars_return_statement
082beae0 T pars_column_assignment
082beb40 T pars_order_by
082bec20 t pars_func_low
082bee10 T pars_op
082bee60 T pars_func
082bee80 T pars_create_index
082bef60 T pars_create_table
082bf030 t pars_set_dfield_type
082bf120 T pars_column_def
082bf140 T pars_variable_declaration
082bf170 T pars_parameter_declaration
082bf200 T pars_rollback_statement
082bf220 T pars_commit_statement
082bf240 t pars_resolve_exp_variables_and_types
082bfce0 T pars_open_statement
082bfdb0 t pars_resolve_exp_list_variables_and_types
082bfde0 T pars_fetch_statement
082bff80 T pars_procedure_call
082bffc0 T pars_assignment_statement
082c00a0 T pars_for_statement
082c01a0 T pars_while_statement
082c0220 T pars_if_statement
082c02f0 T pars_elsif_element
082c0360 t pars_resolve_exp_columns
082c0590 t pars_retrieve_table_def
082c0790 T pars_insert_statement
082c0ac0 T pars_update_statement_start
082c0af0 T pars_select_statement
082c0eb0 T pars_select_list
082c0ef0 T pars_update_statement
082c1770 T sym_tab_add_null_lit
082c1840 T sym_tab_create
082c18c0 T sym_tab_add_id
082c1a10 T sym_tab_add_str_lit
082c1bb0 T sym_tab_add_int_lit
082c1d40 T sym_tab_free_private
082c1dc0 T yyparse
082c3540 t yy_get_previous_state
082c3620 T yy_load_buffer_state
082c3660 T yy_switch_to_buffer
082c36c0 T yy_flush_buffer
082c3710 T yy_init_buffer
082c3740 t yy_flex_free
082c3750 T yy_delete_buffer
082c37a0 t yy_flex_alloc
082c37b0 t yy_fatal_error
082c3810 T yy_create_buffer
082c38a0 T yyrestart
082c3910 t string_append
082c39b0 T yylex
082c4430 t opt_is_arg
082c4460 t opt_invert_cmp_op
082c44e0 t opt_check_exp_determined_before
082c4600 t opt_look_for_col_in_comparison_before
082c47b0 t opt_look_for_col_in_cond_before
082c49f0 t opt_find_test_conds
082c4c50 T opt_print_query_plan
082c4f50 T opt_find_all_cols
082c5160 t opt_find_copy_cols
082c51f0 T opt_search_plan
082c6180 t page_rec_get_next
082c6300 T btr_page_get_split_rec_to_right
082c6420 T btr_page_get_split_rec_to_left
082c6550 t btr_validate_report1
082c6700 t btr_index_rec_validate_report
082c6880 t btr_page_get_father_for_rec
082c7590 t btr_page_get_father_node_ptr
082c75e0 t page_rec_get_prev
082c77b0 T btr_root_get
082c7880 T btr_get_next_user_rec
082c7b90 T btr_get_prev_user_rec
082c7ea0 t dtype_get_fixed_size
082c7f80 T btr_index_rec_validate
082c84a0 T btr_validate_tree
082ca9e0 T btr_check_node_ptr
082cacf0 t btr_level_list_remove
082cb040 t btr_page_empty
082cb130 T btr_node_ptr_delete
082cb210 T btr_set_min_rec_mark
082cb2f0 T btr_parse_set_min_rec_mark
082cb3c0 t btr_page_create
082cb4d0 t btr_page_insert_fits
082cb7b0 T btr_insert_on_non_leaf_level
082cb8a0 t btr_page_reorganize_low
082cbcf0 T btr_parse_page_reorganize
082cbd20 T btr_page_reorganize
082cbd40 T btr_free_root
082cbdc0 T btr_free_but_not_root
082cbf20 T btr_create
082cc350 T btr_page_free_low
082cc6c0 T btr_page_free
082cc700 t btr_discard_only_page_on_level
082cc9a0 T btr_discard_page
082cccc0 T btr_compress
082cd830 T btr_get_size
082cdb50 T btr_page_alloc
082cdd20 T btr_page_split_and_insert
082cf6c0 T btr_root_raise_and_insert
082cfbc0 T btr_cur_mark_dtuple_inherited_extern
082cfc60 T btr_cur_unmark_dtuple_extern_fields
082cfcb0 t btr_blob_get_part_len
082cfce0 T btr_push_update_extern_fields
082cfdb0 t btr_rec_get_externally_stored_len
082cfe60 T btr_cur_parse_del_mark_set_sec_rec
082cff70 T btr_copy_externally_stored_field
082d0310 T btr_rec_copy_externally_stored_field
082d03e0 t btr_cur_set_ownership_of_extern_field
082d0500 T btr_cur_mark_extern_inherited_fields
082d05a0 t btr_cur_unmark_extern_fields
082d0600 T btr_free_externally_stored_field
082d0d30 T btr_rec_free_externally_stored_fields
082d0dc0 t btr_cur_latch_leaves
082d1890 T btr_store_big_rec_extern_fields
082d2370 T btr_cur_optimistic_delete
082d28d0 T btr_cur_compress_if_useful
082d2b50 T btr_cur_pessimistic_delete
082d3440 T btr_cur_compress
082d3450 t btr_cur_del_mark_set_sec_rec_log
082d3870 T btr_cur_del_unmark_for_ibuf
082d3970 t rw_lock_x_unlock_func
082d3ab0 T btr_cur_del_mark_set_sec_rec
082d3c40 T btr_cur_del_mark_set_clust_rec
082d4240 T btr_cur_parse_del_mark_set_clust_rec
082d44b0 t dtype_get_fixed_size
082d4590 t page_rec_get_prev
082d48d0 t btr_cur_insert_if_possible
082d4a70 T btr_cur_update_in_place
082d5160 T btr_cur_optimistic_update
082d5da0 T btr_cur_parse_update_in_place
082d6050 T btr_cur_optimistic_insert
082d68c0 T btr_cur_pessimistic_insert
082d6db0 T btr_cur_pessimistic_update
082d7ed0 t rw_lock_s_lock_func
082d8030 T btr_cur_open_at_rnd_pos
082d8420 T btr_estimate_number_of_different_key_vals
082d8ed0 t btr_cur_add_path_info
082d9050 T btr_cur_open_at_index_side
082d99e0 T btr_cur_search_to_nth_level
082da6e0 T btr_estimate_n_rows_in_range
082dab30 t page_rec_get_prev
082dae70 T btr_pcur_release_leaf
082db0e0 T btr_pcur_move_to_next_page
082db640 T btr_pcur_open_on_user_rec
082dba20 T btr_pcur_free_for_mysql
082dbaf0 t mem_alloc_func
082dbc10 T btr_pcur_create_for_mysql
082dbc50 T btr_pcur_copy_stored_position
082dbd30 T btr_pcur_store_position
082dc240 T btr_pcur_restore_position
082dc9d0 T btr_pcur_move_backward_from_page
082dd030 T btr_pcur_move_to_prev
082dd170 t rec_fold
082dd320 t page_rec_get_next
082dd4a0 t rw_lock_x_unlock_func
082dd5e0 t rw_lock_s_unlock_func
082dd710 T btr_search_validate
082dde90 t btr_search_check_free_space_in_heap
082ddf10 T btr_search_update_hash_on_insert
082de4d0 T btr_search_update_hash_node_on_insert
082de6c0 T btr_search_update_hash_on_delete
082dea00 t rw_lock_s_lock_func
082deb60 t mem_alloc_func
082dec80 T btr_search_info_create
082ded30 T btr_search_drop_page_hash_index
082df1d0 t btr_search_build_page_hash_index
082df950 T btr_search_move_or_delete_hash_entries
082dfeb0 T btr_search_info_update_slow
082e0750 T btr_search_drop_page_hash_when_freed
082e0820 T btr_search_guess_on_hash
082e17a0 T btr_search_sys_create
082e1840 T trx_purge_update_undo_must_exist
082e1920 T trx_purge_sys_print
082e1a10 T trx_purge
082e20c0 T trx_purge_rec_release
082e21f0 t trx_purge_choose_next_log
082e2990 t trx_purge_rseg_get_next_history_log
082e3070 t trx_purge_truncate_history
082e3f10 T trx_purge_fetch_next_rec
082e4ba0 T trx_purge_add_update_undo_to_history
082e4ef0 T trx_purge_sys_create
082e52c0 T trx_undo_rec_get_pars
082e5860 t trx_undo_rec_get_col_val
082e5990 T trx_undo_update_rec_get_sys_cols
082e5c70 T trx_undo_rec_skip_row_ref
082e5d10 T trx_undo_parse_add_undo_rec
082e5de0 T trx_undo_get_undo_rec_low
082e5fc0 T trx_undo_get_undo_rec
082e6030 t trx_undof_page_add_undo_rec_log
082e64e0 t trx_undo_erase_page_end
082e6540 T trx_undo_parse_erase_page_end
082e6560 T trx_undo_report_row_operation
082e8b70 T trx_undo_rec_get_partial_row
082e8d60 T trx_undo_update_rec_get_update
082e95e0 T trx_undo_prev_version_build
082e9fb0 T trx_undo_rec_get_row_ref
082ea100 T trx_savept_take
082ea120 t trx_undo_arr_store_info
082ea1d0 T trx_rollback_step
082ea360 T trx_undo_rec_release
082ea4b0 T trx_undo_rec_reserve
082ea5e0 T roll_node_create
082ea640 T trx_finish_rollback_off_kernel
082ea790 T trx_roll_graph_build
082ea850 T trx_undo_arr_create
082ea960 T trx_rollback
082eab00 T trx_roll_try_truncate
082eac20 T trx_roll_pop_top_rec_of_trx
082eba30 T trx_undo_arr_free
082eba80 T trx_roll_savepoints_free
082ebc40 T trx_rollback_or_clean_all_without_sess
082ec730 T trx_release_savepoint_for_mysql
082ec8c0 T trx_savepoint_for_mysql
082ece50 T trx_general_rollback_for_mysql
082ed240 T trx_rollback_to_savepoint_for_mysql
082ed360 T trx_rollback_last_sql_stat_for_mysql
082ed3c0 T trx_rollback_for_mysql
082ed400 T trx_rseg_get_on_id
082ed430 t trx_rseg_mem_create
082ed7a0 T trx_rseg_list_and_array_init
082ed850 T trx_rseg_header_create
082edbd0 T trx_rseg_create
082eddc0 T trx_doublewrite_page_inside
082ede10 T trx_in_trx_list
082ede50 T trx_sys_print_mysql_binlog_offset_from_page
082edf30 T trx_sys_flush_max_trx_id
082edff0 t mem_alloc_func
082ee110 T trx_sys_init_at_db_start
082ee4f0 T trx_sys_create
082eea20 T trx_sysf_rseg_find_free
082eeac0 T trx_sys_print_mysql_master_log_pos
082eecb0 T trx_sys_print_mysql_binlog_offset
082eee70 T trx_sys_update_mysql_binlog_offset
082ef000 t trx_doublewrite_init
082ef100 T trx_sys_doublewrite_init_or_restore_pages
082ef600 T trx_sys_create_doublewrite_buf
082efaa0 T trx_sys_mark_upgraded_to_multiple_tablespaces
082efb90 T trx_get_error_info
082efba0 t trx_list_insert_ordered
082efca0 T trx_mark_sql_stat_end
082efd70 t trx_sig_reply_wait_to_suspended
082efe50 T trx_get_trx_by_xid
082effb0 T trx_recover_for_mysql
082f0200 T trx_prepare_off_kernel
082f0640 T trx_commit_complete_for_mysql
082f0790 T trx_print
082f0c70 T commit_node_create
082f0cd0 T trx_sig_remove
082f0de0 T trx_sig_reply
082f0ed0 T trx_end_signal_handling
082f0f10 t mem_alloc_func
082f1040 T trx_end_lock_wait
082f1120 T trx_assign_read_view
082f1260 T trx_cleanup_at_db_startup
082f1390 T trx_commit_off_kernel
082f1c60 T trx_start_low
082f1dd0 T trx_sig_start_handle
082f20a0 T trx_sig_send
082f2330 T trx_commit_step
082f24d0 T trx_start
082f25d0 T trx_prepare_for_mysql
082f2780 T trx_commit_for_mysql
082f2930 T trx_start_if_not_started_noninline
082f2960 T trx_free
082f31c0 T trx_free_for_background
082f32c0 T trx_free_for_mysql
082f3500 T trx_search_latch_release_if_reserved
082f3660 T trx_create
082f39f0 T trx_lists_init_at_db_start
082f3dc0 T trx_allocate_for_background
082f3ed0 T trx_allocate_for_mysql
082f4050 T trx_set_detailed_error_from_file
082f4080 T trx_set_detailed_error
082f40b0 t trx_undo_header_add_space_for_xid
082f41b0 t trx_undo_mem_free
082f4270 T trx_undo_insert_cleanup
082f4910 T trx_undo_update_cleanup
082f4a80 T trx_undo_set_state_at_finish
082f4bc0 T trx_undo_set_state_at_prepare
082f4da0 T trx_undo_parse_discard_latest
082f4e60 t mlog_catenate_dulint_compressed
082f5020 t trx_undo_insert_header_reuse
082f5180 t trx_undo_header_create
082f5340 t trx_undo_page_get_end
082f54a0 t trx_undo_page_get_last_rec
082f5610 t trx_undo_get_next_rec_from_next_page
082f5a80 T trx_undo_get_first_rec
082f5ca0 T trx_undo_get_next_rec
082f5e40 T trx_undo_get_prev_rec
082f6280 t trx_undo_page_init
082f6460 t trx_undo_mem_create
082f6680 T trx_undo_assign_undo
082f7650 T trx_undo_lists_init
082f8050 t trx_undo_free_page
082f8260 T trx_undo_truncate_start
082f87e0 T trx_undo_truncate_end
082f8da0 T trx_undo_add_page
082f8f40 T trx_undo_parse_page_header
082f8fc0 T trx_undo_parse_page_init
082f9010 T read_view_close
082f90d0 T read_cursor_set_for_mysql
082f9260 T read_cursor_view_close_for_mysql
082f94f0 T read_view_close_for_mysql
082f96f0 T read_cursor_view_create_for_mysql
082f9ae0 T read_view_open_now
082f9cc0 T read_view_oldest_copy_or_open_new
082f9f40 T read_view_print
082fa030 T sess_try_close
082fa0a0 T sess_open
082fa1c0 T buf_calc_page_new_checksum
082fa240 T buf_calc_page_old_checksum
082fa290 T buf_page_init_for_backup_restore
082fa350 T buf_get_n_pending_ios
082fa380 t mutex_exit
082fa3c0 T buf_get_free_list_len
082fa480 T buf_pool_check_no_pending_io
082fa570 T buf_get_modified_ratio_pct
082fa670 T buf_get_latched_pages_number
082fa790 T buf_page_reset_file_page_was_freed
082fa920 T buf_page_set_file_page_was_freed
082faab0 T buf_page_peek_if_search_hashed
082fac40 T buf_reset_check_index_page_at_flush
082fade0 T buf_page_peek_block
082faf80 T buf_page_peek
082fafb0 T buf_all_freed
082fb140 t buf_page_init
082fb460 T buf_refresh_io_stats
082fb4d0 T buf_print_io
082fb830 T buf_pool_invalidate
082fb900 T buf_frame_alloc
082fb910 T buf_page_init_for_read
082fbdd0 T buf_frame_free
082fbfb0 T buf_page_make_young
082fc180 t rw_lock_x_lock_func_nowait
082fc2d0 T buf_page_get_known_nowait
082fc750 T buf_page_optimistic_get_func
082fcfe0 T buf_awe_map_page_to_frame
082fd210 T buf_page_get_gen
082fdab0 T buf_page_create
082fdea0 T buf_pool_init
082fe6a0 T buf_page_print
082feb50 T buf_page_is_corrupted
082fee00 T buf_page_io_complete
082ff390 T buf_flush_insert_sorted_into_flush_list
082ff4a0 T buf_flush_insert_into_flush_list
082ff560 T buf_flush_validate
082ffa10 T buf_flush_wait_batch_end
082ffa30 t rw_lock_s_lock_func
082ffb90 t buf_flush_buffered_writes
08300240 T buf_flush_init_for_writing
083003d0 t buf_flush_write_block_low
083006f0 T buf_flush_batch
083019a0 T buf_flush_write_complete
08301b90 T buf_flush_ready_for_replace
08301c40 T buf_flush_free_margin
08301ec0 T buf_LRU_block_free_non_file_page
083020f0 t buf_LRU_old_adjust_len
083022d0 t buf_LRU_remove_block
08302660 t buf_LRU_old_init
08302820 T buf_LRU_make_block_old
08302a40 t buf_LRU_add_block_low
08302cc0 T buf_LRU_make_block_young
08302ce0 T buf_LRU_add_block
08302cf0 t buf_LRU_block_free_hashed_page
08302d70 t buf_LRU_block_remove_hashed_page
08303560 T buf_LRU_buf_pool_running_out
083036c0 T buf_LRU_get_recent_limit
083037f0 T buf_LRU_search_and_free_block
08303bb0 T buf_LRU_try_free_flushed_blocks
08303db0 T buf_LRU_get_free_block
083045e0 T buf_LRU_invalidate_tablespace
08304920 t buf_read_page_low
08304b40 T buf_read_recv_pages
08304ca0 T buf_read_ibuf_merge_pages
08304dd0 T buf_read_ahead_linear
08305460 T buf_read_page
08305900 T eval_node_free_val_buf
083059c0 T eval_node_alloc_val_buf
08305b50 T eval_cmp
08305c30 T eval_func
083067f0 T return_step
08306860 T while_step
083068e0 T if_step
083069c0 T for_step
08306b40 T assign_step
08306c00 T log_group_get_capacity
08306c20 t log_checkpoint_set_nth_group_info
08306c70 T log_checkpoint_get_nth_group_info
08306cd0 T log_refresh_stats
08306d00 t log_group_calc_lsn_offset
08306e70 T log_group_set_fields
08306eb0 T log_calc_where_lsn_is
083070a0 T log_print
08307290 t log_buf_pool_get_oldest_modification
083073e0 T log_peek_lsn
08307470 t mem_alloc_func
08307590 T log_write_low
08307760 T log_check_log_recs
083079c0 T log_close
08307c40 T log_group_read_log_seg
08307d50 T log_group_read_checkpoint_info
08307db0 T log_group_write_buf
08308190 T log_groups_write_checkpoint_info
08308520 T log_reset_first_header_and_checkpoint
083087c0 T log_preflush_pool_modified_pages
08308840 t log_sys_check_flush_completion
083088e0 T log_write_up_to
083090e0 T log_checkpoint
08309960 T log_check_margins
08309f30 T log_make_checkpoint_at
08309f90 T log_fsp_current_free_limit_set_and_checkpoint
0830a0a0 T log_buffer_flush_to_disk
0830a1c0 T logs_empty_and_mark_files_at_shutdown
0830aa20 T log_reserve_and_open
0830abc0 T log_io_complete
0830b120 T log_group_init
0830b4b0 T log_init
0830b9f0 t recv_check_cp_is_consistent
0830bac0 T recv_read_cp_info_for_backup
0830be30 t log_block_checksum_is_ok_or_old_format
0830bee0 T recv_scan_log_seg_for_backup
0830c030 t recv_get_fil_addr_struct
0830c0a0 t recv_calc_lsn_on_data_add
0830c120 T recv_reset_logs
0830c6b0 t recv_parse_or_apply_log_rec_body
0830cfc0 t recv_parse_log_rec
0830d0b0 T recv_check_incomplete_log_recs
0830d160 t recv_report_corrupt_log
0830d2d0 t recv_add_to_hash_table
0830d580 t recv_sys_empty_hash
0830d6c0 t mem_alloc_func
0830d7f0 T recv_recover_page
0830e4a0 T recv_apply_log_recs_for_backup
0830e8c0 T recv_apply_hashed_log_recs
0830f290 T recv_recovery_from_checkpoint_finish
0830f510 T recv_scan_log_recs
083102e0 t recv_group_scan_log_recs
083103d0 T recv_sys_init
08310650 T recv_sys_create
083106d0 T recv_recovery_from_checkpoint_start
08311db0 T fsp_get_size_low
08311de0 T fsp_init
08311df0 T fsp_header_write_space_id
08311e20 t fsp_seg_inode_page_find_free
08311ee0 t fseg_find_last_used_frag_page_slot
08311f30 t fseg_get_n_frag_pages
08311f80 t fseg_n_reserved_pages_low
08312060 T fsp_header_get_space_id
083120f0 t fseg_inode_get
083121b0 T fsp_get_available_space_in_free_extents
083123f0 T fsp_header_get_tablespace_size
083125a0 t fseg_get_first_extent
08312890 T fseg_n_reserved_pages
08312a50 t fseg_print_low
08312da0 T fsp_print
08313a20 T fseg_print
08313be0 t xdes_get_offset
08313db0 t fsp_init_file_page_low
08313fa0 T fsp_parse_init_file_page
08313fc0 t fseg_validate_low
08314fa0 T fsp_validate
08316e80 T fseg_validate
08317040 T fsp_header_inc_size
08317160 T fsp_header_get_free_limit
08317320 t fsp_try_extend_data_file_with_pages
08317470 t fsp_try_extend_data_file
08317640 t fsp_init_file_page
08317680 t fsp_fill_free_list
08317c00 t xdes_get_descriptor_with_space_hdr
08317d90 t xdes_get_descriptor
08317e00 t fsp_alloc_free_extent
08317fd0 t fsp_free_extent
08318130 t fseg_free_extent
08318510 t fsp_alloc_free_page
08318ab0 t fsp_free_page
08318ee0 t fseg_free_page_low
083194f0 T fseg_free_step_not_header
08319870 T fseg_free_page
08319940 t fsp_free_seg_inode
08319cc0 T fseg_free_step
0831a230 T fseg_free
0831a300 t fseg_fill_free_list
0831a430 t fseg_alloc_free_extent
0831a5b0 T fsp_reserve_free_extents
0831aa30 t fseg_alloc_free_page_low
0831b560 T fseg_alloc_free_page_general
0831b8e0 T fseg_alloc_free_page
0831b910 T fseg_create_general
0831c620 T fseg_create
0831c650 T fsp_header_init
0831cc70 T flst_print
0831cf70 t buf_ptr_get_fsp_addr
0831d1a0 T flst_validate
0831d5b0 T flst_truncate_end
0831d6d0 T flst_cut_end
0831d970 T flst_remove
0831dd90 T flst_insert_before
0831e010 T flst_insert_after
0831e290 t flst_add_to_empty
0831e480 T flst_add_first
0831e630 T flst_add_last
0831e7e0 T fil_addr_is_null
0831e7f0 T fil_page_get_prev
0831e820 T fil_page_get_next
0831e850 T fil_page_set_type
0831e870 T fil_page_get_type
0831e890 t fil_node_complete_io
0831e9a0 T fil_validate
0831f1a0 T fil_space_get_n_reserved_extents
0831f340 T fil_space_release_free_extents
0831f530 T fil_space_reserve_free_extents
0831f6c0 T fil_tablespace_exists_in_mem
0831f800 T fil_tablespace_deleted_or_being_deleted_in_mem
0831f980 T fil_space_get_ibuf_data
0831fb70 T fil_space_get_type
0831fd00 T fil_space_get_latch
0831fe90 T fil_space_get_version
0831ffd0 T fil_flush
083204d0 T fil_flush_file_spaces
083206e0 T fil_aio_wait
08320950 T fil_decr_pending_ibuf_merges
08320aa0 T fil_inc_pending_ibuf_merges
08320c20 T fil_set_max_space_id_if_bigger
08320db0 T fil_print_orphaned_tablespaces
08320f40 t fil_node_close_file
08321330 t fil_mutex_enter_and_prepare_for_io
083217a0 T fil_close_all_files
083218d0 T fil_read_flushed_lsn_and_arch_log_no
08321a10 t fil_node_open_file
083220e0 t fil_node_prepare_for_io
083222f0 T fil_io
08322950 T fil_write
083229a0 T fil_read
083229f0 T fil_space_get_size
08322ba0 T fil_check_adress_in_tablespace
08322bc0 T fil_open_log_and_system_tablespace_files
08322d50 t mem_alloc_func
08322e80 T fil_write_flushed_lsn_to_data_files
083231a0 T fil_extend_space_to_desired_size
083234b0 t fil_node_free
08323740 T fil_space_truncate_start
08323980 t fil_rename_tablespace_in_mem
08323df0 T fil_node_create
08324260 t fil_make_ibd_name
08324340 T fil_space_for_table_exists_in_mem
08324880 t fil_get_space_id_for_table
08324a70 t fil_file_readdir_next_file
08324ae0 T fil_reset_too_high_lsns
08325050 t fil_op_write_log
08325400 T fil_rename_tablespace
08325bd0 t fil_create_directory_for_tablename
08325d80 T fil_ibuf_init_at_db_start
08325e70 T fil_init
08326050 T fil_space_free
083267a0 T fil_delete_tablespace
08326ee0 T fil_discard_tablespace
08326f40 T fil_space_create
083275a0 T fil_load_single_table_tablespaces
08327da0 T fil_open_single_table_tablespace
08328010 T fil_create_new_single_table_tablespace
08328820 T fil_op_log_parse_or_replay
08328b40 T lock_get_size
08328b50 T lock_get_src_table
08328bf0 T lock_is_table_exclusive
08328c50 t lock_has_to_wait
08328e80 t lock_rec_find_set_bit
08328ec0 t lock_rec_bitmap_reset
08328ef0 t lock_rec_has_to_wait_in_queue
08328fd0 t lock_table_has_to_wait_in_queue
08329020 T lock_table_queue_validate
08329350 t lock_rec_discard
083294d0 t lock_clust_rec_some_has_impl
08329670 T lock_clust_rec_cons_read_sees
083297c0 t lock_rec_get_first_on_page
08329b00 t lock_rec_free_all_from_discard_page
08329dd0 t lock_rec_get_first
08329f00 t lock_rec_get_next
0832a070 t lock_rec_has_expl
0832a1c0 t lock_rec_other_has_conflicting
0832a3a0 t lock_rec_other_has_expl_req
0832a490 T lock_sec_rec_cons_read_sees
0832a5f0 t lock_rec_create
0832aad0 t lock_rec_add_to_queue
0832adb0 t lock_rec_move
0832ae80 T lock_rec_inherit_to_gap
0832aef0 T lock_reset_all_on_table
0832b390 T lock_is_on_table
0832b490 T lock_rec_restore_from_page_infimum
0832b5b0 T lock_rec_store_on_page_infimum
0832b6d0 T lock_update_copy_and_discard
0832b800 T lock_update_root_raise
0832b920 T lock_rec_expl_exist_on_page
0832ba90 t page_rec_get_next
0832bc10 T lock_update_insert
0832bd70 T lock_update_split_left
0832be90 T lock_update_split_right
0832bfe0 T lock_move_rec_list_start
0832c290 T lock_move_rec_list_end
0832c510 T lock_print_info_summary
0832c730 T lock_table_print
0832c970 T lock_rec_print
0832ce70 T lock_print_info_all_transactions
0832d380 T lock_check_trx_id_sanity
0832d5a0 t lock_grant
0832d640 t lock_rec_dequeue_from_page
0832d890 t lock_table_dequeue
0832dae0 T lock_cancel_waiting_and_release
0832db50 t lock_deadlock_recursive
0832e050 t lock_deadlock_occurs
0832e100 t lock_rec_enqueue_waiting
0832e3d0 t lock_rec_lock
0832e720 T lock_sec_rec_modify_check_and_lock
0832e990 T lock_rec_insert_check_and_lock
0832edf0 T lock_table
0832f7d0 T lock_release_off_kernel
0832fa80 T lock_table_unlock_auto_inc
0832fba0 T lock_table_unlock
0832fca0 T lock_rec_reset_and_release_wait
0832fe00 T lock_update_delete
0832ff20 T lock_update_discard
08330070 T lock_rec_reset_and_inherit_gap_locks
08330190 T lock_update_merge_left
083302f0 T lock_update_merge_right
08330420 T lock_move_reorganize_page
083307e0 T lock_sec_rec_some_has_impl_off_kernel
08330a20 t lock_rec_convert_impl_to_expl
08330aa0 T lock_clust_rec_read_check_and_lock
08330be0 T lock_clust_rec_read_check_and_lock_alt
08330cc0 T lock_sec_rec_read_check_and_lock
08330f50 T lock_clust_rec_modify_check_and_lock
08331080 T lock_rec_queue_validate
08331880 T lock_rec_validate_page
08331e10 T lock_validate
083321a0 T lock_sys_create
08332320 T mtr_start_noninline
08332370 T mtr_read_ulint
083323c0 T mtr_read_dulint
08332450 T mtr_print
08332530 t mtr_memo_slot_release
08332c40 T mtr_memo_release
08332d30 T mtr_rollback_to_savepoint
08332df0 T mtr_commit
083332c0 T mlog_parse_index
08333470 t mlog_write_initial_log_record_fast
083337c0 T mlog_open_and_write_index
08333de0 T mlog_write_dulint
08334100 T mlog_write_ulint
08334420 T mlog_write_initial_log_record
08334560 T mlog_parse_string
08334660 T mlog_catenate_string
08334730 T mlog_write_string
083349f0 T mlog_parse_nbytes
08334c80 T mlog_parse_initial_log_record
08334cf0 T page_header_print
08334e10 t page_rec_get_next
08334f90 T page_find_rec_with_heap_no
08335020 T page_simple_validate
08335570 T page_check_dir
08335790 T page_rec_get_n_recs_before
08335950 T page_get_middle_rec
08335bd0 T page_dir_balance_slot
083367e0 T page_dir_split_slot
08336e30 T page_dir_print
08337190 t page_rec_check
08337390 T page_mem_alloc
08337670 T page_rec_validate
08337870 T page_validate
08338b20 T page_rec_print
08338d00 T page_print_list
08338fd0 T page_print
08339020 T page_rec_write_index_page_no
08339060 T page_delete_rec_list_start
08339240 T page_copy_rec_list_end_no_locks
08339620 T page_set_max_trx_id
08339890 T page_copy_rec_list_end
08339a50 T page_create
0833a190 T page_parse_create
0833a1c0 T page_dir_find_owner_slot
0833a590 t page_rec_get_prev
0833a760 T page_delete_rec_list_end
0833add0 T page_move_rec_list_end
0833aed0 T page_parse_delete_rec_list
0833af80 T page_copy_rec_list_start
0833b2e0 T page_move_rec_list_start
0833b340 t page_rec_get_next
0833b4c0 T page_cur_delete_rec
0833bd60 T page_cur_open_on_rnd_user_rec
0833be10 T page_cur_parse_delete_rec
0833bfa0 t page_cur_insert_rec_write_log
0833ca40 T page_copy_rec_list_end_to_created_page
0833d5a0 T page_cur_insert_rec_low
0833dcb0 T page_cur_parse_insert_rec
0833e680 T page_parse_copy_rec_list_to_created_page
0833e780 T page_cur_search_with_match
0833f0a0 T rec_set_nth_field_null_bit
0833f140 T rec_set_nth_field_sql_null
0833f250 T rec_get_nth_field_old
0833f3e0 t rec_validate_old
0833f6c0 T rec_print_old
0833f8c0 T rec_validate
0833fc30 T rec_print_new
0833fe10 T rec_get_converted_size_new
0833ff40 T rec_copy_prefix_to_buf
083404e0 T rec_get_offsets_func
08340920 T rec_print
08340a10 T rec_copy_prefix_to_dtuple
08340be0 t dtype_get_fixed_size
08340cc0 T rec_convert_dtuple_to_rec
08341190 T rec_set_nth_field_extern_bit_new
083412d0 T rec_set_nth_field_extern_bit_old
08341450 T rec_set_field_extern_bits
083414f0 t cmp_whole_field
08341840 T cmp_rec_rec_with_match
08341c40 T cmp_dtuple_rec_with_match
08341f70 T cmp_dtuple_is_prefix_of_rec
08342000 T cmp_dtuple_rec
08342040 T cmp_data_data_slow
08342250 T cmp_types_are_equal
08342340 T thr_local_init
08342410 T thr_local_free
08342710 T thr_local_create
083429b0 t thr_local_get
08342b30 T thr_local_get_in_ibuf_field
08342c30 T thr_local_set_slot_no
08342d50 T thr_local_get_slot_no
08342e50 t sync_array_get_nth_cell
08342f40 t sync_array_enter
08343070 t sync_array_cell_print
083432b0 t sync_array_exit
08343350 T sync_array_print_info
083433d0 T sync_array_free_cell
083434d0 T sync_array_validate
08343580 t sync_cell_event_set
083435a0 T sync_array_signal_object
08343600 T sync_array_print_long_waits
083437d0 T sync_arr_wake_threads_if_sema_free
083438a0 T sync_array_wait_event
08343a40 T sync_array_reserve_cell
08343c30 T sync_array_free
08343d80 T sync_array_create
08343f20 T rw_lock_set_level
08343f40 T rw_lock_is_locked
083440f0 T rw_lock_validate
083444b0 T rw_lock_x_lock_move_ownership
083445c0 T rw_lock_s_lock_spin
083448d0 t rw_lock_x_lock_low
083449f0 T rw_lock_x_lock_func
08344f00 T rw_lock_free
08345320 T rw_lock_create_func
083455a0 T mutex_set_waiters
083455b0 T mutex_set_level
083455c0 t sync_thread_level_arrays_get_nth
083455d0 t sync_thread_levels_get_nth
083455e0 t sync_thread_levels_contain
08345630 T sync_print_wait_info
08345690 T sync_print
083456c0 T mutex_validate
083457a0 T mutex_enter_nowait
08345840 t sync_thread_level_arrays_find_slot
083458b0 t sync_thread_levels_g
083459a0 T mutex_signal_object
083459d0 T mutex_exit_noninline
08345a10 T mutex_spin_wait
08345df0 T sync_thread_reset_level
08345fd0 T sync_thread_add_level
08347410 T sync_thread_levels_empty_gen
083475c0 T sync_thread_levels_empty
083475e0 T mutex_enter_noninline
08347690 T mutex_free
08347a50 T sync_close
08347aa0 T mutex_create_func
08347d00 T sync_init
08347ec0 T dfield_set_data_noninline
08347ee0 T dfield_get_data_noninline
08347ef0 T dfield_get_len_noninline
08347f00 T dtuple_get_n_fields_noninline
08347f10 T dtuple_get_nth_field_noninline
08347f30 T dtuple_set_n_fields
08347f50 T dtuple_big_rec_free
08347fa0 T dtuple_free_for_mysql
08347ff0 T dtuple_convert_back_big_rec
083480b0 T dfield_check_typed
08348130 T dtuple_check_typed
083481d0 t dtype_get_fixed_size
083482b0 T dtuple_create_for_mysql
08348370 T dtuple_print
08348430 T dtuple_check_typed_no_assert
08348520 T dtuple_convert_big_rec
08348b40 T dfield_print_also_hex
08348d60 T dfield_print
08348f00 T dtuple_datas_are_ordering_equal
08348fa0 T dfield_data_is_binary_equal
08348ff0 T dtype_is_string_type
08349020 T dtype_is_binary_string_type
08349060 T dtype_is_non_binary_string_type
083490a0 T dtype_get_charset_coll_noninline
083490b0 T dtype_validate
08349270 T dtype_form_prtype
08349360 T dtype_print
08349680 T dtype_get_at_most_n_mbchars
083497c0 T mach_parse_compressed
083498d0 T mach_dulint_parse_compressed
08349a30 T ha_print_info
08349ad0 T ha_validate
08349b60 T ha_search_and_update_if_found
08349e10 T ha_delete_hash_node
0834a100 T ha_remove_all_nodes_to_page
0834a200 T ha_delete
0834a2c0 T ha_insert_for_fold
0834a630 T ha_create
0834a8e0 t mem_alloc_func
0834aa10 T hash_create_mutexes
0834ab10 T hash_table_free
0834abd0 T hash_create
0834ac60 T hash_mutex_exit_all
0834acd0 T hash_mutex_exit
0834ad20 T hash_mutex_enter_all
0834ae00 T hash_mutex_enter
0834aec0 T dyn_array_add_block
0834aff0 T mem_field_header_set_len
0834b020 T mem_field_header_get_len
0834b050 T mem_field_header_set_check
0834b080 T mem_field_header_get_check
0834b0b0 T mem_field_trailer_set_check
0834b100 T mem_field_trailer_get_check
0834b140 T mem_field_init
0834b1d0 T mem_field_erase
0834b1e0 T mem_heap_free_block_free
0834b210 T mem_heap_check
0834b280 t mem_print_info_low
0834b320 T mem_print_new_info
0834b330 T mem_print_info
0834b340 T mem_heap_validate_or_print
0834b460 T mem_heap_print
0834b530 T mem_heap_validate
0834b5e0 T mem_analyze_corruption
0834b770 T mem_heap_block_free
0834b880 T mem_heap_create_block
0834b990 T mem_heap_add_block
0834bab0 T mem_heap_strdup
0834bb30 T mem_alloc_func_noninline
0834bc70 T mem_init
0834bc90 T mem_pool_mutex_enter
0834bd50 T mem_pool_get_reserved
0834be50 T mem_pool_validate
0834c400 T mem_pool_mutex_exit
0834c450 T mem_pool_print_info
0834c5f0 T mem_area_free
0834cb30 t mem_pool_fill_free_list
0834cd60 T mem_area_alloc
0834d110 T mem_pool_create
0834d2c0 T ut_dulint_sort
0834d460 T ut_dbg_stop_thread
0834d4c0 T ut_dbg_assertion_failed
0834d570 T ut_strcpyq
0834d5b0 T ut_memcpyq
0834d600 T ut_strlcpy_rev
0834d660 T ut_strlcpy
0834d6c0 T ut_free_all_mem
0834d8d0 T ut_free
0834dab0 T ut_test_malloc
0834db30 T ut_malloc_low
0834dcf0 T ut_malloc
0834dd20 T ut_realloc
0834de20 T ut_find_prime
0834df50 T ut_get_high32
0834df60 T ut_delay
0834dfa0 T ut_ulint_sort
0834e0e0 T ut_2_power_up
0834e100 T ut_copy_file
0834e1a0 T ut_print_namel
0834e270 T ut_print_filename
0834e2e0 T ut_print_name
0834e320 T ut_print_buf
0834e420 T ut_time
0834e440 T ut_get_year_month_day
0834e490 T ut_print_timestamp
0834e520 T ut_sprintf_timestamp_without_extra_chars
0834e5b0 T ut_sprintf_timestamp
0834e640 T ut_difftime
0834e650 T ut_usectime
0834e680 T ut_clock
0834e6b0 T os_awe_enable_lock_pages_in_mem
0834e6c0 T os_awe_allocate_physical_mem
0834e6d0 T os_awe_allocate_virtual_mem_window
0834e6e0 T os_awe_map_physical_mem_to_window
0834e6f0 T os_process_set_priority_boost
0834e700 T os_mem_free_large
0834e740 T os_mem_alloc_large
0834e880 T os_mem_alloc_nocache
0834e890 T os_proc_get_number
0834e8a0 T os_fast_mutex_unlock
0834e8b0 T os_fast_mutex_lock
0834e8c0 T os_mutex_exit
0834e9a0 T os_mutex_enter
0834ea20 T os_fast_mutex_free
0834eb00 T os_fast_mutex_init
0834ebb0 T os_event_reset
0834ec40 T os_mutex_free
0834edf0 T os_mutex_create
0834eeb0 T os_sync_init
0834ef00 T os_event_wait
0834ef80 T os_event_wait_time
0834efa0 T os_event_free
0834f190 T os_sync_free
0834f210 T os_event_set
0834f310 T os_event_create
0834f420 T os_thread_pf
0834f430 T os_thread_set_priority
0834f440 T os_thread_get_priority
0834f450 T os_thread_get_last_error
0834f460 T os_thread_sleep
0834f4b0 T os_thread_yield
0834f4c0 T os_thread_get_curr
0834f4d0 T os_thread_get_curr_id
0834f4e0 T os_thread_exit
0834f520 T os_thread_create
0834f5e0 T os_thread_eq
0834f610 T os_aio_refresh_stats
0834f650 T os_get_os_version
0834f690 t os_aio_array_get_nth_slot
0834f710 t os_aio_get_array_and_local_segment
0834f7f0 t os_aio_get_segment_no_from_slot
0834f8d0 t os_aio_array_validate
0834fb40 T os_aio_validate
0834fb80 T os_aio_print
08350180 T os_aio_simulated_put_read_threads_to_sleep
083501e0 T os_aio_wait_until_no_pending_writes
08350200 t os_aio_array_free_slot
08350280 t os_aio_simulated_wake_handler_thread
08350310 T os_aio_simulated_wake_handler_threads
08350350 T os_aio_wake_all_threads_at_shutdown
08350390 t os_aio_array_create
08350510 T os_io_init_simple
08350550 T os_aio_init
083507c0 t mem_alloc_func
083508e0 T os_file_dirname
083509a0 T os_file_get_last_error
08350b00 t os_file_handle_error
08350c50 t os_file_handle_error_no_exit
08350d50 T os_file_get_status
08350e10 T os_file_status
08350ed0 T os_file_write
08351070 T os_file_read_string
083510e0 t os_file_pread
083511b0 T os_file_read_no_error_handling
08351220 T os_file_read
08351310 T os_aio_simulated_handle
08351cb0 T os_aio
08352000 T os_file_flush
083520c0 T os_file_set_eof
08352110 T os_file_set_size
083523c0 T os_file_get_size
08352410 T os_file_get_size_as_iblonglong
08352460 T os_file_close_no_error_handling
08352480 T os_file_close
083524c0 T os_file_rename
08352510 T os_file_delete
08352550 T os_file_delete_if_exists
08352590 t os_file_lock
08352660 T os_file_create
08352980 T os_file_create_simple_no_error_handling
08352b10 T os_file_create_directory
08352b70 T os_file_create_subdirs_if_needed
08352cb0 T os_file_create_simple
08352e70 T os_file_readdir_next_file
08353140 T os_file_closedir
08353180 T os_file_opendir
083531d0 T os_file_create_tmpfile
08353260 T mi_safe_mul
08353310 T mi_setup_functions
08353460 t setup_key_functions
08353530 T my_n_base_info_read
083538e0 T mi_keydef_read
08353990 T mi_keyseg_read
08353a80 T mi_uniquedef_read
08353ab0 T mi_recinfo_read
08353b00 T mi_disable_indexes
08353b20 T mi_indexes_are_disabled
08353b70 T mi_enable_indexes
08353c30 T mi_open_keyfile
08353c70 T mi_open_datafile
08353cb0 T mi_recinfo_write
08353d10 T mi_uniquedef_write
08353d60 T mi_keyseg_write
08353e20 T mi_keydef_write
08353ea0 T mi_base_info_write
08354130 T mi_state_info_read
08354840 T mi_state_info_read_dsk
083548f0 T mi_state_info_write
08354fb0 T mi_alloc_rec_buff
083550b0 T test_if_reopen
08355110 T mi_open
083569f0 T mi_extra
083573e0 T mi_position
08357400 T mi_report_error
08357440 T mi_status
08357740 T mi_rkey
08357b80 T mi_rnext
08357f90 T mi_rnext_same
08358260 T _mi_kpos
083583f0 T _mi_dpos
083585b0 T _mi_keylength
08358650 T _mi_keylength_part
083586d0 T _mi_calc_static_key_length
083586f0 T _mi_calc_var_key_length
08358720 T _mi_calc_var_pack_key_length
08358ea0 T _mi_calc_bin_pack_key_length
083590b0 T _mi_store_bin_pack_key
08359160 T _mi_store_static_key
08359180 T _mi_move_key
083591d0 T _mi_get_static_key
08359220 T _mi_store_var_pack_key
08359400 T _mi_search_first
08359590 T _mi_get_last_key
08359670 T _mi_search_last
08359810 T _mi_get_key
08359910 T _mi_get_binary_pack_key
08359ba0 T _mi_get_pack_key
08359f00 T _mi_dpointer
0835a080 T _mi_rec_pos
0835a2d0 T _mi_kpointer
0835a3a0 T _mi_prefix_search
0835ab70 T _mi_seq_search
0835acf0 T _mi_bin_search
0835ae40 T _mi_search
0835b490 T _mi_search_next
0835b7a0 T _mi_check_index
0835b890 T _mi_new
0835ba30 T _mi_dispose
0835bb20 T _mi_write_keypage
0835bca0 T _mi_fetch_keypage
0835bdc0 T update_auto_increment
0835bfb0 T _mi_pack_key
0835c340 T _mi_read_key_record
0835c7a0 T _mi_make_key
0835cce0 T mi_get_status
0835cd20 T mi_copy_status
0835cd40 T mi_check_status
0835cd90 T _mi_mark_file_changed
0835ce30 T _mi_test_if_changed
0835cee0 T _mi_writeinfo
0835d000 T _mi_readinfo
0835d140 T mi_update_status
0835d1f0 T mi_lock_database
0835d840 T _mi_decrement_open_count
0835d910 T mi_rrnd
0835da10 T mi_scan
0835da60 T mi_scan_init
0835dac0 T _mi_read_static_record
0835dbf0 T _mi_read_rnd_static_record
0835e040 T _mi_cmp_static_unique
0835e0e0 T _mi_cmp_static_record
0835e1d0 T _mi_delete_static_record
0835e290 T _mi_update_static_record
0835e2f0 T _mi_write_static_record
0835e640 t fill_quick_table
0835e680 t copy_decode_table
0835e720 t make_quick_table
0835e800 t find_longest_bitstream
0835e8a0 t decode_bytes
0835eae0 t init_bit_buffer
0835eb10 t fill_buffer
0835eb60 t fill_and_get_bits
0835ebb0 t uf_varchar2
0835ec70 t uf_varchar1
0835ed30 T save_pack_length
0835eda0 T read_pack_length
0835ee00 T calc_pack_length
0835ee40 T _mi_unmap_file
0835ee70 T _mi_pack_rec_unpack
0835ef20 T _mi_memmap_file
0835f030 t _mi_mempack_get_block_info
0835f0d0 t _mi_read_rnd_mempack_record
0835f1b0 t _mi_read_mempack_record
0835f220 T _mi_pack_get_block_info
0835f390 T _mi_read_pack_record
0835f450 t uf_intervall
0835f4f0 t uf_constant
0835f520 T _mi_read_rnd_pack_record
0835f6e0 T _mi_read_pack_info
083601c0 t uf_zero
083601e0 t uf_zerofill_normal
08360230 t uf_skip_zero
083602c0 t uf_zerofill_skip_zero
08360370 t uf_blob
083604b0 t uf_prespace
08360570 t uf_prespace_selected
08360680 t uf_space_prespace
083607a0 t uf_space_prespace_selected
083608f0 t uf_endspace
083609b0 t uf_endspace_selected
08360ac0 t uf_space_endspace
08360bd0 t uf_space_endspace_selected
08360d30 t uf_space_normal
08360dc0 T _mi_calc_blob_length
08360e10 T _my_calc_total_blob_length
08360e70 T _my_store_blob_length
08360ed0 T _mi_get_block_info
083614e0 t _mi_find_writepos
08361680 T _mi_rec_check
083619a0 T _mi_rec_pack
08361da0 T _mi_cmp_dynamic_record
08362130 T _mi_rec_unpack
08362520 T _mi_read_rnd_dynamic_record
08362a40 T _mi_read_dynamic_record
08362c80 T _mi_cmp_dynamic_unique
08362d70 t unlink_deleted_block
08362fb0 t update_backward_delete_link
083630c0 T _mi_write_part_record
083638d0 t write_dynamic_record
08363980 T _mi_write_blob_record
08363a10 T _mi_write_dynamic_record
08363a50 t delete_dynamic_record
08363cc0 T _mi_delete_dynamic_record
08363ce0 t update_dynamic_record
08364240 T _mi_update_blob_record
083642f0 T _mi_update_dynamic_record
08364340 T mi_update
08364d90 T mi_end_bulk_insert
08364e20 T mi_flush_bulk_insert
08364e50 T mi_init_bulk_insert
08365110 T _mi_find_half_pos
08365200 t keys_compare
08365260 T _mi_ck_write_tree
083652c0 T _mi_enlarge_root
083653e0 T _mi_split_page
08365820 T _mi_insert
08366390 t w_search
08366920 T _mi_ck_real_write_btree
083669b0 T _mi_ck_write_btree
08366a90 t keys_free
08366bc0 T _mi_ck_write
08366c30 T mi_write
08367380 T mi_unique_hash
08367520 T mi_unique_comp
08367740 T mi_check_unique
083679c0 t remove_key
08367dd0 t underflow
08368eb0 t del
083694b0 t d_search
08369cd0 t _mi_ck_real_delete
08369f00 T _mi_ck_delete
08369f50 T mi_delete
0836a3a0 T mi_rprev
0836a720 T mi_rfirst
0836a750 T mi_rlast
0836a780 T mi_panic
0836a9c0 T mi_close
0836ad10 T mi_get_pointer_length
0836ad70 T mi_create
0836c6d0 t _mi_search_pos
0836ca50 t _mi_record_pos
0836cb70 T mi_records_in_range
0836ce00 T mi_static_checksum
0836ce30 T mi_checksum
0836cf00 T _myisam_log_record
0836d170 T _myisam_log_command
0836d2e0 T _myisam_log
0836d470 T mi_log
0836d550 T mi_delete_all_rows
0836d7b0 T mi_delete_table
0836d870 T mi_rename
0836d9a0 T lock_memory
0836d9b0 T update_key_parts
0836dae0 t mi_byte_checksum
0836db10 t mi_too_big_key_for_sort
0836dbc0 T mi_disable_non_unique_index
0836dca0 T mi_test_if_sort_rep
0836dd30 t alloc_key_blocks
0836ddc0 T update_state_info
0836dfa0 T update_auto_increment_key
0836e220 T myisamchk_init
0836e2f0 T write_data_suffix
0836e3d0 T test_if_almost_full
0836e500 T recreate_table
0836ec40 T flush_pending_blocks
0836ee20 t sort_insert_key
0836f170 T sort_ft_buf_flush
0836f340 T sort_write_record
0836f7e0 T chk_status
0836f8a0 t set_data_file_type
0836f970 t sort_key_cmp
0836f9c0 t mi_collect_stats_nonulls_next
0836fa50 t mi_collect_stats_nonulls_first
0836faa0 t get_record_for_key
0836fae0 t sort_key_write
0836ff70 t sort_get_next_record
08371250 t sort_key_read
08371340 t sort_ft_key_write
083715e0 t sort_ft_key_read
08371700 T filecopy
08371900 T lock_file
083719b0 T change_to_newfile
08371a40 t sort_one_index
08371e90 T mi_sort_index
08372380 t chk_index
08372aa0 t chk_index_down
08372cc0 T flush_blocks
08372d50 T mi_repair_parallel
08374120 T mi_repair_by_sort
08375340 T movepoint
083755a0 T mi_repair
08376690 T chk_size
08376b40 T chk_data_link
083786e0 T chk_key
08379710 T chk_del
08379c50 T mi_assign_to_key_cache
08379d50 T mi_change_key_cache
08379de0 T mi_preload
0837a090 T ft_parse_init
0837a0e0 t FT_WORD_cmp
0837a120 T ft_simple_get_word
0837a250 T ft_parse
0837a350 T ft_get_word
0837a6a0 T ft_boolean_check_syntax_string
0837a750 T ft_linearize
0837a840 t walk_and_copy
0837a8a0 T ft_free_stopwords
0837a8e0 t FT_STOPWORD_free
0837a900 T is_stopword
0837a940 t ft_add_stopword
0837a9b0 T ft_init_stopwords
0837abe0 t FT_STOPWORD_cmp
0837ac30 T ft_init_search
0837acb0 T _mi_ft_segiterator_init
0837acf0 T _mi_ft_segiterator_dummy_init
0837ad20 T _mi_ft_convert_to_ft2
0837af60 T _ft_make_key
0837b040 t _mi_ft_erase
0837b0e0 t _mi_ft_store
0837b170 T _mi_ft_segiterator
0837b240 T _mi_ft_cmp
0837b320 T _mi_ft_parse
0837b3e0 T _mi_ft_parserecord
0837b440 T _mi_ft_del
0837b4b0 T _mi_ft_add
0837b520 T _mi_ft_update
0837b7e0 t FTB_WORD_cmp
0837b880 t _ftb_no_dupes_cmp
0837b8f0 T ft_boolean_get_relevance
0837b900 t FTB_WORD_cmp_list
0837b980 t _ft2_search
0837bd90 T ft_boolean_reinit_search
0837bf10 T ft_boolean_close_search
0837bf70 t _ftb_climb_the_tree
0837c210 T ft_boolean_find_relevance
0837c500 T ft_boolean_read_next
0837c7a0 t _ftb_parse_query
0837cad0 T ft_init_boolean_search
0837cd30 t FT_SUPERDOC_cmp
0837cd80 t walk_and_copy
0837cdc0 t FT_DOC_cmp
0837ce10 T ft_nlq_find_relevance
0837cf10 T ft_nlq_get_relevance
0837cf30 T ft_nlq_reinit_search
0837cf40 T ft_nlq_close_search
0837cf50 T ft_nlq_read_next
0837cfe0 T ft_init_nlq_search
0837d360 t walk_and_push
0837d3a0 t walk_and_match
0837d860 t write_merge_key
0837d8c0 t write_index
0837d930 t write_keys
0837da70 t write_key
0837dba0 t merge_buffers
0837df70 t merge_many_buff
0837e230 t merge_index
0837e290 t flush_ft_buf
0837e300 T thr_write_keys
0837eac0 t read_to_buffer
0837eb80 t read_to_buffer_varlen
0837ecc0 t write_merge_key_varlen
0837eda0 t write_keys_varlen
0837ef30 T _create_index_by_sort
0837f770 T thr_find_all_keys
0837fd20 T rtree_estimate
08380070 t rtree_delete_req
08380510 t rtree_insert_req
08380900 t rtree_insert_level
08380c20 T rtree_delete
08380fc0 T rtree_insert
08381000 t rtree_get_req
08381290 T rtree_get_next
083813c0 T rtree_get_first
08381460 t rtree_find_req
08381740 T rtree_find_first
08381840 T rtree_find_next
083819d0 T rtree_set_key_mbr
08381a60 T rtree_delete_key
08381b00 T rtree_add_key
08381c70 T rtree_key_cmp
08382c80 T rtree_rect_volume
08383100 T rtree_d_mbr
083835b0 T rtree_combine_rect
08384250 T rtree_overlapping_area
08384d50 T rtree_area_increase
083857b0 T rtree_perimeter_increase
08386210 T rtree_page_mbr
08387480 t mbr_join
083874e0 t mbr_join_square
08387540 t mark_all_entries
08387570 T rtree_split_page
08387ba0 t get_double
08387bc0 t sp_add_point_to_mbr
08387c40 t sp_get_point_mbr
08387c60 t sp_get_linestring_mbr
08387cc0 t sp_get_polygon_mbr
08387d40 t sp_get_geometry_mbr
08387f10 T sp_make_key
083880f0 T _mi_read_cache
083883c0 T _mi_print_key
08388890 T myrg_open
08388ed0 T myrg_extrafunc
08388f10 T myrg_extra
08388fe0 T myrg_position
08389030 T myrg_status
08389170 T myrg_lock_database
083891c0 T myrg_rrnd
08389400 T myrg_update
08389440 T myrg_delete
08389480 T myrg_panic
08389510 T myrg_close
083895b0 T myrg_create
08389790 T myrg_rkey
083898f0 T myrg_rfirst
083899c0 T myrg_rlast
08389aa0 T myrg_rnext
08389b40 T myrg_rprev
08389be0 T _myrg_mi_read_record
08389c30 T _myrg_init_queue
08389d10 t queue_key_cmp
08389d70 T myrg_write
08389dd0 T myrg_records_in_range
08389e80 T myrg_rnext_same
08389f20 T hp_find_named_heap
08389f70 T heap_open
0838a080 T heap_extra
0838a140 T hp_close
0838a1c0 T heap_close
0838a200 T heap_panic
0838a2a0 T heap_position
0838a2c0 T heap_info
0838a320 T heap_rrnd
0838a3b0 T heap_scan_init
0838a3e0 T heap_scan
0838a4b0 T heap_update
0838a780 T hp_write_key
0838ab40 T hp_rb_write_key
0838ac10 T heap_write
0838adf0 T hp_delete_key
0838b0a0 T hp_rb_delete_key
0838b130 T heap_delete
0838b260 t init_block
0838b310 T hp_free
0838b380 T heap_delete_table
0838b400 T heap_create
0838b990 t keys_compare
0838b9d0 T heap_rename
0838ba60 T heap_rfirst
0838bb50 T heap_rnext
0838bd30 T heap_rlast
0838be20 T heap_rprev
0838bfe0 T heap_enable_indexes
0838c020 T heap_indexes_are_disabled
0838c050 T hp_clear_keys
0838c100 T heap_disable_indexes
0838c140 T hp_clear
0838c1b0 T heap_clear_keys
0838c1d0 T heap_clear
0838c1f0 T heap_find
0838c220 T heap_rkey
0838c3e0 T hp_find_block
0838c420 T hp_free_level
0838c4c0 T hp_get_new_block
0838c5c0 T hp_mask
0838c5e0 T hp_movelink
0838c600 T hp_hashnr
0838c7f0 T hp_rec_hashnr
0838c9e0 T hp_rb_key_length
0838c9f0 T hp_rb_null_key_length
0838ca40 T hp_rb_var_key_length
0838cac0 T hp_if_null_in_key
0838cb10 T heap_update_auto_increment
0838cd00 T hp_rb_pack_key
0838cf60 T hp_make_key
0838d060 T hp_rb_make_key
0838d300 T hp_key_cmp
0838d5c0 T hp_rec_key_cmp
0838d850 T hp_search_next
0838d8d0 T hp_search
0838dab0 T hp_rb_records_in_range
0838dc30 T hp_rectest
0838dc80 T vio_delete
0838dce0 t vio_init
0838ddf0 T vio_new
0838de90 T vio_reset
0838dee0 T vio_is_blocking
0838df00 T vio_description
0838df10 T vio_type
0838df20 T vio_fd
0838df30 T vio_timeout
0838df40 T vio_poll_read
0838dfa0 T vio_in_addr
0838dfc0 T vio_peer_addr
0838e060 T vio_close
0838e0e0 T vio_was_interrupted
0838e100 T vio_should_retry
0838e140 T vio_errno
0838e150 T vio_keepalive
0838e1a0 T vio_fastsend
0838e230 T vio_blocking
0838e2e0 T vio_write
0838e300 T vio_read
0838e330 T vio_read_buff
0838e410 T my_end
0838e5a0 t atoi_octal
0838e620 T my_init
0838e6f0 T has_path
0838e740 T test_if_hard_path
0838e7b0 T my_setwd
0838e8c0 T my_getwd
0838e970 T get_date
0838eaf0 T my_msync
0838eb30 T my_load_path
0838ec80 T my_free_open_file_info
0838ecb0 T my_set_max_open_files
0838ee30 T my_close
0838ef20 T my_register_filename
0838f030 T my_open
0838f080 T my_create
0838f0e0 T my_tell
0838f140 T my_seek
0838f190 T my_read
0838f310 T my_pwrite
0838f4a0 T my_pread
0838f5b0 T my_write
0838f730 t link_into_queue
0838f790 t unlink_from_queue
0838f7e0 t link_to_file_list
0838f850 t unlink_block
0838f8b0 t reg_requests
0838f900 t cmp_sec_link
0838f970 T reset_key_cache_counters
0838f9d0 T change_key_cache_param
0838fa40 t release_queue
0838fa90 t link_block
0838fb80 t unreg_request
0838fc80 t unlink_hash
0838fda0 t free_block
0838fea0 t flush_cached_blocks
08390030 t flush_key_blocks_int
083903d0 t find_key_block
083909c0 T flush_key_blocks
08390a40 T key_cache_insert
08390c40 t read_block
08390d30 T key_cache_write
083911a0 T key_cache_read
08391450 T end_key_cache
083914e0 T init_key_cache
08391980 T resize_key_cache
08391b00 t safe_hash_entry_get
08391b20 T multi_key_cache_change
08391bb0 T multi_key_cache_set
08391cf0 t safe_hash_entry_free
08391d10 T multi_key_cache_search
08391d80 T multi_keycache_free
08391dc0 T multi_keycache_init
08391e60 T setup_io_cache
08391e90 t init_functions
08391ee0 T _my_b_get
08391f30 T my_b_flush_io_cache
08392120 T end_io_cache
083921e0 T reinit_io_cache
083923b0 T my_b_append
083924d0 T my_b_safe_write
08392540 T _my_b_write
083926a0 T my_block_write
08392860 T _my_b_seq_read
08392b40 T _my_b_read
08392dd0 T _my_b_read_r
08393100 T remove_io_thread
08393150 T init_io_cache_share
083931c0 T init_io_cache
083934f0 T my_b_vprintf
08393770 T my_b_printf
083937a0 T my_b_filelength
08393800 T my_b_fill
08393930 T my_b_gets
083939f0 T my_b_seek
08393af0 T my_b_append_tell
08393b40 T my_b_safe_tell
08393b70 T close_cached_file
08393be0 T real_open_cached_file
08393c60 T open_cached_file
08393d40 T create_temp_file
08393e90 T free_tmpdir
08393ed0 T my_tmpdir
08393f20 T init_tmpdir
08394070 T my_no_flags_free
08394090 T my_malloc
08394150 T my_strdup_with_length
083941a0 T my_strdup
08394200 T my_memdup
08394250 T my_realloc
08394300 T my_once_free
08394340 T my_once_alloc
08394420 T my_once_memdup
08394470 T my_once_strdup
083944d0 T my_multi_malloc
08394560 T set_prealloc_root
083945c0 T free_root
083946c0 T alloc_root
083947e0 T memdup_root
08394830 T strmake_root
08394880 T strdup_root
083948b0 T multi_alloc_root
08394940 T reset_root_defaults
08394a10 T init_alloc_root
08394ab0 T __cxa_pure_virtual
08394af0 T _ZdaPv
08394b10 T _ZdlPv
08394b30 T _Znaj
08394b50 T _Znwj
08394b70 t make_ftype
08394bd0 T my_fdopen
08394cc0 T my_fclose
08394db0 T my_fopen
08394ef0 T my_getsystime
08394f40 T my_message
08394f70 T my_error_unregister
08394fd0 T my_error_register
08395060 T my_printf_error
083950b0 T my_error
08395190 T init_glob_errs
083951a0 T my_filename
083951e0 T my_message_no_curses
083952a0 T strlength
08395310 T fn_format
08395600 T fn_same
08395680 T convert_dirname
083956f0 T dirname_length
08395750 T dirname_part
08395790 T fn_ext
083957e0 T my_realpath
083958e0 T my_symlink
08395970 T my_readlink
08395a20 T my_rename_with_symlink
08395bf0 T my_delete_with_symlink
08395c80 T my_create_with_symlink
08395e40 T intern_filename
08395ea0 T system_filename
08395ed0 T cleanup_dirname
08396210 T unpack_dirname
08396440 T unpack_filename
083964e0 T pack_dirname
083967d0 T to_unix_path
083967e0 T strip_sp
08396840 T wild_compare
08396a80 T my_gethwaddr
08396b70 T qsort
08397530 T qsort2
08397f30 T my_string_ptr_sort
08397ff0 T get_ptr_compare
08398040 t ptr_compare
08398090 t ptr_compare_0
08398100 t ptr_compare_1
08398170 t ptr_compare_2
08398200 t ptr_compare_3
08398290 T my_store_ptr
08398390 T my_get_ptr
08398510 T radixsort_for_str_ptr
083985f0 T queue_insert
08398660 T _downheap
08398740 T queue_remove
08398790 t queue_fix_cmp
083987c0 T queue_fix
08398800 T delete_queue
08398830 T resize_queue
08398890 T reinit_queue
083988e0 T init_queue
08398950 T tree_search
08398a00 T tree_search_key
08398b50 T tree_search_edge
08398bb0 T tree_search_next
08398c90 T tree_record_pos
08398db0 t tree_walk_left_root_right
08398e40 t tree_walk_right_root_left
08398ed0 T tree_walk
08398f10 t left_rotate
08398f30 t right_rotate
08398f50 T tree_delete
083992a0 t delete_tree_element
08399330 t free_tree
08399420 T reset_tree
08399440 T tree_insert
08399730 T delete_tree
08399740 T init_tree
083998a0 T list_add
083998d0 T list_delete
08399900 T list_reverse
08399930 T list_length
08399950 T list_walk
083999a0 T list_cons
083999f0 T list_free
08399a50 t calc_hash
08399aa0 T my_hash_reset
08399b10 t hash_mask
08399b30 t hash_rec_mask
08399ba0 t movelink
08399bd0 t hashcmp
08399c80 T hash_next
08399cf0 T hash_search
08399da0 T hash_update
08399f30 T hash_element
08399f50 T hash_replace
08399f70 T hash_delete
0839a280 T my_hash_insert
0839a590 T hash_free
0839a600 T _hash_init
0839a690 T pop_dynamic
0839a6c0 T freeze_size
0839a720 T alloc_dynamic
0839a780 T delete_dynamic_element
0839a7d0 T delete_dynamic
0839a810 T get_dynamic
0839a860 T set_dynamic
0839a920 T insert_dynamic
0839a980 T init_dynamic_array
0839aa10 T get_type
0839aa40 T make_type
0839aa90 T find_type
0839ac70 T my_copy
0839aef0 T my_stat
0839afc0 T my_fstat
0839afe0 T directory_file_name
0839b020 t comp_names
0839b040 T my_dirend
0839b080 T my_dir
0839b330 T my_delete
0839b3b0 T my_rename
0839b440 T my_copystat
0839b570 T my_redel
0839b680 T my_chsize
0839b820 T my_sync
0839b8e0 T my_getopt_register_get_addr
0839b8f0 T getopt_compare_strings
0839b960 T getopt_ull_limit_value
0839ba30 t init_one_value
0839ba70 t default_reporter
0839baa0 T my_print_variables
0839bc10 T my_print_help
0839bed0 t findopt
0839bf60 t eval_num_suffix
0839c050 t getopt_ll
0839c130 t setval
0839c240 T handle_options
0839cf70 T my_mkdir
0839cff0 t init_default_directories
0839d040 T my_print_default_files
0839d1b0 T print_defaults
0839d2b0 T free_defaults
0839d300 t get_argument
0839d3b0 t handle_default_option
0839d440 T get_defaults_options
0839d550 t search_default_file_with_ext
0839de30 t search_default_file
0839deb0 T my_search_option_files
0839e190 T load_defaults
0839e590 T my_uncompress
0839e630 T my_compress_alloc
0839e6d0 T my_compress
0839e750 T my_checksum
0839e760 T my_inet_ntoa
0839e7b0 T my_sleep
0839e800 t get_collation_number_internal
0839e870 T add_compiled_collation
0839e890 T free_charsets
0839e8a0 T escape_string_for_mysql
0839ea50 T escape_quotes_for_mysql
0839eb50 t init_state_maps
0839ece0 t cs_alloc
0839ed00 t my_read_charset_file
0839ede0 T my_charset_same
0839ee20 t add_collation
0839f300 T get_charsets_dir
0839f3f0 t init_available_charsets
0839f500 T get_charset_name
0839f540 T get_charset_number
0839f5c0 T get_collation_number
0839f5e0 t get_internal_charset
0839f6e0 T get_charset_by_csname
0839f790 T get_charset_by_name
0839f830 T get_charset
0839f910 T init_compiled_charsets
0839fc50 T bitmap_fast_test_and_set
0839fc80 T bitmap_is_set
0839fcb0 T bitmap_set_above
0839fce0 T bitmap_get_first
0839fd80 T bitmap_union
0839fe20 T bitmap_subtract
0839fec0 T bitmap_intersect
0839ffa0 T bitmap_is_subset
083a0050 T bitmap_is_prefix
083a0120 T bitmap_is_set_all
083a0140 T bitmap_is_clear_all
083a0160 T bitmap_clear_bit
083a01d0 T bitmap_set_next
083a0280 T bitmap_test_and_set
083a0300 T bitmap_set_bit
083a0370 T bitmap_bits_set
083a03e0 T bitmap_cmp
083a04c0 T bitmap_set_prefix
083a0580 T bitmap_set_all
083a05a0 T bitmap_clear_all
083a05c0 T bitmap_free
083a0600 T bitmap_init
083a0690 T my_bit_log2
083a06b0 T my_count_bits
083a0730 T my_count_bits_ushort
083a0740 T my_MD5Init
083a0780 t Encode
083a07d0 t MD5Transform
083a10c0 T my_MD5Update
083a11c0 T my_MD5Final
083a1250 T my_gethostbyname_r
083a12a0 T my_aes_get_size
083a12c0 t my_aes_create_key
083a1380 T my_aes_decrypt
083a14a0 T my_aes_encrypt
083a15c0 T sha1_reset
083a1610 t SHA1ProcessMessageBlock
083a1920 T sha1_input
083a1990 T sha1_result
083a1af0 T mi_compare_text
083a1b80 t compare_bin
083a1c60 T ha_key_cmp
083a2a00 T ha_find_null
083a2aa0 T my_large_free
083a2af0 T my_large_malloc
083a2c50 T my_get_large_page_size
083a2d30 t compare_ulong
083a2d60 T thr_alarm_info
083a2de0 T thr_alarm_kill
083a2ea0 T end_thr_alarm
083a3010 T process_alarm
083a3250 T thr_end_alarm
083a3340 T thr_alarm
083a3540 T resize_thr_alarm
083a35a0 T init_thr_alarm
083a36c0 T init_thr_lock
083a36d0 T thr_lock_data_init
083a3700 t thr_print_lock
083a37c0 T thr_print_locks
083a3980 T thr_abort_locks
083a3a30 T thr_unlock
083a3f20 T thr_multi_unlock
083a3f70 t wait_for_lock
083a4130 T thr_upgrade_write_delay_lock
083a4230 T thr_reschedule_write_lock
083a4370 T thr_lock
083a4710 T thr_multi_lock
083a48f0 T thr_abort_locks_for_thread
083a4a20 T thr_lock_info_init
083a4a50 T thr_lock_delete
083a4aa0 T thr_lock_init
083a4b20 T pthread_no_free
083a4b30 T pthread_dummy
083a4b40 T my_pthread_attr_setprio
083a4b60 T my_pthread_getprio
083a4b90 T my_pthread_setprio
083a4bc0 T my_thread_name
083a4bd0 T my_thread_id
083a4be0 T _my_thread_var
083a4c00 T my_thread_end
083a4c80 T my_thread_init
083a4d30 T my_thread_global_end
083a4dc0 T my_thread_global_init
083a4f10 T rijndaelKeySetupEnc
083a5270 T rijndaelKeySetupDec
083a54a0 T rijndaelEncrypt
083a5940 T rijndaelDecrypt
083a5dd0 T my_regerror
083a5f20 t othercase
083a5f80 t seterr
083a5fa0 t p_count
083a6040 t freeset
083a60b0 t dofwd
083a60d0 t enlarge
083a6130 t doemit
083a6190 t p_b_coll_elem
083a6240 t p_b_symbol
083a62e0 t p_bracket
083a6ca0 t nonnewline
083a6cf0 t ordinary
083a6da0 t dupl
083a6e50 t doinsert
083a6ef0 t repeat
083a70e0 t p_ere
083a77a0 t p_bre
083a7cb0 T my_regcomp
083a8390 t sstep
083a8720 t sslow
083a89e0 t sdissect
083a8e10 t lstep
083a91f0 t sbackref
083a9900 t lbackref
083aa010 t lslow
083aa330 t ldissect
083aa760 T my_regexec
083ab910 T my_regfree
083ab9b0 T my_regex_end
083aba00 T my_regex_init
083abc50 T bmove_align
083abc70 t .ba_10
083abc7b t .ba_20
083abc7f t .bmove_align_end
083abc7f T bmove_upp
083abc96 t .bu_10
083abca1 t .bu_20
083abca5 t .bmove_upp_end
083abca5 T strappend
083abcd3 t sa_99
083abcd8 t .strappend_end
083abcd8 T strcont
083abce7 t sc_10
083abcea t sc_20
083abcef t sc_60
083abcf9 t sc_fo
083abcff t .strcont_end
083abcff T strend
083abd12 t .strend_end
083abd12 T strfill
083abd3e t .strfill_end
083abd3e T strcend
083abd4a t se_10
083abd52 t se_20
083abd57 t .strcend_end
083abd57 T is_prefix
083abd67 t ip_10
083abd70 t suf_ok
083abd74 t .is_prefix_end
083abd74 T strstr
083abd85 t sf_00
083abd87 t sf_10
083abd96 t sf_20
083abda0 t sf_90
083abda5 t sf_fo
083abdab t .strstr_end
083abdab T strinstr
083abdc4 t si_99
083abdc6 t .strinstr_end
083abdc6 T strmake
083abddd t sm_00
083abdec t sm_90
083abdf0 t sm_99
083abdf6 t .strmake_end
083abdf6 T strnmov
083abe08 t snm_10
083abe10 t snm_20
083abe11 t snm_99
083abe16 t .strnmov_end
083abe16 T strmov
083abe22 t smo_10
083abe31 t .strmov_end
083abe31 T strxmov
083abe40 t start_str
083abe47 t next_str
083abe5b t .strxmov_end
083abe5c T longlong2str_with_dig_vector
083abf00 T longlong10_to_str
083abf90 T my_strtoll10
083ac29c t .my_strtoll10_end
083ac2a0 T bmove512
083ac820 T bchange
083ac8b0 T strxnmov
083ac900 T int2str
083ac9d0 T int10_to_str
083aca70 T str2int
083acca0 T my_strtod
083ad020 T my_atof
083ad050 T llstr
083ad090 T my_parse_charset_xml
083ad130 t cs_file_sec
083ad180 t cs_leave
083ad1d0 t fill_uchar
083ad280 t mstr
083ad2c0 t cs_value
083ad6c0 t cs_enter
083ad740 T my_strnxfrmlen_simple
083ad760 T my_strnncoll_simple
083ad7f0 T my_strnncollsp_simple
083ad8b0 T my_caseup_str_8bit
083ad8e0 T my_casedn_str_8bit
083ad910 T my_caseup_8bit
083ad950 T my_casedn_8bit
083ad990 T my_strcasecmp_8bit
083ada00 T my_mb_wc_8bit
083ada40 T my_wc_mb_8bit
083adab0 T my_hash_sort_simple
083adb40 T my_strntol_8bit
083add00 T my_strntoul_8bit
083ade90 T my_strntoll_8bit
083ae140 T my_strntoull_8bit
083ae390 T my_wildcmp_8bit
083ae580 T my_like_range_simple
083ae6a0 T my_scan_8bit
083ae740 T my_numchars_8bit
083ae750 T my_numcells_8bit
083ae760 T my_charpos_8bit
083ae770 T my_well_formed_len_8bit
083ae790 T my_lengthsp_8bit
083ae7d0 T my_instr_simple
083ae8f0 t pcmp
083ae920 t my_coll_init_simple
083ae960 T my_propagate_simple
083ae970 T my_propagate_complex
083ae980 t my_cset_init_8bit
083aec00 T my_strtoll10_8bit
083aec20 T my_fill_8bit
083aec40 T my_strnxfrm_simple
083aecd0 T my_longlong10_to_str_8bit
083aee50 T my_long10_to_str_8bit
083aef20 T my_strntod_8bit
083aef70 T my_snprintf_8bit
083aefa0 t my_strnncoll_big5_internal
083af0c0 t my_strnncoll_big5
083af110 t my_strnncollsp_big5
083af1c0 t my_like_range_big5
083af3a0 t ismbchar_big5
083af3f0 t mbcharlen_big5
083af410 t my_wc_mb_big5
083af590 t my_mb_wc_big5
083af640 t my_well_formed_len_big5
083af6d0 t my_strnxfrm_big5
083afd80 t ismbchar_cp932
083afde0 t mbcharlen_cp932
083afe10 t my_strnncoll_cp932_internal
083aff10 t my_strnncoll_cp932
083aff70 t my_strnncollsp_cp932
083b0020 t my_like_range_cp932
083b0170 t func_cp932_uni_onechar
083b0250 t my_wc_mb_cp932
083b03c0 t my_mb_wc_cp932
083b0450 t my_numcells_cp932
083b04a0 t my_well_formed_len_cp932
083b0560 t my_strnxfrm_cp932
083b0620 t my_strnncoll_czech
083b0970 t my_strnncollsp_czech
083b09f0 t my_like_range_czech
083b0ae0 t my_strnxfrm_czech
083b0cc0 t ismbchar_eucjpms
083b0d90 t mbcharlen_eucjpms
083b0dd0 t my_well_formed_len_eucjpms
083b0e90 t my_numcells_eucjp
083b0ef0 t my_mb_wc_euc_jp
083b1e80 t my_wc_mb_euc_jp
083b2aa0 t ismbchar_euc_kr
083b2b10 t mbcharlen_euc_kr
083b2b30 t my_wc_mb_euc_kr
083b2cc0 t my_mb_wc_euc_kr
083b2d70 t ismbchar_gb2312
083b2db0 t mbcharlen_gb2312
083b2dd0 t my_wc_mb_gb2312
083b2f50 t my_mb_wc_gb2312
083b3020 t gbksortorder
083b3080 T my_strnncoll_gbk_internal
083b31e0 T my_strnncoll_gbk
083b3240 t my_strnncollsp_gbk
083b32f0 t my_like_range_gbk
083b34f0 t ismbchar_gbk
083b3550 t mbcharlen_gbk
083b3570 t my_wc_mb_gbk
083b36d0 t my_mb_wc_gbk
083b3760 t my_well_formed_len_gbk
083b37f0 t my_strnxfrm_gbk
083b38e0 t ismbchar_sjis
083b3940 t mbcharlen_sjis
083b3970 t my_strnncoll_sjis_internal
083b3a70 t my_strnncoll_sjis
083b3ad0 t my_strnncollsp_sjis
083b3b90 t my_like_range_sjis
083b3d20 t func_sjis_uni_onechar
083b3da0 t my_wc_mb_sjis
083b3f00 t my_mb_wc_sjis
083b3f90 t my_numcells_sjis
083b3fe0 t my_well_formed_len_sjis
083b40a0 t my_strnxfrm_sjis
083b4160 t my_mb_wc_tis620
083b41a0 t my_wc_mb_tis620
083b41e0 t thai2sortable
083b42d0 t my_strnxfrm_tis620
083b4340 t my_strnncollsp_tis620
083b4480 t my_strnncoll_tis620
083b4560 t ismbchar_ujis
083b4630 t mbcharlen_ujis
083b4670 t my_well_formed_len_ujis
083b4730 t my_numcells_eucjp
083b4790 t my_mb_wc_euc_jp
083b56e0 t my_wc_mb_euc_jp
083b6210 T my_wildcmp_unicode
083b6570 t my_utf8_uni
083b6660 t my_uni_utf8
083b6730 t my_caseup_utf8
083b67e0 t my_hash_sort_utf8
083b68e0 t my_casedn_utf8
083b6990 t my_wildcmp_utf8
083b69e0 t my_strnxfrmlen_utf8
083b6a00 t my_strnxfrm_utf8
083b6ac0 t my_ismbchar_utf8
083b6af0 t my_mbcharlen_utf8
083b6b40 t my_casedn_str_utf8
083b6b80 t my_caseup_str_utf8
083b6bc0 t my_strcasecmp_utf8
083b6d30 t my_strnncollsp_utf8
083b6f00 t my_strnncoll_utf8
083b7080 t my_ucs2_uni
083b70b0 t my_uni_ucs2
083b70e0 t my_caseup_ucs2
083b7170 t my_hash_sort_ucs2
083b7280 t my_caseup_str_ucs2
083b7290 t my_casedn_ucs2
083b7320 t my_casedn_str_ucs2
083b7330 t my_strnncoll_ucs2
083b7490 t my_strnncollsp_ucs2
083b75d0 t my_strncasecmp_ucs2
083b7710 t my_strnxfrm_ucs2
083b7800 t my_ismbchar_ucs2
083b7810 t my_mbcharlen_ucs2
083b7820 T my_strntol_ucs2
083b7a40 T my_strntoul_ucs2
083b7c30 T my_strntoll_ucs2
083b7f10 T my_strntoull_ucs2
083b81b0 T my_l10tostr_ucs2
083b82c0 T my_ll10tostr_ucs2
083b8440 T my_strtoll10_ucs2
083b8880 t my_numchars_ucs2
083b8890 t my_charpos_ucs2
083b88b0 t my_well_formed_len_ucs2
083b88e0 t my_fill_ucs2
083b8920 t my_lengthsp_ucs2
083b8970 t my_strnncoll_ucs2_bin
083b8a70 t my_strnncollsp_ucs2_bin
083b8a80 t my_hash_sort_ucs2_bin
083b8ae0 T my_like_range_ucs2
083b8d00 T my_scan_ucs2
083b8d40 t my_strcasecmp_ucs2
083b8d90 t my_strcasecmp_ucs2_bin
083b8de0 t my_snprintf_ucs2
083b8f90 t my_wildcmp_ucs2_ci
083b8fe0 t my_wildcmp_ucs2_bin
083b9030 t my_strnxfrm_ucs2_bin
083b90b0 T my_strntod_ucs2
083b9170 t my_uca_scanner_init_ucs2
083b91b0 t my_uca_scanner_next_ucs2
083b9300 t my_uca_scanner_init_any
083b9340 t my_uca_scanner_next_any
083b94f0 t my_strnncoll_uca
083b9590 t my_strnncollsp_uca
083b96b0 t my_hash_sort_uca
083b9760 t my_strnxfrm_uca
083b9800 t my_coll_lexem_next
083b9930 t my_strnncoll_any_uca
083b9970 t my_strnncollsp_any_uca
083b99b0 t my_hash_sort_any_uca
083b99e0 t my_strnxfrm_any_uca
083b9a10 t my_strnncoll_ucs2_uca
083b9a50 t my_strnncollsp_ucs2_uca
083b9a90 t my_hash_sort_ucs2_uca
083b9ac0 t my_strnxfrm_ucs2_uca
083b9af0 t my_uca_charcmp
083b9c10 t my_wildcmp_uca
083b9ea0 t my_coll_lexem_print_error
083b9f10 t my_coll_init_uca
083ba660 t my_strnncoll_win1250ch
083ba8f0 t my_strnncollsp_win1250ch
083ba970 t my_like_range_win1250ch
083baa70 t my_strnxfrm_win1250ch
083babe0 t my_coll_init_8bit_bin
083babf0 T my_lengthsp_binary
083bac00 t my_strnncollsp_8bit_bin
083bacb0 t my_case_str_bin
083bacc0 t my_case_bin
083bacd0 T my_mbcharlen_8bit
083bace0 t my_mb_wc_bin
083bad00 t my_wc_mb_bin
083bad30 T my_hash_sort_bin
083bad90 t my_wildcmp_bin
083baf40 t my_instr_bin
083bb040 t my_strnxfrm_8bit_bin
083bb0c0 t my_strnxfrm_bin
083bb140 t my_strnncoll_8bit_bin
083bb1a0 t my_strnncoll_binary
083bb200 t my_strnncollsp_binary
083bb210 t my_strcasecmp_bin
083bb230 t my_mb_wc_latin1
083bb270 t my_wc_mb_latin1
083bb2b0 t my_strnncoll_latin1_de
083bb3d0 t my_strnncollsp_latin1_de
083bb500 T my_hash_sort_latin1_de
083bb5c0 t my_strnxfrm_latin1_de
083bb670 T my_vsnprintf
083bb980 T my_snprintf
083bb9b0 t lex2str
083bba20 t my_xml_value
083bba70 T my_xml_parser_free
083bba80 T my_xml_set_value_handler
083bbaa0 T my_xml_set_enter_handler
083bbac0 T my_xml_set_leave_handler
083bbae0 T my_xml_set_user_data
083bbb00 T my_xml_error_string
083bbb10 T my_xml_error_pos
083bbb60 T my_xml_error_lineno
083bbba0 T my_xml_parser_create
083bbbd0 t my_xml_enter
083bbca0 t mstr
083bbce0 t my_xml_leave
083bbdd0 t my_xml_norm_text
083bbe30 t my_xml_scan
083bc090 T my_xml_parse
083bc3f0 T max_decimal
083bc4b0 t remove_leading_zeroes
083bc560 T decimal_actual_fraction
083bc680 T do_mini_left_shift
083bc780 T do_mini_right_shift
083bc870 T decimal2double
083bc8f0 T decimal_size
083bc940 T decimal_bin_size
083bc9b0 T decimal_result_size
083bcae0 T decimal_is_zero
083bcb50 t do_sub
083bd0a0 T decimal_cmp
083bd0d0 t do_add
083bd410 T decimal_sub
083bd440 T decimal_add
083bd470 T decimal_round
083bd9e0 T decimal_shift
083be070 T decimal2bin
083be420 T decimal2longlong
083be560 T decimal2ulonglong
083be660 t ull2dec
083be780 T longlong2decimal
083be7c0 T ulonglong2decimal
083be7e0 T decimal2string
083beaf0 T bin2decimal
083beed0 t do_div_mod
083bfab0 T decimal_mod
083bfad0 T decimal_div
083bfb00 T decimal_mul
083bfef0 T internal_str2dec
083c0320 T double2decimal
083c0380 t my_str_malloc_default
083c03b0 t my_str_free_default
083c03c0 T longlong2str
083c0400 T my_caseup_mb
083c0460 T my_casedn_mb
083c04c0 T my_numchars_mb
083c0510 T my_charpos_mb
083c0590 T my_well_formed_len_mb
083c0610 T my_instr_mb
083c0740 t my_strnncollsp_mb_bin
083c07f0 t my_hash_sort_mb_bin
083c0850 T my_numcells_mb
083c08d0 t my_strcasecmp_mb_bin
083c08f0 t my_wildcmp_mb_bin
083c0d30 t my_strnncoll_mb_bin
083c0d90 T my_wildcmp_mb
083c11e0 T my_like_range_mb
083c1390 t my_strnxfrm_mb_bin
083c1410 T my_strcasecmp_mb
083c14c0 T my_casedn_str_mb
083c1520 T my_caseup_str_mb
083c1580 T compressBound
083c15a0 T compress2
083c1660 T compress
083c16a0 T get_crc_table
083c16b0 T crc32
083c1960 t gf2_matrix_times
083c1990 t gf2_matrix_square
083c19c0 T crc32_combine
083c1a80 T deflateSetHeader
083c1ab0 T deflatePrime
083c1b00 T deflateTune
083c1b40 t putShortMSB
083c1b80 T deflateEnd
083c1cc0 t longest_match
083c1e50 t longest_match_fast
083c1f10 T deflateCopy
083c2150 t flush_pending
083c21d0 t fill_window
083c23c0 T deflateSetDictionary
083c2520 T deflate
083c2f20 T deflateParams
083c3030 t deflate_slow
083c3580 t deflate_fast
083c3980 t deflate_stored
083c3b10 T deflateBound
083c3b60 T deflateReset
083c3cf0 T deflateInit2_
083c3fd0 T deflateInit_
083c4020 T gzungetc
083c4080 T gzeof
083c40b0 T gzdirect
083c40d0 T gzclearerr
083c4110 T gzerror
083c4230 t do_flush
083c4330 t putLong
083c4380 t destroy
083c4490 T gzclose
083c44f0 T gzwrite
083c45d0 T gzputs
083c4600 T gzputc
083c4640 T gzrewind
083c46e0 T gzflush
083c4720 T gzprintf
083c4790 t get_byte
083c4830 t getLong
083c4890 t check_header
083c4a30 T gzread
083c4d10 T gzseek
083c4f50 T gztell
083c4f80 T gzgets
083c5000 T gzgetc
083c5040 T gzsetparams
083c50e0 t gz_open
083c5460 T gzdopen
083c54b0 T gzopen
083c54d0 T inflateReset
083c5570 T inflatePrime
083c55f0 T inflateInit2_
083c56e0 T inflateInit_
083c5710 T inflateEnd
083c5780 T inflateGetHeader
083c57c0 t syncsearch
083c5850 T inflateSync
083c5940 T inflateSyncPoint
083c5970 T inflateCopy
083c5b00 t updatewindow
083c5c60 T inflateSetDictionary
083c5d70 T inflate
083c75f0 T inflate_table
083c7bc0 t init_block
083c7c40 T _tr_init
083c7cb0 t pqdownheap
083c7db0 t scan_tree
083c7ef0 t send_tree
083c8520 T _tr_tally
083c8640 t compress_block
083c8b80 t build_tree
083c9020 t bi_flush
083c90a0 T _tr_align
083c9370 t bi_windup
083c93e0 T _tr_stored_block
083c9500 T _tr_flush_block
083c9ad0 T uncompress
083c9b90 T zlibVersion
083c9ba0 T zlibCompileFlags
083c9bb0 T zError
083c9bd0 T zcfree
083c9be0 T zcalloc
083c9c00 T adler32
083c9e50 T adler32_combine
083c9f00 T inflate_fast
083ca3a0 t __fixunsdfdi
083ca460 t __fixunssfdi
083ca520 t __divdi3
083ca6a0 t __moddi3
083ca8e0 t __udivdi3
083caa20 t __umoddi3
083cac10 T __libc_csu_fini
083cac80 T __libc_csu_init
083cacd8 t __i686.get_pc_thunk.bx
083cace0 t __do_global_ctors_aux
083cad04 T _fini
083cad20 R _fp_hw
083cad24 R _IO_stdin_used
083cad40 V _ZTV18st_select_lex_node
083cada0 V _ZTV18st_select_lex_unit
083cae00 V _ZTV13st_select_lex
083cc218 V _ZTV6st_lex
083cc5c0 V _ZTV18Hybrid_type_traits
083cc600 V _ZTV26Hybrid_type_traits_decimal
083cc640 V _ZTV26Hybrid_type_traits_integer
083cc680 V _ZTV4Item
083cc7c0 V _ZTV8Item_num
083cc920 V _ZTV20Item_static_int_func
083cca80 V _ZTV22Item_static_float_func
083ccbe0 V _ZTV23Item_static_string_func
083ccd20 V _ZTV16Item_sp_variable
083cce60 V _ZTV12Item_splocal
083ccfa0 V _ZTV14Item_case_expr
083cd0e0 V _ZTV15Item_name_const
083cd220 V _ZTV10Item_ident
083cd360 V _ZTV10Item_field
083cd4a0 V _ZTV8Item_int
083cd600 V _ZTV9Item_uint
083cd760 V _ZTV12Item_decimal
083cd8c0 V _ZTV11Item_string
083cda00 V _ZTV9Item_null
083cdb40 V _ZTV10Item_param
083cdc80 V _ZTV16Item_copy_string
083cddc0 V _ZTV20Item_ref_null_helper
083cdf20 V _ZTV17Item_empty_string
083ce060 V _ZTV17Item_int_with_ref
083ce1c0 V _ZTV10Item_float
083ce320 V _ZTV15Item_hex_string
083ce460 V _ZTV8Item_ref
083ce5c0 V _ZTV15Item_direct_ref
083ce720 V _ZTV20Item_direct_view_ref
083ce880 V _ZTV16Item_null_helper
083ce9e0 V _ZTV18Item_default_value
083ceb20 V _ZTV17Item_insert_value
083cec60 V _ZTV18Item_trigger_field
083ceda0 V _ZTV10Item_cache
083cef00 V _ZTV14Item_cache_int
083cf060 V _ZTV15Item_cache_real
083cf1c0 V _ZTV18Item_cache_decimal
083cf320 V _ZTV14Item_cache_str
083cf480 V _ZTV14Item_cache_row
083cf5e0 V _ZTV16Item_type_holder
083cf720 V _ZTV17Item_result_field
083cf880 V _ZTV15Item_bin_string
083cfd20 V _ZTV8Item_sum
083cfea0 V _ZTV12Item_sum_int
083d0020 V _ZTV12Item_sum_num
083d01a0 V _ZTV15Item_sum_hybrid
083d0320 V _ZTV12Item_sum_sum
083d04a0 V _ZTV17Item_sum_distinct
083d0620 V _ZTV21Item_sum_avg_distinct
083d07a0 V _ZTV14Item_sum_count
083d0920 V _ZTV12Item_sum_avg
083d0aa0 V _ZTV12Item_sum_std
083d0c20 V _ZTV17Item_sum_variance
083d0da0 V _ZTV12Item_sum_min
083d0f20 V _ZTV12Item_sum_max
083d10a0 V _ZTV12Item_sum_bit
083d1220 V _ZTV11Item_sum_or
083d13a0 V _ZTV12Item_sum_xor
083d1520 V _ZTV12Item_sum_and
083d16a0 V _ZTV14Item_avg_field
083d1800 V _ZTV14Item_std_field
083d1960 V _ZTV19Item_variance_field
083d1ac0 V _ZTV23Item_sum_count_distinct
083d1c40 V _ZTV12Item_udf_sum
083d1dc0 V _ZTV18Item_sum_udf_float
083d1f40 V _ZTV20Item_sum_udf_decimal
083d20c0 V _ZTV16Item_sum_udf_int
083d2240 V _ZTV16Item_sum_udf_str
083d23c0 V _ZTV22Item_func_group_concat
083d2540 V _ZTV31Hybrid_type_traits_fast_decimal
083d2718 V _ZTV11Cached_item
083d2730 V _ZTV15Cached_item_str
083d2748 V _ZTV16Cached_item_real
083d2760 V _ZTV15Cached_item_int
083d2778 V _ZTV17Cached_item_field
083d2790 V _ZTV19Cached_item_decimal
083d27c0 V _ZTV9Item_func
083d2920 V _ZTV14Item_real_func
083d2a80 V _ZTV13Item_int_func
083d2be0 V _ZTV11Item_num_op
083d2d60 V _ZTV14Item_func_num1
083d2ee0 V _ZTV19Item_func_numhybrid
083d3060 V _ZTV16Item_func_signed
083d31c0 V _ZTV18Item_func_unsigned
083d3320 V _ZTV21Item_decimal_typecast
083d3480 V _ZTV14Item_func_plus
083d3600 V _ZTV21Item_func_additive_op
083d3780 V _ZTV15Item_func_minus
083d3900 V _ZTV13Item_func_mul
083d3a80 V _ZTV13Item_func_div
083d3c00 V _ZTV17Item_func_int_div
083d3d60 V _ZTV13Item_func_mod
083d3ee0 V _ZTV13Item_func_neg
083d4060 V _ZTV13Item_func_abs
083d41e0 V _ZTV12Item_func_ln
083d4340 V _ZTV13Item_func_log
083d44a0 V _ZTV14Item_func_log2
083d4600 V _ZTV15Item_func_log10
083d4760 V _ZTV13Item_func_exp
083d48c0 V _ZTV14Item_func_sqrt
083d4a20 V _ZTV13Item_func_pow
083d4b80 V _ZTV14Item_func_acos
083d4ce0 V _ZTV14Item_func_asin
083d4e40 V _ZTV14Item_func_atan
083d4fa0 V _ZTV13Item_func_cos
083d5100 V _ZTV13Item_func_sin
083d5260 V _ZTV13Item_func_tan
083d53c0 V _ZTV20Item_func_shift_left
083d5520 V _ZTV21Item_func_shift_right
083d5680 V _ZTV17Item_func_bit_neg
083d57e0 V _ZTV17Item_func_integer
083d5940 V _ZTV17Item_func_int_val
083d5ac0 V _ZTV17Item_func_ceiling
083d5c40 V _ZTV15Item_func_floor
083d5dc0 V _ZTV15Item_func_round
083d5f40 V _ZTV14Item_func_rand
083d60a0 V _ZTV14Item_func_sign
083d6200 V _ZTV15Item_func_units
083d6360 V _ZTV17Item_func_min_max
083d64c0 V _ZTV16Item_func_length
083d6620 V _ZTV21Item_func_char_length
083d6780 V _ZTV22Item_func_coercibility
083d68e0 V _ZTV16Item_func_locate
083d6a40 V _ZTV15Item_func_field
083d6ba0 V _ZTV15Item_func_ascii
083d6d00 V _ZTV13Item_func_ord
083d6e60 V _ZTV21Item_func_find_in_set
083d6fc0 V _ZTV19Item_func_bit_count
083d7120 V _ZTV13Item_udf_func
083d7280 V _ZTV19Item_func_udf_float
083d73e0 V _ZTV17Item_func_udf_int
083d7540 V _ZTV21Item_func_udf_decimal
083d76a0 V _ZTV17Item_func_udf_str
083d7800 V _ZTV20Item_master_pos_wait
083d7960 V _ZTV18Item_func_get_lock
083d7ac0 V _ZTV22Item_func_release_lock
083d7c20 V _ZTV24Item_func_last_insert_id
083d7d80 V _ZTV19Item_func_benchmark
083d7ee0 V _ZTV15Item_func_sleep
083d8040 V _ZTV22Item_func_set_user_var
083d81a0 V _ZTV22Item_func_get_user_var
083d8300 V _ZTV26Item_user_var_as_out_param
083d8440 V _ZTV24Item_func_get_system_var
083d85a0 V _ZTV19Item_func_inet_aton
083d8700 V _ZTV15Item_func_match
083d8860 V _ZTV17Item_func_bit_xor
083d89c0 V _ZTV22Item_func_is_free_lock
083d8b20 V _ZTV22Item_func_is_used_lock
083d8c80 V _ZTV19Item_func_row_count
083d8de0 V _ZTV12Item_func_sp
083d8f40 V _ZTV20Item_func_found_rows
083d90a0 V _ZTV13Item_func_bit
083d9200 V _ZTV13Item_dec_func
083d9360 V _ZTV12set_var_base
083d9700 V _ZTV10Eq_creator
083d9718 V _ZTV10Ne_creator
083d9730 V _ZTV10Gt_creator
083d9748 V _ZTV10Lt_creator
083d9760 V _ZTV10Ge_creator
083d9778 V _ZTV10Le_creator
083d97a0 V _ZTV13Item_func_not
083d9900 V _ZTV17Item_func_not_all
083d9a60 V _ZTV17Item_func_nop_all
083d9bc0 V _ZTV15Item_bool_func2
083d9d20 V _ZTV17Item_in_optimizer
083d9e80 V _ZTV12Item_func_eq
083da000 V _ZTV15Item_func_equal
083da180 V _ZTV12Item_func_ne
083da300 V _ZTV12Item_func_ge
083da480 V _ZTV12Item_func_gt
083da600 V _ZTV12Item_func_le
083da780 V _ZTV12Item_func_lt
083da900 V _ZTV16Item_func_strcmp
083daa60 V _ZTV18Item_func_interval
083dabc0 V _ZTV17Item_func_between
083dad20 V _ZTV16Item_func_ifnull
083daea0 V _ZTV12Item_func_if
083db000 V _ZTV16Item_func_nullif
083db160 V _ZTV14Item_func_case
083db2c0 V _ZTV18Item_func_coalesce
083db430 V _ZTV9in_string
083db448 V _ZTV6in_row
083db460 V _ZTV11in_longlong
083db478 V _ZTV9in_double
083db490 V _ZTV10in_decimal
083db4c0 V _ZTV20cmp_item_sort_string
083db500 V _ZTV12cmp_item_int
083db540 V _ZTV13cmp_item_real
083db580 V _ZTV12cmp_item_row
083db5c0 V _ZTV16cmp_item_decimal
083db600 V _ZTV12Item_func_in
083db760 V _ZTV16Item_func_bit_or
083db8c0 V _ZTV17Item_func_bit_and
083dba20 V _ZTV9Item_cond
083dbb80 V _ZTV13Item_cond_and
083dbce0 V _ZTV12Item_cond_or
083dbe40 V _ZTV16Item_func_isnull
083dbfa0 V _ZTV21Item_is_not_null_test
083dc100 V _ZTV19Item_func_isnotnull
083dc260 V _ZTV14Item_func_like
083dc3c0 V _ZTV15Item_func_regex
083dc520 V _ZTV13Item_cond_xor
083dc680 V _ZTV24Item_bool_rowready_func2
083dc800 V _ZTV10Item_equal
083dc960 V _ZTV14Item_bool_func
083dcac0 V _ZTV17Item_func_opt_neg
083dcc20 V _ZTV8cmp_item
083dcc60 V _ZTV15cmp_item_string
083dcc88 V _ZTV9in_vector
083dcca0 V _ZTV30cmp_item_sort_string_in_static
083dce60 V _ZTV13Item_str_func
083dcfc0 V _ZTV13Item_func_md5
083dd120 V _ZTV13Item_func_sha
083dd280 V _ZTV21Item_func_aes_encrypt
083dd3e0 V _ZTV21Item_func_aes_decrypt
083dd540 V _ZTV16Item_func_concat
083dd6a0 V _ZTV21Item_func_des_encrypt
083dd800 V _ZTV21Item_func_des_decrypt
083dd960 V _ZTV19Item_func_concat_ws
083ddac0 V _ZTV17Item_func_reverse
083ddc20 V _ZTV17Item_func_replace
083ddd80 V _ZTV16Item_func_insert
083ddee0 V _ZTV13Item_str_conv
083de040 V _ZTV14Item_func_left
083de1a0 V _ZTV15Item_func_right
083de300 V _ZTV16Item_func_substr
083de460 V _ZTV22Item_func_substr_index
083de5c0 V _ZTV15Item_func_ltrim
083de720 V _ZTV15Item_func_rtrim
083de880 V _ZTV14Item_func_trim
083de9e0 V _ZTV18Item_func_password
083deb40 V _ZTV22Item_func_old_password
083deca0 V _ZTV17Item_func_encrypt
083dee00 V _ZTV16Item_func_encode
083def60 V _ZTV16Item_func_decode
083df0c0 V _ZTV18Item_func_sysconst
083df220 V _ZTV18Item_func_database
083df380 V _ZTV14Item_func_user
083df4e0 V _ZTV17Item_func_soundex
083df640 V _ZTV16Item_func_format
083df7a0 V _ZTV13Item_func_elt
083df900 V _ZTV18Item_func_make_set
083dfa60 V _ZTV14Item_func_char
083dfbc0 V _ZTV16Item_func_repeat
083dfd20 V _ZTV14Item_func_rpad
083dfe80 V _ZTV14Item_func_lpad
083dffe0 V _ZTV14Item_func_conv
083e0140 V _ZTV22Item_func_conv_charset
083e02a0 V _ZTV23Item_func_set_collation
083e0400 V _ZTV17Item_func_charset
083e0560 V _ZTV19Item_func_collation
083e06c0 V _ZTV13Item_func_hex
083e0820 V _ZTV15Item_func_unhex
083e0980 V _ZTV16Item_func_binary
083e0ae0 V _ZTV14Item_load_file
083e0c40 V _ZTV20Item_func_export_set
083e0da0 V _ZTV19Item_func_inet_ntoa
083e0f00 V _ZTV15Item_func_quote
083e1060 V _ZTV29Item_func_uncompressed_length
083e11c0 V _ZTV15Item_func_crc32
083e1320 V _ZTV18Item_func_compress
083e1480 V _ZTV20Item_func_uncompress
083e15e0 V _ZTV14Item_func_uuid
083e1960 V _ZTV20Item_func_period_add
083e1ac0 V _ZTV21Item_func_period_diff
083e1c20 V _ZTV17Item_func_to_days
083e1d80 V _ZTV19Item_func_dayofyear
083e1ee0 V _ZTV20Item_func_dayofmonth
083e2040 V _ZTV15Item_func_month
083e21a0 V _ZTV19Item_func_monthname
083e2300 V _ZTV17Item_func_quarter
083e2460 V _ZTV14Item_func_hour
083e25c0 V _ZTV16Item_func_minute
083e2720 V _ZTV16Item_func_second
083e2880 V _ZTV14Item_func_week
083e29e0 V _ZTV18Item_func_yearweek
083e2b40 V _ZTV17Item_func_weekday
083e2ca0 V _ZTV17Item_func_dayname
083e2e00 V _ZTV14Item_func_year
083e2f60 V _ZTV24Item_func_unix_timestamp
083e30c0 V _ZTV21Item_func_time_to_sec
083e3220 V _ZTV9Item_date
083e3380 V _ZTV19Item_func_from_days
083e34e0 V _ZTV17Item_func_curdate
083e3640 V _ZTV23Item_func_curdate_local
083e37a0 V _ZTV21Item_func_curdate_utc
083e3900 V _ZTV17Item_func_curtime
083e3a60 V _ZTV23Item_func_curtime_local
083e3bc0 V _ZTV21Item_func_curtime_utc
083e3d20 V _ZTV19Item_func_now_local
083e3e80 V _ZTV17Item_func_now_utc
083e3fe0 V _ZTV13Item_func_now
083e4140 V _ZTV23Item_func_sysdate_local
083e42a0 V _ZTV21Item_func_sec_to_time
083e4400 V _ZTV21Item_func_date_format
083e4560 V _ZTV23Item_func_from_unixtime
083e46c0 V _ZTV20Item_func_convert_tz
083e4820 V _ZTV22Item_date_add_interval
083e4980 V _ZTV12Item_extract
083e4ae0 V _ZTV18Item_char_typecast
083e4c40 V _ZTV13Item_typecast
083e4da0 V _ZTV22Item_datetime_typecast
083e4f00 V _ZTV18Item_time_typecast
083e5060 V _ZTV18Item_date_typecast
083e51c0 V _ZTV18Item_func_makedate
083e5320 V _ZTV18Item_func_add_time
083e5480 V _ZTV18Item_func_timediff
083e55e0 V _ZTV18Item_func_maketime
083e5740 V _ZTV21Item_func_microsecond
083e58a0 V _ZTV24Item_func_timestamp_diff
083e5a00 V _ZTV20Item_func_get_format
083e5b60 V _ZTV21Item_func_str_to_date
083e5cc0 V _ZTV18Item_func_last_day
083e6220 V _ZTV24Item_typecast_maybe_null
083e6380 V _ZTV14Item_date_func
083e6a40 V _ZTV15Item_func_ucase
083e6ba0 V _ZTV20Item_func_bit_length
083e6d00 V _ZTV15Item_func_lcase
083e6ee0 V _ZTV14Item_subselect
083e7040 V _ZTV24Item_singlerow_subselect
083e71a0 V _ZTV21Item_maxmin_subselect
083e7300 V _ZTV21Item_exists_subselect
083e7460 V _ZTV17Item_in_subselect
083e75c0 V _ZTV21Item_allany_subselect
083e7720 V _ZTV30subselect_single_select_engine
083e7760 V _ZTV22subselect_union_engine
083e77a0 V _ZTV31subselect_uniquesubquery_engine
083e77e0 V _ZTV30subselect_indexsubquery_engine
083e7820 V _ZTV16subselect_engine
083e7860 V _ZTV16select_subselect
083e78a0 V _ZTV25select_result_interceptor
083e79c0 V _ZTV8Item_row
083e7b00 V _ZTV18Item_geometry_func
083e7c60 V _ZTV28Item_func_geometry_from_text
083e7dc0 V _ZTV27Item_func_geometry_from_wkb
083e7f20 V _ZTV16Item_func_as_wkt
083e8080 V _ZTV16Item_func_as_wkb
083e81e0 V _ZTV23Item_func_geometry_type
083e8340 V _ZTV18Item_func_envelope
083e84a0 V _ZTV18Item_func_centroid
083e8600 V _ZTV24Item_func_spatial_decomp
083e8760 V _ZTV26Item_func_spatial_decomp_n
083e88c0 V _ZTV15Item_func_point
083e8a20 V _ZTV28Item_func_spatial_collection
083e8b80 V _ZTV21Item_func_spatial_rel
083e8ce0 V _ZTV17Item_func_isempty
083e8e40 V _ZTV18Item_func_issimple
083e8fa0 V _ZTV18Item_func_isclosed
083e9100 V _ZTV19Item_func_dimension
083e9260 V _ZTV25Item_func_numinteriorring
083e93c0 V _ZTV23Item_func_numgeometries
083e9520 V _ZTV19Item_func_numpoints
083e9680 V _ZTV11Item_func_x
083e97e0 V _ZTV11Item_func_y
083e9940 V _ZTV14Item_func_area
083e9aa0 V _ZTV17Item_func_glength
083e9c00 V _ZTV14Item_func_srid
083e9f20 V _ZTV9Field_num
083ea020 V _ZTV5Field
083ea120 V _ZTV10Field_null
083ea220 V _ZTV13Field_decimal
083ea320 V _ZTV17Field_new_decimal
083ea420 V _ZTV10Field_tiny
083ea520 V _ZTV11Field_short
083ea620 V _ZTV12Field_medium
083ea720 V _ZTV10Field_long
083ea820 V _ZTV14Field_longlong
083ea920 V _ZTV11Field_float
083eaa20 V _ZTV12Field_double
083eab20 V _ZTV10Field_real
083eac20 V _ZTV15Field_timestamp
083ead20 V _ZTV10Field_time
083eae20 V _ZTV10Field_year
083eaf20 V _ZTV10Field_date
083eb020 V _ZTV13Field_newdate
083eb120 V _ZTV14Field_datetime
083eb220 V _ZTV12Field_string
083eb320 V _ZTV9Field_str
083eb420 V _ZTV13Field_longstr
083eb520 V _ZTV15Field_varstring
083eb620 V _ZTV10Field_blob
083eb720 V _ZTV10Field_geom
083eb820 V _ZTV10Field_enum
083eb920 V _ZTV9Field_set
083eba20 V _ZTV9Field_bit
083ebb20 V _ZTV17Field_bit_as_char
083ebc18 r field_separator
083ec240 V _ZTV3THD
083ec280 V _ZTV13select_result
083ec2c0 V _ZTV11select_send
083ec300 V _ZTV14select_to_file
083ec340 V _ZTV13select_export
083ec380 V _ZTV11select_dump
083ec3c0 V _ZTV26select_singlerow_subselect
083ec400 V _ZTV31select_max_min_finder_subselect
083ec440 V _ZTV23select_exists_subselect
083ec480 V _ZTV14select_dumpvar
083ec4c0 V _ZTV11Query_arena
083ec4e0 V _ZTV9Statement
083ec55c V _ZN3THD13DEFAULT_WHEREE
083ec560 V _ZTV5ilink
083ec570 V _ZTV18Item_change_record
083ec580 V _ZTV15Item_return_int
083ec6e0 V _ZTV8Protocol
083ec740 V _ZTV15Protocol_simple
083ec7a0 V _ZTV13Protocol_prep
083ec9a8 V _ZTV12mapped_files
083f6340 r sql_mode_names_len
083f6b30 V _ZTV12Comp_creator
083f6b48 V _ZTV16Unknown_key_hook
083f6b58 V _ZTV13i_string_pair
083f6b68 V _ZTV8i_string
083f6ba0 V _ZTV7sys_var
083f6be0 V _ZTV11sys_var_str
083f6c20 V _ZTV16sys_var_long_ptr
083f6c60 V _ZTV21sys_var_ulonglong_ptr
083f6ca0 V _ZTV16sys_var_bool_ptr
083f6ce0 V _ZTV12sys_var_enum
083f6d20 V _ZTV17sys_var_thd_ulong
083f6d60 V _ZTV19sys_var_thd_ha_rows
083f6da0 V _ZTV21sys_var_thd_ulonglong
083f6de0 V _ZTV16sys_var_thd_bool
083f6e20 V _ZTV16sys_var_thd_enum
083f6e60 V _ZTV15sys_var_thd_bit
083f6ea0 V _ZTV28sys_var_thd_date_time_format
083f6ee0 V _ZTV17sys_var_collation
083f6f20 V _ZTV21sys_var_character_set
083f6f60 V _ZTV32sys_var_character_set_connection
083f6fa0 V _ZTV28sys_var_character_set_client
083f6fe0 V _ZTV29sys_var_character_set_results
083f7020 V _ZTV28sys_var_character_set_server
083f7060 V _ZTV30sys_var_character_set_database
083f70a0 V _ZTV28sys_var_collation_connection
083f70e0 V _ZTV26sys_var_collation_database
083f7120 V _ZTV24sys_var_collation_server
083f7160 V _ZTV23sys_var_key_cache_param
083f71a0 V _ZTV23sys_var_key_buffer_size
083f71e0 V _ZTV22sys_var_key_cache_long
083f7220 V _ZTV24set_var_collation_client
083f7240 V _ZTV17sys_var_timestamp
083f7280 V _ZTV22sys_var_last_insert_id
083f72c0 V _ZTV17sys_var_insert_id
083f7300 V _ZTV26sys_var_slave_skip_counter
083f7340 V _ZTV26sys_var_sync_binlog_period
083f7380 V _ZTV18sys_var_rand_seed1
083f73c0 V _ZTV18sys_var_rand_seed2
083f7400 V _ZTV21sys_var_thd_time_zone
083f7440 V _ZTV21sys_var_max_user_conn
083f7480 V _ZTV7set_var
083f74a0 V _ZTV12set_var_user
083f74c0 V _ZTV16set_var_password
083f74e0 V _ZTV26sys_var_thd_storage_engine
083f7520 V _ZTV22sys_var_thd_table_type
083f7560 V _ZTV20sys_var_thd_sql_mode
083f75a0 V _ZTV30sys_var_trust_routine_creators
083f7ce0 V _ZTV11sys_var_thd
083f7d20 V _ZTV16sys_var_readonly
083f7d60 V _ZTV17sys_var_const_str
083f7d98 V _ZTV10NAMED_LIST
083f8460 r yystos
083fa0c0 r yydefgoto
083fa5e0 r yypgoto
083fab00 r yyr1
083fbaa0 r null_lex_str
083fbac0 r yyr2
083fc2a0 r yydefact
083fdf00 r yytable
08413700 r yycheck
08428f00 r yytranslate
08429560 r yypact
0842ed48 V _ZTV13sp_lex_keeper
0842ed60 V _ZTV13Item_func_max
0842eec0 V _ZTV13Item_func_min
0842f020 V _ZTV22Item_func_unique_users
0842f180 V _ZTV21Item_sum_sum_distinct
0842f480 V _ZTV14Field_iterator
0842f6a0 V _ZTV19Field_iterator_view
0842f6e0 V _ZTV20Field_iterator_table
0842f720 V _ZTV27Field_iterator_natural_join
0842f760 V _ZTV24Field_iterator_table_ref
0842fde0 V _ZTV16Item_null_result
0842ff20 V _ZTV14store_key_item
0842ff38 V _ZTV9store_key
0842ff50 V _ZTV20store_key_const_item
0842ff68 V _ZTV15store_key_field
0842ff80 V _ZTV9FT_SELECT
0842ffc0 V _ZTV8COND_CMP
0842ffe0 V _ZTV19Item_func_trig_cond
08430300 V _ZTV13select_insert
08430340 V _ZTV13select_create
08430380 V _ZTV14delayed_insert
08430390 V _ZTV11delayed_row
084304a0 V _ZTV26Select_fetch_protocol_prep
084304e0 V _ZTV18Prepared_statement
08430780 V _ZTV12multi_update
08430880 V _ZTV12multi_delete
08430940 V _ZTV16Item_proc_string
08430aa0 V _ZTV13Item_proc_int
08430c00 V _ZTV14Item_proc_real
08430d60 V _ZTV9Item_proc
08430ec0 V _ZTV21Item_sum_unique_users
08431640 V _ZTV11TC_LOG_MMAP
08431660 V _ZTV9MYSQL_LOG
08431ea0 V _ZTV6TC_LOG
08431ec0 V _ZTV12TC_LOG_DUMMY
08431ee0 r tc_log_magic
08431f20 V _ZTV9Log_event
08431f60 V _ZTV15Query_log_event
08431fa0 V _ZTV18Start_log_event_v3
08431fe0 V _ZTV28Format_description_log_event
08432020 V _ZTV14Load_log_event
08432060 V _ZTV16Rotate_log_event
084320a0 V _ZTV16Intvar_log_event
084320e0 V _ZTV14Rand_log_event
08432120 V _ZTV13Xid_log_event
08432160 V _ZTV18User_var_log_event
084321a0 V _ZTV15Slave_log_event
084321e0 V _ZTV14Stop_log_event
08432220 V _ZTV21Create_file_log_event
08432260 V _ZTV22Append_block_log_event
084322a0 V _ZTV21Delete_file_log_event
084322e0 V _ZTV22Execute_load_log_event
08432320 V _ZTV26Begin_load_query_log_event
08432360 V _ZTV28Execute_load_query_log_event
08432fb0 V _ZTV11GRANT_TABLE
08433190 V _ZTV10GRANT_NAME
084338a0 V _ZTV18QUICK_RANGE_SELECT
084338e0 V _ZTV24QUICK_INDEX_MERGE_SELECT
08433920 V _ZTV26QUICK_ROR_INTERSECT_SELECT
08433960 V _ZTV22QUICK_ROR_UNION_SELECT
084339a0 V _ZTV15TRP_INDEX_MERGE
084339b0 V _ZTV17TRP_ROR_INTERSECT
084339c0 V _ZTV13TRP_ROR_UNION
084339e0 V _ZTV14QUICK_SELECT_I
08433a20 V _ZTV23QUICK_RANGE_SELECT_GEOM
08433a60 V _ZTV17QUICK_SELECT_DESC
08433aa0 V _ZTV17TRP_GROUP_MIN_MAX
08433ac0 V _ZTV26QUICK_GROUP_MIN_MAX_SELECT
08433b00 V _ZTV15TABLE_READ_PLAN
08433b10 V _ZTV9TRP_RANGE
08433c60 V _ZTV7handler
08434500 V _ZTV7ha_heap
08434700 V _ZTV9ha_myisam
08434ce0 V _ZTV12ha_myisammrg
08434f00 V _ZTV11ha_innobase
08436880 r _ZZ18innodb_show_statusP3THDE13truncated_msg
08436920 r _ZZ31convert_search_mode_to_innobase16ha_rkey_functionE19__PRETTY_FUNCTION__
084369a0 r _ZZ18innobase_mysql_cmpE19__PRETTY_FUNCTION__
08436a20 r _ZZ33get_innobase_type_from_mysql_typePmP5FieldE19__PRETTY_FUNCTION__
08436a60 r _ZZN11ha_innobase19change_active_indexEjE19__PRETTY_FUNCTION__
08436ac0 r _ZZN11ha_innobase10update_rowEPKcPcE19__PRETTY_FUNCTION__
08436b20 r _ZZN11ha_innobase12rename_tableEPKcS1_E19__PRETTY_FUNCTION__
08436b60 r _ZZN11ha_innobase12delete_tableEPKcE19__PRETTY_FUNCTION__
084383a0 V _ZTV13Item_datetime
084384e0 r sp_data_access_name
08438598 V _ZTV11thread_info
084386c0 V _ZTV9field_str
08438700 V _ZTV10field_real
08438740 V _ZTV13field_decimal
08438780 V _ZTV14field_longlong
084387c0 V _ZTV15field_ulonglong
08438800 V _ZTV7analyse
08438840 V _ZTV9Procedure
08438880 V _ZTV10field_info
0843af20 V _ZTV12select_union
0843c304 R view_type
0843c310 V _ZTV12st_lex_local
0843c360 V _ZTV9Gis_point
0843c3c0 V _ZTV15Gis_line_string
0843c420 V _ZTV11Gis_polygon
0843c480 V _ZTV15Gis_multi_point
0843c4e0 V _ZTV21Gis_multi_line_string
0843c540 V _ZTV17Gis_multi_polygon
0843c5a0 V _ZTV23Gis_geometry_collection
0843c600 V _ZTV8Geometry
0843c7a0 V _ZTV18Server_side_cursor
0843c7e0 V _ZTV16Sensitive_cursor
0843c820 V _ZTV19Materialized_cursor
0843c860 V _ZTV18Select_materialize
0843c8a0 V _ZTV16Time_zone_system
0843c8c0 V _ZTV13Time_zone_utc
0843c8e0 V _ZTV12Time_zone_db
0843c900 V _ZTV16Time_zone_offset
0843c920 V _ZTV9Time_zone
0843c940 r mon_lengths
0843c9a0 r year_lengths
0843c9c0 r mon_starts
0843cf88 V _ZTV7sp_head
0843cfa0 V _ZTV8sp_instr
0843cfe0 V _ZTV13sp_instr_stmt
0843d020 V _ZTV12sp_instr_set
0843d060 V _ZTV26sp_instr_set_trigger_field
0843d0a0 V _ZTV13sp_instr_jump
0843d0e0 V _ZTV16sp_instr_jump_if
0843d120 V _ZTV20sp_instr_jump_if_not
0843d160 V _ZTV16sp_instr_freturn
0843d1a0 V _ZTV19sp_instr_hpush_jump
0843d1e0 V _ZTV13sp_instr_hpop
0843d220 V _ZTV16sp_instr_hreturn
0843d260 V _ZTV14sp_instr_cpush
0843d2a0 V _ZTV13sp_instr_cpop
0843d2e0 V _ZTV14sp_instr_copen
0843d320 V _ZTV15sp_instr_cclose
0843d360 V _ZTV15sp_instr_cfetch
0843d3a0 V _ZTV14sp_instr_error
0843d3e0 V _ZTV22sp_instr_set_case_expr
0843d780 V _ZTV24Select_fetch_into_spvars
0843d7c0 V _ZTV9sp_cursor
0843d8a0 V _ZTV22File_parser_dummy_hook
0843d908 V _ZTV35Handle_old_incorrect_sql_modes_hook
0843d94c R trg_event_type_names
0843d964 R trg_action_time_type_names
0843d974 R trigname_file_ext
0843d978 R triggers_file_ext
0843d97c r triggers_file_type
0843d984 r trigname_file_type
0843d9a0 V _ZTV10ha_archive
084400c0 r str1.0
0844010c r str2.1
08440120 r str3.2
08440145 r str4.3
084433c0 r S_recover_innodb_tmp_table
084433da r S_innodb_table_monitor
084433ef r S_innodb_tablespace_monitor
08443409 r S_innodb_lock_monitor
0844341d r S_innodb_monitor
0844342c r S_innodb_mem_validate
08443440 r str1.0
0844354b r str2.1
08443580 r str3.2
084435e0 r str4a1.3
08443620 r str4a2.4
08443648 r str4a3.5
08443660 r str4b.6
08443b57 r str5.7
08443b60 r renumber_tablespace_proc.8
08443da0 r discard_tablespace_proc1.9
08443e40 r discard_tablespace_proc2.10
08444000 r str1.11
084440a0 r str2.12
08447680 r yydefgoto
08447700 r yypgoto
08447780 r yyr1
084478c0 r yyrhs
08447cc0 r yyprhs
08447e00 r yyrline
08447f40 r yyr2
08448080 r yydefact
08448300 r yytable
08448820 r yycheck
08448d40 r yytname
08448fe0 r yytranslate
08449140 r yypact
0844a0c0 r yy_nxt
0844a440 r yy_meta
0844a520 r yy_def
0844a820 r yy_chk
0844aba0 r yy_accept
0844ae80 r yy_ec
0844b280 r yy_base
0845c8a0 R _ft_vft_boolean
0845c8b4 R _ft_vft_nlq
0845c8e0 R ft_keysegs
0845cf8b r _ZZ18__cxa_pure_virtualE19__PRETTY_FUNCTION__
0845d6c0 r special_opt_prefix_lengths
0845deaa r includedir_keyword.0
0845deb5 r include_keyword.1
0845dec8 R sha_const_key
0845dedc r K
0845e1a0 r Td4
0845e5a0 r Td3
0845e9a0 r Td2
0845eda0 r Td1
0845f1a0 r Td0
0845f5a0 r Te4
0845f9a0 r Te3
0845fda0 r Te2
084601a0 r Te1
084605a0 r Te0
084609a0 r rcon
08461cc0 r esperanto
08461d60 r persian
084620b0 r roman
084620e0 r spanish2
08462140 r slovak
084621e0 r lithuanian
08462280 r danish
08462360 r czech
084623e0 r turkish
08462480 r swedish
08462503 r spanish
08462520 r estonian
084625c0 r polish
084626a0 r slovenian
08462700 r romanian
084627a0 r latvian
08462880 r icelandic
08462bc0 r powers10
08462c00 r dig2bytes
08462c40 r frac_max
08462c80 r crc_table
08464c80 R deflate_copyright
08464cc0 r configuration_table
08464d38 r my_version.0
08464d40 r gz_magic
08464d80 r order.0
08464dc0 r lenfix.1
084655c0 r distfix.2
08465860 R inflate_copyright
084658a0 r lbase.0
084658e0 r lext.1
08465920 r dbase.2
08465960 r dext.3
084659a0 R _length_code
08465aa0 R _dist_code
08465ca0 r static_dtree
08465d20 r static_ltree
084661a0 r bl_order
084661c0 r base_dist
08466240 r extra_dbits
084662c0 r base_length
08466340 r extra_lbits
084663c0 r extra_blbits
08466480 R z_errmsg
084674dc A __fini_array_end
084674dc A __fini_array_start
084674dc A __init_array_end
084674dc A __init_array_start
084674e0 D __data_start
084674e0 W data_start
084674e4 d __dso_handle
084674e8 d p.0
08467500 D sym_group_rtree
08467508 D sym_group_geom
08467510 D sym_group_common
08467518 d longlong_str
0846751c d unsigned_longlong_str
08467520 d long_str
08467524 d signed_longlong_str
08467528 d signed_long_str
08467540 d symbols_map
08469d88 d symbols_max_len
08469da0 d to_upper_lex
08469ea0 d sql_functions
0846b0a0 d symbols
0846d700 d sql_functions_map
084713dc d sql_functions_max_len
084713e0 d rkey_to_rnext
08471400 d clock_seq_and_node_str
08471420 d _ZZN15Item_func_quote7val_strEP6StringE7escmask
08471440 D day_names_typelib
08471460 d day_names
08471480 D month_names_typelib
084714a0 d month_names
084714d4 d time_24hrs_format
084714ec d time_ampm_format
08471520 d interval_names
08471580 d field_types_result_type
08471600 d field_types_merge_rules
08472164 V _ZN10Field_null4nullE
08472168 D internal_table_name
0847216c d eof_buff
08472180 D sqlstate_map
08472aa4 d thr_lock_errno_to_mysql
08472ac0 D myisam_stats_method_str
08472ac4 D report_port
08472ac8 D master_connect_retry
08472acc D master_port
08472ae0 D my_long_options
084776d0 d sql_mode_str
084776e0 D status_vars
08477f5c D sp_automatic_privileges
08477f5d D opt_character_set_client_handshake
08477f5e D opt_large_files
08477f60 D query_cache_min_res_unit
08477f64 D thread_id
08477f68 D in_additional_cond
08477f6c D in_left_expr_name
08477f70 D myisam_recover_options_str
08477f74 D binary_keyword
08477f78 D delayed_user
08477f7c D my_localhost
08477f80 D first_keyword
08477f84 D mysql_data_home
08477f88 D sql_mode_typelib
08477fa0 d sql_mode_names
08478020 D show_comp_option_name
0847802c d load_default_groups
08478040 d tc_heuristic_recover_typelib
08478050 d tc_heuristic_recover_names
08478060 V _ZN14Arg_comparator17comparator_matrixE
084780c0 D sys_variables
08478344 d sys_select_limit
08478360 d sys_default_week_format
08478380 D sys_group_concat_max_len
084783a0 D sys_datetime_format
084783c0 D sys_date_format
084783e0 D sys_time_format
08478400 D sys_engine_condition_pushdown
0847841c D sys_innodb_support_xa
08478438 D sys_innodb_table_locks
08478460 D sys_net_wait_timeout
08478480 D sys_tmp_table_size
084784a0 D sys_tx_isolation
084784c0 D sys_sync_replication_timeout
084784e0 D sys_sync_replication_slave_id
08478500 D sys_sync_replication
08478520 D sys_storage_engine
08478540 D sys_updatable_views_with_limit
08478560 D sys_sort_buffer
08478580 D sys_query_cache_wlock_invalidate
084785a0 D sys_query_cache_type
084785c0 D sys_trans_prealloc_size
084785e0 D sys_trans_alloc_block_size
08478600 D sys_query_prealloc_size
08478620 D sys_query_alloc_block_size
08478640 D sys_range_alloc_block_size
08478660 D sys_div_precincrement
08478680 D sys_read_rnd_buff_size
084786a0 D sys_read_buff_size
084786c0 D sys_preload_buff_size
084786e0 D sys_optimizer_search_depth
08478700 D sys_optimizer_prune_level
08478720 D sys_new_mode
08478740 D sys_net_retry_count
08478760 D sys_net_write_timeout
08478780 D sys_net_read_timeout
084787a0 D sys_net_buffer_length
084787c0 D sys_myisam_stats_method
084787e0 D sys_myisam_sort_buffer_size
08478800 D sys_myisam_repair_threads
08478820 D sys_myisam_max_sort_file_size
08478840 D sys_multi_range_count
08478860 D sys_max_tmp_tables
08478880 D sys_max_sp_recursion_depth
084788a0 D sys_max_sort_length
084788c0 D sys_sql_max_join_size
084788e0 D sys_max_length_for_sort_data
08478900 D sys_max_seeks_for_key
08478920 D sys_max_join_size
08478940 D sys_pseudo_thread_id
08478960 D sys_max_heap_table_size
08478980 D sys_max_error_count
084789a0 D sys_max_delayed_threads
084789c0 D sys_max_insert_delayed_threads
084789e0 D sys_max_allowed_packet
08478a00 D sys_sql_low_priority_updates
08478a1c D sys_low_priority_updates
08478a40 D sys_long_query_time
08478a60 D sys_log_warnings
08478a80 D sys_join_buffer_size
08478aa0 D sys_interactive_timeout
08478ac0 D sys_completion_type
08478ae0 D sys_bulk_insert_buff_size
08478b00 D sys_auto_increment_offset
08478b20 D sys_auto_increment_increment
08478b40 D delay_key_write_type_names
08478b50 D bool_type_names
08478b5c D default_key_cache_base
08478b64 D sys_old_passwords
08478b80 D delay_key_write_typelib
08478b90 D bool_typelib
08478ba0 d old_conv
08478c00 D any_db
08478c20 D command_name
08478c98 D xa_state_names
08478ca8 D not_found_item
08478cac D view_ref_found
08478cb0 D not_found_field
08478cc0 D join_type_str
08478cf8 d warning_level_length
08478d08 d warning_level_names
08478d18 d sql_procs
08478d20 d lock_descriptions
08478d60 D binlog_hton
08478db4 D opt_tc_log_size
08478dc0 d command_lengths
08478e40 d command_array
08478ea8 d allow_all_hosts
08478ec0 D known_date_time_formats
08478f20 d is_null_string
08478f40 D tx_isolation_names
08478f60 D sys_table_aliases
08478fa0 D isam_hton
08479000 D federated_hton
08479060 D ndbcluster_hton
084790c0 D tina_hton
08479120 D example_hton
08479180 D blackhole_hton
084791e0 D berkeley_hton
08479234 D tx_isolation_typelib
08479260 D ha_row_type
084792a0 D sys_table_types
084792d8 d known_extensions
08479300 D heap_hton
08479360 D myisam_hton
084793b4 D myisam_stats_method_names
084793c4 D myisam_recover_names
084793d8 D myisam_recover_typelib
084793e8 D myisam_stats_method_typelib
084793f8 d ha_myisam_exts
08479420 D myisammrg_hton
08479474 d ha_myisammrg_exts
08479480 D innobase_hton
084794d4 D innobase_use_checksums
084794d5 D innobase_use_doublewrite
084794d8 D innobase_fast_shutdown
084794dc D innobase_flush_log_at_trx_commit
084794e0 D innodb_status_variables
084796f0 d ha_innobase_exts
084796f8 D del_exts
0847970c d deletable_extentions
0847971c D primary_key_name
08479720 D variables_fields_info
08479780 D triggers_fields_info
08479960 D open_tables_fields_info
084799e0 D table_names_fields_info
08479a60 D key_column_usage_fields_info
08479ba0 D table_constraints_fields_info
08479c60 D column_privileges_fields_info
08479d20 D table_privileges_fields_info
08479de0 D schema_privileges_fields_info
08479e80 D user_privileges_fields_info
08479f00 D view_fields_info
08479fe0 D stat_fields_info
0847a160 D proc_fields_info
0847a360 D coll_charset_app_fields_info
0847a3c0 D collation_fields_info
0847a480 D charsets_fields_info
0847a500 D columns_fields_info
0847a6e0 D tables_fields_info
0847a900 D schema_fields_info
0847a9a0 D schema_tables
0847ac94 D information_schema_name
0847ac9c d grant_types
0847acc0 d grant_names
0847ad00 d sys_column_types
0847ad80 d sys_privileges
0847aed0 D query_cache_type_names
0847aee0 D query_cache_type_typelib
0847aef0 D events_till_abort
0847af00 D sql_protocol_typelib
0847af10 D sql_protocol_names_lib
0847af24 D not_error_sqlstate
0847af28 D unknown_sqlstate
0847af2c d client_methods
0847af44 d option_types
0847af60 d default_options
0847b000 D client_errors
0847b0e0 D rpl_status_type
0847b100 D rpl_role_type
0847b10c D rpl_status_typelib
0847b11c D rpl_role_typelib
0847b12c D rpl_status
0847b140 D updatable_views_with_limit_names
0847b14c D updatable_views_with_limit_typelib
0847b15c d view_file_type
0847b180 d view_parameters
0847b250 d ci_collection_end
0847b260 V _ZN8Geometry13ci_collectionE
0847b280 d init_used_fields
0847b310 D my_tz_SYSTEM
0847b314 D my_tz_UTC
0847b318 d time_zone_tables_exist
0847b320 D days_in_month
0847b340 D log_10_int
0847b3e0 d internal_format_positions
0847b3e8 d time_separator
0847b400 D mysql_proc_table_exists
0847b420 d init_fields
0847b4c0 d triggers_file_parameters
0847b500 d trigname_file_parameters
0847b520 D archive_hton
0847b574 d ha_archive_exts
0847b580 D srv_test_n_mutexes
0847b584 D srv_test_array_size
0847b588 D srv_test_n_reserved_rnds
0847b58c D srv_test_n_free_rnds
0847b590 D srv_test_n_loops
0847b594 D srv_test_n_threads
0847b598 D srv_sim_disk_wait_len
0847b59c D srv_sim_disk_wait_pct
0847b5a0 D srv_print_verbose_log
0847b5a4 D srv_priority_boost
0847b5a8 D srv_spin_wait_delay
0847b5ac D srv_thread_sleep_delay
0847b5b0 D srv_n_free_tickets_to_enter
0847b5b4 D srv_n_spin_wait_rounds
0847b5b8 D srv_use_adaptive_hash_indexes
0847b5bc D srv_set_thread_priorities
0847b5c0 D srv_use_checksums
0847b5c4 D srv_use_doublewrite_buf
0847b5c8 D srv_thread_concurrency
0847b5cc D srv_max_buf_pool_modified_pct
0847b5d0 D srv_max_n_open_files
0847b5d4 D srv_win_file_flush_method
0847b5d8 D srv_unix_file_flush_method
0847b5dc D srv_lock_wait_timeout
0847b5e0 D srv_n_file_io_threads
0847b5e4 D srv_lock_table_size
0847b5e8 D srv_mem_pool_size
0847b5ec D srv_pool_size
0847b600 D srv_latin1_ordering
0847b700 D srv_flush_log_at_trx_commit
0847b704 D srv_log_buffer_size
0847b708 D srv_log_file_size
0847b70c D srv_n_log_files
0847b710 D srv_n_log_groups
0847b714 D srv_auto_extend_increment
0847b718 D srv_main_thread_op_info
0847b71c D srv_fatal_semaphore_wait_threshold
0847b720 d dict_ibfk
0847b728 d ibuf_rnd
0847b72c D pars_star_denoter
0847b730 D pars_clustered_token
0847b734 D pars_unique_token
0847b738 D pars_consistent_token
0847b73c D pars_close_token
0847b740 D pars_open_token
0847b744 D pars_desc_token
0847b748 D pars_asc_token
0847b74c D pars_update_token
0847b750 D pars_float_token
0847b754 D pars_char_token
0847b758 D pars_int_token
0847b75c D pars_distinct_token
0847b760 D pars_sum_token
0847b764 D pars_count_token
0847b768 D pars_rnd_str_token
0847b76c D pars_rnd_token
0847b770 D pars_assert_token
0847b774 D pars_printf_token
0847b778 D pars_sysdate_token
0847b77c D pars_length_token
0847b780 D pars_instr_token
0847b784 D pars_concat_token
0847b788 D pars_replstr_token
0847b78c D pars_substr_token
0847b790 D pars_binary_to_number_token
0847b794 D pars_to_binary_token
0847b798 D pars_to_number_token
0847b79c D pars_to_char_token
0847b7a0 d yy_init
0847b7a8 D trx_sys_mysql_bin_log_pos
0847b7b0 D trx_sys_mysql_master_log_pos
0847b7b8 D eval_rnd
0847b7bc D recv_n_pool_free_frames
0847b7c0 D recv_previous_parsed_rec_type
0847b7c4 D fil_addr_null
0847b7cc D fil_path_to_mysql_datadir
0847b7d0 d page_rnd
0847b7d4 D dtype_binary
0847b7d8 D dtype_binary_val
0847b7f0 D data_mysql_default_charset_coll
0847b7f4 D ut_dulint_max
0847b7fc D ut_rnd_ulint_counter
0847b800 D os_innodb_umask
0847b804 d os_aio_n_segments
0847b820 d mask
0847b8c0 D myisam_readnext_vec
0847b8e0 D myisam_read_vec
0847b914 D myisam_data_pointer_size
0847b918 D myisam_bulk_insert_tree_size
0847b920 D myisam_max_temp_length
0847b928 D myisam_concurrent_insert
0847b92c D myisam_block_size
0847b930 D myisam_quick_table_bits
0847b934 D myisam_log_file
0847b938 D myisam_log_filename
0847b93c D myisam_pack_file_magic
0847b940 D myisam_file_magic
0847b960 D ft_precompiled_stopwords
0847c1e4 D ft_boolean_syntax
0847c1f4 D ft_query_expansion_limit
0847c1f8 D ft_max_word_len
0847c1fc D ft_min_word_len
0847c200 d wghts
0847c220 d _wghts
0847c278 d nwghts
0847c280 d _nwghts
0847c2d8 D merge_insert_method
0847c2e8 d merge_insert_methods
0847c2f4 D dflt_key_cache
0847c2f8 d my_errmsgs_list
0847c2fc d my_errmsgs_globerrs
0847c320 D globerrs
0847c394 D wild_one
0847c395 D wild_many
0847c398 D fatal_error_handler_hook
0847c39c D error_handler_hook
0847c3a0 D my_abort_hook
0847c3a4 D raid_type_string
0847c3ac D my_time_to_wait_for_lock
0847c3b0 D sf_min_adress
0847c3b4 D my_once_extra
0847c3b8 D soundex_map
0847c3bc D my_default_record_cache_size
0847c3c0 D my_file_info
0847c3c4 D my_file_limit
0847c3c8 D my_umask_dir
0847c3cc D my_umask
0847c3d0 D my_getopt_print_errors
0847c3d4 D disabled_my_option
0847c3d8 D my_getopt_error_reporter
0847c3dc d special_opt_prefix
0847c3f4 d f_extensions
0847c3fc D default_charset_info
0847c400 d nbits
0847c500 d PADDING
0847c540 d alarm_aborted
0847c544 D max_write_lock_count
0847c548 D thr_upgraded_concurrent_insert_lock
0847c54c D my_pthread_create_detached
0847c560 d rerrs
0847c640 D cclasses
0847c720 d cnames
0847ca20 D _dig_vec_lower
0847ca60 D _dig_vec_upper
0847caa0 d scaler1
0847cb00 d scaler10
0847cb60 d sec
0847cc60 D my_collation_8bit_simple_ci_handler
0847cca0 D my_charset_8bit_handler
0847cd20 D my_charset_big5_bin
0847cda0 d my_charset_big5_handler
